              	; --------------------------------------
              	; zasm: assemble "Main.asm"
              	; date: 2026-05-25 18:28:04
              	; --------------------------------------


              	; Z80Mini   -   Maio de 2026
              	
              	; Sistema Monitor basico v1
              	;
              	; Z80 @7.372800Mhz
              	; ROM 32Kb @28C256      0000-7FFF
              	; RAM 32kb @62256       8000-FFFF
              	;
              	; Teclado Mecânico :) Custom    -   0x40 (Read/Write)
              	; I2C EEPROM (Drivers A: B: etc...)
              	; I2C RTC - ricoh223    -   0x64
              	; I2C Display 4x 7seg, Leds(5), Sons   -   0x0E
              	; In/Out generic    -   0xC0 (Read/Write)
              	; Leds  -   0x10
              	; GLCD 128x64   -   0x70
              	; USB-SERIAL SIO/2 A    -   0x00
              	; P2-SERIAL (Printer) SIO/2 B   -   0x00
              	;
              	;
              	; Compilação: zasm --z80 -w -u --bin  Main.asm
              	;
              	;
              	;   Comandos suportados:
              	;       H / ?       -   Mostra menu de ajuda, listando os comandos.
              	;       CLS         -   Limpa a tela lcd.
              	;       IHEX        -   Aguarda recebimento intel hex via serial_A (USB-SERIAL) Ex: :0C800000CDF4.........
              	;       OUT         -   Escreve byte na saida. (OUT 10 01) Liga led 1 da porta 0x10
              	;       IN          -   Lê byte da entrada. (IN 0c) Lê byte da entrada 0xC0
              	;       JUMP        -   Desvia PC para endereço. (JUMP 8000)
              	;       CALL        -   Salva monitor como retorno e desvia para endereço. (CALL 8000) o programa pode use RET e voltar para o Monitor.
              	;       DUMP        -   Mostra 40 bytes a partir do endereço atual da ram. (DUMP 8000)
              	;       WRITE       -   Escreve bytes a partir do endereço. (WRITE 8000) Linha vazia para inserção.
              	;       EDIT        -   Edita bytes a partir do endereço. (EDIT 8000) Linha vazia não alterar valor atual, "." para edição.
              	;       I2CLIST     -   Lista dispositivos i2c conectados no barramento.
              	;       FORMAT      -   Formata eeprom no drive atual.
              	;       DIR         -   Lista arquivos do driver atual.
              	;       LOAD        -   Carrega arquivo do drive atual. (LOAD NAME)
              	;       EXEC        -   Carrega e execulta arquivo do drive atual. (EXEC NAME)
              	;       DEL         -   Deleta arquivo no drive atual. (DEL NAME)
              	;       SAVE        -   Salva arquivo no drive atual. Name max 8 chars. (SAVE NAME RAM_ADDR_XXXX SIZE_XXXX) -> save blink 8000 004f
              	;       
              	;
              	;   API Z80Mini:
              	;       delay500ms          equ     0x0100  ;   Delay 500ms
              	;       delay               equ     0x0103  ;   On entry: DE = Delay time in milliseconds
              	;       I2C_Open            equ     0x0106  ;   On entry: A = Device address (bit zero is read flag)
              	;       I2C_Close           equ     0x0109  ;   Close
              	;       I2C_Read            equ     0x010C  ;   On exit: If successful A = data byte and Z flagged
              	;       I2C_Write           equ     0x010F  ;   On entry: A = Data byte, or Address byte (bit zero is read flag)
              	;       keyboardIsEsc       equ     0x0112  ;   Verifica se ESC foi precionada. On exit: If press A = CTRLC and NZ flagged
              	;       keyboardWaitA       equ     0x0115  ;   Aguarda tecla, letra em A. (BC DE HL preserved)
              	;       keyboardA           equ     0x0118  ;   Lê teclado, Se tecla Carry=1. Letra em A. (BC DE HL preserved)
              	;       setDefaultSerialA   equ     0x011B  ;   Seta terminal padrao porta A, Quando reinicia volta para A.
              	;       setDefaultSerialB   equ     0x011E  ;   Seta terminal padrao porta B (P2), Quando reinicia volta para A.
              	;       serialPrintA        equ     0x0121  ;   Imprime char in A no terminal setado.
              	;       serialInputA        equ     0x0124  ;   Aguarda receber char no terminal setado. Retorno em A.
              	;       serialPrintStr      equ     0x0127  ;   Imprime string (HL) terminado em 0 no terminal setado. MAX 128 chars. MODIFIES : A,B,C
              	;       serialCRLF          equ     0x012A  ;   Imprime CR e LF no terminal setado.
              	;       serialHexA          equ     0x012D  ;   Imprime byte em A no formato HEX, no terminal setado. Ex: 'D' = 44
              	;       serialHexHL         equ     0x0130  ;   Imprime HL como 4 digitos hexadecimais, no terminal setado. Ex: HL=$80FF -> imprime "80FF"
              	;       serialInHexA        equ     0x0133  ;   Pegar 2 caracteres ASCII (0-9 A-F), do terminal setado e converte em um byte em A. SEM ECHO
              	;       serialInHexHL       equ     0x0136  ;   Pegar 4 caracteres ASCII (0-9 A-F), do terminal setado e converte em HL. SEM ECHO
              	
              	;       initLCD             equ     0x0139  ;   Inicializa GLCD
              	;       clearGBUF           equ     0x013C  ;   Limpa buffer da memoria de grafico. Precisa do plotToLCD para refletir no lcd.
              	;       clearGrLCD          equ     0x013F  ;   Limpa memoria grafico do GLCD. Sem o plotToLCD.
              	;       clearTxtLCD         equ     0x0142  ;   Limpar caracteres do LCD
              	;       setGrMode           equ     0x0145  ;   Seta modo Grafico. 128x64
              	;       setTxtMode          equ     0x0148  ;   Seta mode Text. 16x4 equivalente
              	;       drawBox             equ     0x014B  ;   Desenha caixa. Entradas: BC = X0,Y0 - DE = X1,Y1    Destroys: HL
              	;       drawLine            equ     0x014E  ;   Desenha linha.  Entradas: BC = X0,Y0 - DE = X1,Y1
              	;       drawCircle          equ     0x0151  ;   Desenha circulo. Entradas BC = xm,ym (Ponro do Meio) - E = radius
              	;       drawPixel           equ     0x0154  ;   Desenha um pixel em X Y.  Entrada B = column/X (0-127), C = row/Y (0-63)   Destroys: HL
              	;       fillBox             equ     0x0157  ;   Desenha caixa preenchida. Entradas: BC = X0,Y0 - DE = X1,Y1    Destroys: HL
              	;       fillCircle          equ     0x015A  ;   Desenha circulo preenchido. Entradas BC = xm,ym (Ponro do Meio) - E = radius
              	;       plotToLCD           equ     0x015D  ;   Rotina principal de desenho. Move GBUF para o LCD e limpa o buffer ou não (setBufClear, setBufNoClear).  Destroys: ALL
              	;       printString         equ     0x0160  ;   Imprimir texto ASCII em uma determinada linha. Entradas: A = 0 a 3 Número da linha. .db "String" na próxima linha, terminar com 0
              	;       printChars          equ     0x0163  ;   (Ver detalhes) Imprimir caracteres na posição X,Y. Entrada B = coluna/X (0-7), C = linha/Y (0-3). HL = Endereço inicial do texto a ser exibido, termina com 0
              	;       NADA                equ     0x0166  ;   Vazio...
              	;       NADA                equ     0x0169  ;   Vazio...
              	;       setBufClear         equ     0x016C  ;   Configura limpeza do buffer após a saída para o LCD e vai para clearGBUF.
              	;       setBufNoClear       equ     0x016F  ;   Configura para não limpar o buffer após a saída para o LCD.
              	;       clearPixel          equ     0x0172  ;   Limpa um pixel X Y.  Input B = column/X (0-127), C = row/Y (0-63)    Destroy HL
              	;       flipPixel           equ     0x0175  ;   Inverte um pixel X Y.  Input B = column/X (0-127), C = row/Y (0-63)    Destroy HL
              	;       drawGraphic         equ     0x0178  ;   Desenha no buffer. Entrada: A = número ASCII ou se A=0 Então  HL = Endereço dos dados gráficos. B = largura do gráfico em pixels (1-128). C = altura do gráfico em pixels (1-64). Destroy: ALL
              	;       invGraphic          equ     0x017B  ;   Altera a flag de desenho inverso. (não inverte grafico atual) Destroy A
              	;       initTerminal        equ     0x017E  ;   Inicializa o Terminal GLCD. Cursor 0,0 e limpa buffer.
              	;       sendCharToLCD       equ     0x0181  ;   Envia ou manipula caracteres ASCII para a tela GLCD (Terminal). Entrada: A = caractere ASCII a ser enviado para a tela GLCD. A = somente cursor desenhado.
              	;       sendStringToLCD     equ     0x0184  ;   Imprime string no terminal GLCD. DE = inicio da string. A = caractere para parar a impressão. A impressão para e retorna quando um CR é impresso. Destroy ALL
              	;       sendRegToLCD        equ     0x0187  ;   Imprime byte em A no formato HEX, no GLCD. Ex: 'D' = 44
              	;       sendHLToLCD         equ     0x018A  ;   Imprime HL como 4 digitos hexadecimais, no GLCD. Ex: HL=$80FF -> imprime "80FF"
              	;       setCursor           equ     0x018D  ;   Define a posição do cursor gráfico. Entradas: BC = X,Y onde X = 0..127, Y = 0..63   Destroy A
              	;       getCursor           equ     0x0190  ;   Obter a posição do cursor. Saídas: BC = X,Y onde X = 0..127, Y = 0..63
              	;       displayCursor       equ     0x0193  ;   Exibir Cursor. Entrada: A = 0, Ativar cursor, A = diferente de zero, Desativar cursor.
              	;       autoLF              equ     0x0196  ;   Avanço de linha automático quando o cursor atinge o final da linha (Terminal). Entrada: A = 0, Avanço de linha automático; A = diferente de zero, Sem avanço de linha automático. Padrao LIGADO.
              	;       underline           equ     0x0199  ;   Exibir sublinhado no caractere (Terminal). O estado inicial é sem sublinhado. Chamar esta rotina irá ALTERAR/DESLIGAR o sinalizador de sublinhado.
              	;       plotAlways          equ     0x019C  ;   Quando sendCharToLCD é chamado, Atualiza GLCD ou não. Se Desativado plotToLCD deve ser chamado atualizar o GLCD. Entrada: A=0, Plotar sempre; A>0, Não plotar. O padrão é Plotar sempre.
              	
              	
              	
              	
              	; -----------------------------------------------------------------------------
              	; H_Delay CONFIG
              	; -----------------------------------------------------------------------------
708000:         	kCPUClock:          .EQU 7372800       ;CPU clock speed in Hz
0024:         	kDelayOH:           .EQU 36             ;Overhead for each 1ms in Tcycles
001A:         	kDelayLP:           .EQU 26             ;Inner loop time in Tcycles
1CCC:         	kDelayTA:           .EQU kCPUClock / 1000 ;CPU clock cycles per millisecond
1CA8:         	kDelayTB:           .EQU kDelayTA - kDelayOH  ;Cycles required for inner loop
011A:         	kDelayCnt:          .EQU kDelayTB / kDelayLP  ;Loop counter for inner loop
              	
              	
              	; -----------------------------------------------------------------------------
              	; SYSTEM SETTINGS
              	; -----------------------------------------------------------------------------
FFF0:         	SYSTEM_SP:	        .EQU 	$FFF0	;INITIAL STACK POINTER
              	
              	; -----------------------------------------------------------------------------
              	; SIO/2 - SERIAL
              	; -----------------------------------------------------------------------------
0000:         	SIOA_D		        .EQU	$00
0002:         	SIOA_C		        .EQU	$02
0001:         	SIOB_D		        .EQU	$01 ; Conector P2
0003:         	SIOB_C		        .EQU	$03 ; Conector P2
              	
              	
              	; -----------------------------------------------------------------------------
              	; I2C SETTINGS
              	; -----------------------------------------------------------------------------
2710:         	TIMEOUT:        .EQU    10000      ; Timeout loop counter
00A0:         	EEDRIVE_A       .EQU    $A0        ; Drive A
00AE:         	EEDRIVE_B       .EQU    $AE        ; Drive B
              	
              	; -----------------------------------------------------------------------------
              	; PORTS
              	; -----------------------------------------------------------------------------
0070:         	GLCD_INST           .EQU    $70
0071:         	GLCD_DATA           .EQU    $71
              	
0040:         	KEYBOARD		    .EQU	$40
              	
              	
              	
              	
0008:         	BKSP:   EQU 08H                 ; Back space 08H
0009:         	TAB:    EQU 09H                 ; Horizontal TAB
000A:         	LF:     EQU 0AH                 ; Line feed
000C:         	CS:     EQU 0CH                 ; Clear screen
000D:         	CR:     EQU 0DH                 ; Carriage return
0020:         	SPACE:  EQU 20H                 ; Space
008F:         	CURSOR: EQU 8FH                 ; Cursor
              	
              	
              	
0000:         	    .ORG $0000
0000: C32002  	    JP INICIO
              	
              	    .ORG $0008
0008: C37803  	RST08:	JP	CONOUT
              	
              	    .ORG $0010
0010: C3AA02  	RST10:	JP	CONIN
              	
              	    .ORG 0018H ; check break - BASIC
0018: C39002  	RST18   JP CHKKEY
              	
              	    .ORG $0100
              	    ;   Delay
0100: C37C1F  	    JP DELAY_500MS
0103: C37B02  	    JP H_Delay
              	    ;   I2C
0106: C35717  	    JP I2C_Open
0109: C35E17  	    JP I2C_Close
010C: C39E17  	    JP I2C_Read
010F: C36117  	    JP I2C_Write
              	    ;   Keyboard
0112: C39002  	    JP CHKKEY
0115: C3AA02  	    JP CONIN
0118: C3B402  	    JP CONIN_NOT_LOOP
              	    ;   Serial
011B: C3851F  	    JP SET_DEFAULT_SERIAL_A
011E: C3921F  	    JP SET_DEFAULT_SERIAL_B
0121: C3700F  	    JP OUTCH
0124: C3760F  	    JP INCH
0127: C37C0F  	    JP SNDSTR
012A: C3BF16  	    JP SERIAL_A_TXCRLF
012D: C39716  	    JP SERIAL_A_PRINT_A_HEX
0130: C38E16  	    JP SERIAL_A_PRINT_HL_HEX
0133: C39F1F  	    JP SERIAL_GET_HEX_A
0136: C3AB1F  	    JP SERIAL_GET_HEX_HL
              	    ;   GLCD
0139: C39A03  	    JP initLCD
013C: C3B703  	    JP clearGBUF
013F: C3C703  	    JP clearGrLCD
0142: C3F103  	    JP clearTxtLCD
0145: C30704  	    JP setGrMode
0148: C31504  	    JP setTxtMode
014B: C31C04  	    JP drawBox
014E: C35704  	    JP drawLine
0151: C30205  	    JP drawCircle
0154: C3D705  	    JP drawPixel
0157: C34704  	    JP fillBox
015A: C3C905  	    JP fillCircle
015D: C32A06  	    JP plotToLCD
0160: C35D06  	    JP printString
0163: C37E06  	    JP printChars
0166: C39F01  	    JP NADA
0169: C39F01  	    JP NADA
016C: C3A506  	    JP setBufClear
016F: C3AD06  	    JP setBufNoClear
0172: C3E805  	    JP clearPixel
0175: C3FA05  	    JP flipPixel
0178: C37C08  	    JP drawGraphic
017B: C36408  	    JP invGraphic
017E: C3B206  	    JP initTerminal
0181: C3DF06  	    JP sendCharToLCD
0184: C34F07  	    JP sendStringToLCD
0187: C37607  	    JP sendRegToLCD
018A: C39307  	    JP sendHLToLCD
018D: C39F07  	    JP setCursor
0190: C35508  	    JP getCursor
0193: C35A08  	    JP displayCursor
0196: C37408  	    JP autoLF
0199: C36C08  	    JP underline
019C: C37808  	    JP plotAlways
              	
019F:         	NADA:
019F: C9      	    RET
              	
              	
              	
              	
              	
              	
              	
              	
              	
              	
              	; ============================================================
              	; KEYMAPS
              	; ============================================================
              	
              	;	$FF - Capsloock
              	;	$FE - Shift left
              	;	$FD - Ctrl left
              	;	$FC - Windows
              	;	$FB - Alt left
              	;	$FA - Alt Gr    (Load intel hex - Serial A)
              	;	$F9 - LUZ   (CALL 8000H)
              	;	$F8 - Shift Right   (Display Scroll UP)
              	;	$F7 - Ctrl Right    (Display Scroll DOWN)
              	;	$F6 - Fn
              	;	$F5 - 
              	;	$F4 - 
              	
01A0:         	KEYMAP_NORMAL:
01A0: 1B09FFFE	    DB  $1B,  $09,  $FF,  $FE,  $FD,  $FC,  $FB,  $20
01A4: FDFCFB20	
01A8: 3171615C	    DB   '1', 'q',  'a',  '\',  $00,  $FA,  $F6,  $F9
01AC: 00FAF6F9	
01B0: 33656478	    DB   '3', 'e',  'd',  'x',  ',',  'l',  'o',  '9'
01B4: 2C6C6F39	
01B8: 34726663	    DB   '4', 'r',  'f',  'c',  '.',  'ç',  'p',  '0'
01BC: 2EE77030	
01C0: 36796862	    DB   '6', 'y',  'h',  'b',  $F8,  $F7,  0x0D, 0x08
01C4: F8F70D08	
01C8: 35746776	    DB   '5', 't',  'g',  'v',  ';',  '~', 	'`',  '-'
01CC: 3B7E602D	
01D0: 37756A6E	    DB   '7', 'u',  'j',  'n',  '/',  ']',  '[',  '='
01D4: 2F5D5B3D	
01D8: 3277737A	    DB   '2', 'w',  's',  'z',  'm',  'k',  'i',  '8'
01DC: 6D6B6938	
              	    
01E0:         	KEYMAP_SHIFT:
01E0: 1B09FFFE	    DB  $1B,  $09,  $FF,  $FE,  $FD,  $FC,  $FB,  $20
01E4: FDFCFB20	
01E8: 2151417C	    DB   '!', 'Q',  'A',  '|',  $00,  $FA,  $F6,  $F9
01EC: 00FAF6F9	
01F0: 23454458	    DB   '#', 'E',  'D',  'X',  '<',  'L',  'O',  '('
01F4: 3C4C4F28	
01F8: 24524643	    DB   '$', 'R',  'F',  'C',  '>',  'Ç',  'P',  ')'
01FC: 3EC75029	
0200: A8594842	    DB   '¨', 'Y',  'H',  'B',  $F8,  $F7,  0x0D, 0x08
0204: F8F70D08	
0208: 25544756	    DB   '%', 'T',  'G',  'V',  ':',  '^', 	$22,  '_'
020C: 3A5E225F	
0210: 26554A4E	    DB   '&', 'U',  'J',  'N',  '?',  '}',  '{',  '+'
0214: 3F7D7B2B	
0218: 4057535A	    DB   '@', 'W',  'S',  'Z',  'M',  'K',  'I',  '*'
021C: 4D4B492A	
              	
              	
0220:         	INICIO:
              	    ; Set defult I2C device addess: 24LC256 (Copy from/to Mem)
0220: 3EA0    	    LD A, EEDRIVE_A
0222: 32FDFB  	    LD (I2CA_BLOCK), A        
              	
              	    ;CALL FS_CHK_SIG
              	    ;JP Z, INICIO1
              	    ;LD HL, str_notfmt
              	    ;CALL PUTS
0225:         	INICIO1:
              	
0225: 31F0FF  	    LD SP, SYSTEM_SP
              	
0228: 116400  	    LD DE, $0064 ; 100ms
022B: CD7B02  	    CALL H_Delay
              	
              	    ;Init Serial
022E: CD2D0F  	    CALL initSerial
              	
              	    ;Init Teclado
0231: 3EFF    	    LD      A, 0xFF
0233: D340    	    OUT     (KEYBOARD), A           ; Todas as colunas desativadas
              	
              	    ; Init LCD
0235: CDB206  	    CALL initTerminal
0238: CD0704  	    CALL setGrMode
023B: CDAD06  	    CALL setBufNoClear
              	
              	
              	    ; Show init string
023E: 010000  	    LD BC, $0000
0241: CD9F07  	    CALL setCursor
0244: 11CA1F  	    LD DE, WELLCOME_LCD
              	    ; set cursor ON
0247: 3E00    	    LD A, 0
0249: 3294FB  	    LD (CURSOR_ON), A
              	    ; send cursor
024C: CD4F07  	    CALL sendStringToLCD
              	
              	
024F:         	MAIN_LOOP:
024F: CD5B02  	    CALL showCurrentDriver
              	
0252: CD7712  	    CALL GETLINE             ; Lê linha em LINEBUF
0255: CDC80F  	    CALL PARSE_CMD           ; Interpreta e executa
              	
0258: C34F02  	    JP      MAIN_LOOP
              	
              	
025B:         	showCurrentDriver:
025B: 3AFDFB  	    LD A, (I2CA_BLOCK)
025E: FEA0    	    CP EEDRIVE_A  ; Drive A
0260: 2805    	    JR Z, showDriveA
0262: FEAE    	    CP EEDRIVE_B  ; Drive B
0264: 2808    	    JR Z, showDriveB
0266: C9      	    RET
0267:         	showDriveA:
0267: 3E41    	    LD A, 'A'
0269: CDDF06  	    CALL sendCharToLCD
026C: 1807    	    JR showCursor
026E:         	showDriveB:
026E: 3E42    	    LD A, 'B'
0270: CDDF06  	    CALL sendCharToLCD
0273: 1800    	    JR showCursor
0275:         	showCursor:
0275: 3E3A    	    LD A, ':'
0277: CDDF06  	    CALL sendCharToLCD
027A: C9      	    RET
              	
              	
              	
              	
              	; **********************************************************************
              	; Delay by DE milliseconds
              	;   On entry: DE = Delay time in milliseconds
              	;   On exit:  AF BC DE HL IX IY I AF' BC' DE' HL' preserved
027B: F5      	H_Delay:    PUSH AF
027C: C5      	            PUSH BC
027D: D5      	            PUSH DE
              	; 1 ms loop, DE times...        ;[=36]   [=29]    Overhead for each 1ms
027E: 011A01  	LoopDE:    LD   BC, kDelayCnt   ;[10]    [9]
              	; Inner loop, BC times...       ;[=26]   [=20]    Loop time in Tcycles
0281: 0B      	LoopBC:    DEC  BC             ;[6]     [4]
0282: 79      	            LD   A,C            ;[4]     [4]
0283: B0      	            OR   B              ;[4]     [4]
0284: C28102  	            JP   NZ,LoopBC     ;[12/7]  [8/6] 
              	; Have we looped once for each millisecond requested?
0287: 1B      	            DEC  DE             ;[6]     [4]
0288: 7B      	            LD   A,E            ;[4]     [4]
0289: B2      	            OR   D              ;[4]     [4]
028A: 20F2    	            JR   NZ, LoopDE     ;[12/7]  [8/6]
028C: D1      	            POP  DE
028D: C1      	            POP  BC
028E: F1      	            POP  AF
028F: C9      	            RET
              	
              	
              	
              	
              	
              	
              	
              	
              	
              	
              	
              	
              	
              	
              	
              	
              	
              	
              	
              	
              	
              	
              	
              	
              	
              	
              	
              	
              	
              	
              	
              	#include "TECLADO.asm"
0016:         	DB_OUTER    EQU     22          ; iterações externas
00F0:         	DB_INNER    EQU     240         ; iterações DJNZ internas
              	
              	
              	; -----------------------------------------------------------------------------
              	;   Check break key (Basic)
              	;       On exit: If press A = CTRLC and NZ flagged
              	;       BC DE HL preserved
              	; -----------------------------------------------------------------------------
0290:         	CHKKEY:
0290: 3EFE    	    LD      A, 0xFE             ; Máscara: bit 0 baixo = col 0
0292: D340    	    OUT     (KEYBOARD), A       ; Ativa coluna B
0294: 00      	    NOP                         ; ~270 ns de estabilização
0295: 00      	    NOP
0296: 00      	    NOP
0297: 00      	    NOP
0298: DB40    	    IN      A, (KEYBOARD)       ; Lê linhas
029A: 2F      	    CPL                         ; Pull-up: inverte (pressionado = 1)
029B: FE01    	    CP 1
029D: C2A502  	    jp nz, GRET
02A0: 3E03    		LD  A, CTRLC
02A2: FE00    		CP	0
02A4: C9      		RET
02A5:         	GRET:
02A5: 3E00    		LD  A, 0
02A7: FE00    		CP 0
02A9: C9      		RET
              	
              	
              	;   CONIN: Lê um teclado → A
              	;       On exit: A = KEY
              	;       BC DE HL preserved
              	;       loop until key is pressed 
02AA:         	CONIN:
02AA: C5      	    PUSH BC
02AB: D5      	    PUSH DE
02AC: E5      	    PUSH HL
02AD: CDED02  	    CALL readKeyboarWaitPressA
02B0: E1      	    POP HL
02B1: D1      	    POP DE
02B2: C1      	    POP BC
02B3: C9      	    RET
              	
              	
              	
              	;   CONIN: Lê um teclado → A
              	;       On exit: A = KEY
              	;       BC DE HL preserved
              	;       sem loop, Carry=1 se tecla
02B4:         	CONIN_NOT_LOOP:
02B4: C5      	    PUSH BC
02B5: D5      	    PUSH DE
02B6: E5      	    PUSH HL
02B7: CDBE02  	    CALL readKeyboarPressA
02BA: E1      	    POP HL
02BB: D1      	    POP DE
02BC: C1      	    POP BC
02BD: C9      	    RET
              	
              	
02BE:         	readKeyboarPressA;
02BE: AF      	    XOR A
02BF: 329EFB  	    LD (MEN_SHIFT), A ; reset shift
02C2: CD2B03  	    CALL    SCAN_MATRIX
02C5: D0      	    RET      NC
02C6: CDD102  	    CALl GetKeycode
02C9: CDD702  	    CALL checkShiftKey
02CC: 3A9FFB  	    LD A, (KEY_PRESS)
02CF: 37      	    SCF  ; Carry = 1
02D0: C9      	    RET
              	
              	
              	
              	; A = col*8 + row  (0x00 – 0x3F)
02D1:         	GetKeycode:
              	    ; --- Tecla confirmada: calcula keycode ---
              	    ; col*8 + row  (0x00 – 0x3F)
02D1: 78      	    LD      A, B                ; B = coluna
02D2: 87      	    ADD     A, A                ; ×2
02D3: 87      	    ADD     A, A                ; ×4
02D4: 87      	    ADD     A, A                ; ×8
02D5: 81      	    ADD     A, C                ; + linha (C) = keycode
02D6: C9      	    RET
              	
              	
              	; Verifica se shift e recupera ascii
              	;   Salva tecla em KEY_PRESS
02D7:         	checkShiftKey:
              	    ; Verifica Shift
02D7: 5F      	    LD E, A
02D8: 21A001  	    LD HL, KEYMAP_NORMAL
02DB: 3A9EFB  	    LD A, (MEN_SHIFT)
02DE: FE01    	    CP 1
02E0: C2E602  	    JP NZ, NO_SHIFT
02E3: 21E001  	    LD HL, KEYMAP_SHIFT
02E6:         	NO_SHIFT:
02E6: CD2603  	    CALL 	DO_LOOKUP	; pega tecla
02E9: 329FFB  	    LD (KEY_PRESS), A
02EC: C9      	    RET
              	
              	
              	
              	; LER TECLADO
              	; Aguarda até uma teclad for pressionada e retorna em A
02ED:         	readKeyboarWaitPressA:
02ED: CD2B03  	    CALL    SCAN_MATRIX
02F0: D2ED02  	    JP      NC, readKeyboarWaitPressA       ; Nenhuma tecla, continua
              	
              	    ; --- Primeira leitura positiva: aguarda debounce ---
02F3: CD1A03  	    CALL    DEBOUNCE
              	
              	    ; --- Confirma que a tecla ainda está pressionada ---
02F6: AF      	    XOR A
02F7: 329EFB  	    LD (MEN_SHIFT), A ; reset shift
02FA: CD2B03  	    CALL    SCAN_MATRIX
02FD: D2ED02  	    JP      NC, readKeyboarWaitPressA       ; Foi ruído, descarta
              	
0300: CDD102  	    CALL GetKeycode
              	    
0303: CDD702  	    CALL checkShiftKey
              	    
              	    ; --- Aguarda soltar + debounce de release ---
0306:         	WAIT_RELEASE:
0306: CD2B03  	    CALL    SCAN_MATRIX
0309: DA0603  	    JP      C, WAIT_RELEASE     ; Ainda pressionada
030C: CD1A03  	    CALL    DEBOUNCE            ; Debounce do soltar
030F: CD2B03  	    CALL    SCAN_MATRIX
0312: DA0603  	    JP      C, WAIT_RELEASE     ; Bounce no release, volta a esperar
              	
0315: 3A9FFB  	    LD A, (KEY_PRESS)
0318: B7      	    OR A
0319: C9      	    RET
              	
              	
              	
              	
              	
              	
              	; ============================================================
              	; DEBOUNCE  –  espera ~10 ms (calibrado para 7.3728 MHz)
              	;   Usa DE como contador, preserva BC
              	;   T-states totais ≈ 69.080  →  ~9.36 ms
              	; ============================================================
031A:         	DEBOUNCE:
031A: C5      	    PUSH    BC
031B: 0616    	    LD      B, DB_OUTER         ; B = contador externo
031D:         	DB_OUTER_LOOP:
031D: 0EF0    	    LD      C, DB_INNER         ; C = contador interno
031F:         	DB_INNER_LOOP:
031F: 0D      	    DEC     C                   ; 4 T
0320: 20FD    	    JR      NZ, DB_INNER_LOOP   ; 12 T (não salta) / 7 T (salta)
0322: 10F9    	    DJNZ    DB_OUTER_LOOP       ; 13 T (não salta) / 8 T (salta)
0324: C1      	    POP     BC
0325: C9      	    RET
              	
              	
              	; Pega char in table
0326:         	DO_LOOKUP:
0326: 1600    	    LD      D, 0
0328: 19      	    ADD     HL, DE
0329: 7E      	    LD      A, (HL)
032A: C9      	    RET
              	
              	
              	; ============================================================
              	; SCAN_MATRIX
              	;   Varre 8 colunas, uma por vez (bit baixo = ativo)
              	;   Saída: B = col (0-7), C = row (0-7), Carry=1 se tecla
              	; ============================================================
032B:         	SCAN_MATRIX:
032B: 0600    	    LD      B, 0                ; Coluna atual
032D: 16FE    	    LD      D, 0xFE             ; Máscara: bit 0 baixo = col 0
032F:         	SCAN_COL:
032F: 7A      	    LD      A, D
0330: D340    	    OUT     (KEYBOARD), A       ; Ativa coluna B
0332: 00      	    NOP                         ; ~270 ns de estabilização
0333: 00      	    NOP
0334: 00      	    NOP
0335: 00      	    NOP
0336: DB40    	    IN      A, (KEYBOARD)       ; Lê linhas
0338: 2F      	    CPL                         ; Pull-up: inverte (pressionado = 1)
              	    
              	    ; SHIFT
0339: F5      	    PUSH AF
033A: 7A      	    LD A, D
033B: FEFE    	    CP $FE
033D: C25003  	    JP NZ, FIM
0340: F1      	    POP AF
0341: F5      	    PUSH AF
0342: FE08    	    CP $08
0344: C25003  	    JP NZ, FIM
0347: 3E01    	    LD A, 1
0349: 329EFB  	    LD (MEN_SHIFT), A
034C: F1      	    POP AF
034D: 3E00    	    LD A, 0
034F: F5      	    PUSH AF
              	    
0350:         	FIM:
0350: F1      		POP AF
              	    
0351: E6FF    	    AND     0xFF
0353: 280E    	    JR      Z, NEXT_COL         ; Nenhuma linha nesta coluna
              	    
              	    ; Encontrou linha — identifica bit
0355: 0E00    	    LD      C, 0
0357:         	FIND_ROW:
0357: 1F      	    RRA
0358: 3803    	    JR      C, ROW_FOUND
035A: 0C      	    INC     C
035B: 18FA    	    JR      FIND_ROW
              	
035D:         	ROW_FOUND:
035D: 3EFF    	    LD      A, 0xFF
035F: D340    	    OUT     (KEYBOARD), A           ; Desativa colunas
0361: 37      	    SCF                         ; Carry = 1
0362: C9      	    RET
              	
0363:         	NEXT_COL:
0363: 04      	    INC     B
0364: 78      	    LD      A, B
0365: FE08    	    CP      8
0367: 2809    	    JR      Z, SCAN_NONE        ; Todas varridas, nada encontrado
              	
              	    ; Rotaciona máscara para próxima coluna
0369: 7A      	    LD      A, D
036A: 37      	    SCF
036B: CB17    	    RL      A                   ; Desloca bit baixo para esquerda
036D: F601    	    OR      0x01                ; Garante que o bit 0 volta alto (inativo)
036F: 57      	    LD      D, A
0370: 18BD    	    JR      SCAN_COL
              	
0372:         	SCAN_NONE:
0372: 3EFF    	    LD      A, 0xFF
0374: D340    	    OUT     (KEYBOARD), A
0376: B7      	    OR      A                   ; Limpa Carry
0377: C9      	    RET
              	
              	
              	    
              	    
              	    
              	#include "GLCD.asm"
              	; Graphical LCD 128 x 64 Library
              	; ------------------------------
              	; By B. Chiha May-2023
              	; Modificações para funcionar no Z80 Mini - 2026
              	;
              	; This is a native Z80 Graphics library to be used with 128x64 Graphical LCD Screens
              	;
              	; There are a few variants of these LCD screens, but they must all must use the ST7920
              	; LCD Controller.  The LCD Screen that I used is the QC12864B.  This screen has two
              	; ST7921 Panels (128 x 32) stacked one above the other.
              	;
              	; These screens have DDRAM (Graphics) and CGRAM (Text) areas.  Both RAM areas can 
              	; be displayed at the same time.
              	;
              	; The Pinout for the QC12864B board is as follows:
              	;
              	; Pin	Name	Desc                    Serial  Parallel
              	; ---   ----    -------------           ------  -------------
              	; 1     VSS     Ground                  GND     GND
              	; 2     VDD     Power                   5v      5v
              	; 3     V0      Contrast                N/A     N/A
              	; 4     D/I     IR/DR (CS)              5v      A7
              	; 5     R/W     R/W (SID)               D0      RD (inverted)
              	; 6     E       Enable (SCLK)           D1      Port 7 (inverted)
              	; 7     DB0     Data                    N/A     D0
              	; 8     DB1     Data                    N/A     D1
              	; 9     DB2     Data                    N/A     D2
              	; 10    DB3     Data                    N/A     D3
              	; 11    DB4     Data                    N/A     D4
              	; 12    DB5     Data                    N/A     D5
              	; 13    DB6     Data                    N/A     D6
              	; 14    DB7     Data                    N/A     D7
              	; 15    PSB     Serial/Para             GND     5v
              	; 16    NC
              	; 17    RST     Reset                   RST     RST
              	; 18    VEE     LCD Drive               N/A     N/A
              	; 19    A       Backlight               5v/NC   5v/NC
              	; 20    K       Backlight               GND/NC  GND/NC
              	;
              	;
              	        
              	        
              	; Modifiable values.  Thse three values can be modified to suit your own set up
              	; GLCD_INST and GLCD_DATA are the output ports to send an Instruction or Data value.
              	; V_DELAY_US is the minimum delay needed for a command to be processed by the
              	; LCD board.  If only some of the data is being sent, make this value larger
              	        
              	;Port 7 on TEC is connected to LCD Enable (Pin 6)
              	;A7 is connected to Register select (Pin 4).  (A7=0 for Instruction, A7=1 for Data)
0010:         	V_DELAY_US: .equ $0010   ;Delay for 76us on your system
              	
              	; Dont need to modify anything else below.
00F8:         	UP:     .equ $F8                 ; Up Arrow
00F7:         	DN:     .equ $F7                 ; Down Arrow
000C:         	FF:     .equ 0CH                 ; Form Feed
008F:         	CURSOR: .equ 8FH                 ; Cursor
              	        
              	
              	
              	
              	
              	; --- CONOUT: Envia byte em A ---
0378:         	PUTCHAR:
0378:         	CONOUT:
0378: F5      	        PUSH AF
0379: C5      	        PUSH BC
037A: D5      	        PUSH DE
037B: E5      	        PUSH HL
037C: CDDF06  	        CALL sendCharToLCD
037F: E1      	        POP HL
0380: D1      	        POP DE
0381: C1      	        POP BC
0382: F1      	        POP AF
0383: C9      	        RET
              	
              	
              	; --- PUTS: Envia string terminada em NUL apontada por HL ---
0384:         	PUTS:
0384: F5      	        PUSH AF
0385: C5      	        PUSH BC
0386: D5      	        PUSH DE
0387: E5      	        PUSH HL
0388: 545D    	        LD DE, HL
038A: 3E00    	        LD A, NUL
038C: CD4F07  	        CALL sendStringToLCD
038F: E1      	        POP HL
0390: D1      	        POP DE
0391: C1      	        POP BC
0392: F1      	        POP AF
0393: C9      	        RET
              	
              	; --- CRLF: Envia CR+LF ---
0394:         	CRLF:
0394: 3E0D    	        LD   A, CR
0396: CD7803  	        CALL PUTCHAR
0399: C9      	        RET
              	
              	
              	
              	; Initialise LCD
039A:         	initLCD:
039A: 212909  	        LD HL, INIT_BASIC       ;POINT HL TO LCD INITIALIZE TABLE
039D: 0604    	        LD B, 04H               ;B=4 BYTES
039F:         	NEXT_CMD:
039F: 7E      	        LD A, (HL)
03A0: D370    	        OUT (GLCD_INST), A
03A2: CD9C06  	        CALL delayUS
03A5: 23      	        INC HL
03A6: 10F7    	        DJNZ NEXT_CMD
03A8: 114001  	        LD DE, 0140H            ;1.6 ms
03AB: CD9F06  	        CALL delayMS
              	        
03AE: 2180F7  	        LD HL,GBUF              ;Set viewport
03B1: 2280FB  	        LD (VPORT),HL           ;to GBUF
              	
03B4: CDC703  	        CALL clearGrLCD
              	        
              	; Clears the Graphics Memory Buffer
03B7:         	clearGBUF:
03B7: 2A80FB  	        LD HL, (VPORT)
03BA: ED5B80FB	        LD DE, (VPORT)
03BE: 13      	        INC DE
03BF: AF      	        XOR A
03C0: 77      	        LD (HL), A
03C1: 01FF03  	        LD BC, 03FFH
03C4: EDB0    	        LDIR
03C6: C9      	        RET
              	        
              	; Clears the Graphics LCD Buffer
03C7:         	clearGrLCD:
03C7: CD0704  	        CALL setGrMode
03CA: 0E00    	        LD C, 00H
03CC:         	CLR_X:
03CC: 3E80    	        LD A, 80H
03CE: B1      	        OR C
03CF: D370    	        OUT (GLCD_INST), A
03D1: CD9C06  	        CALL delayUS
03D4: 3E80    	        LD A, 80H
03D6: D370    	        OUT (GLCD_INST), A
03D8: CD9C06  	        CALL delayUS
03DB: AF      	        XOR A                   ;Clear Byte
03DC: 0610    	        LD B, 10H
03DE:         	CLR_Y:
03DE: D371    	        OUT (GLCD_DATA), A
03E0: CD9C06  	        CALL delayUS
03E3: D371    	        OUT (GLCD_DATA), A
03E5: CD9C06  	        CALL delayUS
03E8: 10F4    	        DJNZ CLR_Y
03EA: 0C      	        INC C
03EB: 79      	        LD A, C
03EC: FE20    	        CP 20H
03EE: 20DC    	        JR NZ, CLR_X        
03F0: C9      	        RET
              	
              	; Clears the ASCII Text LCD
03F1:         	clearTxtLCD:
03F1: CD1504  	        CALL setTxtMode
03F4: 3E80    	        LD A, 80H
03F6: D370    	        OUT (GLCD_INST), A
03F8: CD9C06  	        CALL delayUS
03FB: 0640    	        LD B, 40H
03FD:         	CLR_ROWS:
03FD: 3E20    	        LD A,  " "
03FF: D371    	        OUT (GLCD_DATA), A
0401: CD9C06  	        CALL delayUS
0404: 10F7    	        DJNZ CLR_ROWS
0406: C9      	        RET
              	        
              	; Set Graphics Mode
0407:         	setGrMode:
0407: 3E34    	        LD A, 34H
0409: D370    	        OUT (GLCD_INST), A
040B: CD9C06  	        CALL delayUS
040E: 3E36    	        LD A, 36H
0410: D370    	        OUT (GLCD_INST), A
0412: C39C06  	        JP delayUS
              	        
              	; Set Text Mode
0415:         	setTxtMode:
0415: 3E30    	        LD A, 30H
0417: D370    	        OUT (GLCD_INST), A
0419: C39C06  	        JP delayUS
              	        
              	;Draw Box
              	;Inputs: BC = X0,Y0
              	;        DE = X1,Y1
              	;Destroys: HL
041C:         	drawBox:
041C: C5      	        PUSH BC
041D:         	TOP:
041D: CDD705  	        CALL drawPixel
0420: 7A      	        LD A, D
0421: 04      	        INC B
0422: B8      	        CP B
0423: 30F8    	        JR NC, TOP
0425: C1      	        POP BC
              	        
0426: C5      	        PUSH BC
0427: 4B      	        LD C, E
0428:         	BOTTOM:
0428: CDD705  	        CALL drawPixel
042B: 7A      	        LD A, D
042C: 04      	        INC B
042D: B8      	        CP B
042E: 30F8    	        JR NC, BOTTOM
0430: C1      	        POP BC
              	        
0431: C5      	        PUSH BC
0432:         	B_LEFT:
0432: CDD705  	        CALL drawPixel
0435: 7B      	        LD A, E
0436: 0C      	        INC C
0437: B9      	        CP C
0438: 30F8    	        JR NC, B_LEFT
043A: C1      	        POP BC
              	        
043B: C5      	        PUSH BC
043C: 42      	        LD B, D
043D:         	B_RIGHT:
043D: CDD705  	        CALL drawPixel
0440: 7B      	        LD A, E
0441: 0C      	        INC C
0442: B9      	        CP C
0443: 30F8    	        JR NC, B_RIGHT
0445: C1      	        POP BC
0446: C9      	        RET
              	        
              	;Fill Box
              	;Draws vertical lines from X0,Y0 to X0,Y1 and increase X0 to X1 until X0=X1
              	;Inputs: BC = X0,Y0
              	;        DE = X1,Y1
              	;Destroys: HL
0447:         	fillBox:
0447: C5      	        PUSH BC
0448:         	NEXT_PIXEL:
0448: CDD705  	        CALL drawPixel
044B: 7B      	        LD A, E
044C: 0C      	        INC C
044D: B9      	        CP C
044E: 30F8    	        JR NC, NEXT_PIXEL
0450: C1      	        POP BC
0451: 7A      	        LD A, D
0452: 04      	        INC B
0453: B8      	        CP B
0454: 30F1    	        JR NC, fillBox
0456: C9      	        RET
              	        
              	;Draw a line between two points using Bresenham Line Algorithm
              	; void plotLine(int x0, int y0, int x1, int y1)
              	; {
              	;    int dx =  abs(x1-x0), sx = x0<x1 ? 1 : -1;
              	;    int dy = -abs(y1-y0), sy = y0<y1 ? 1 : -1;
              	;    int err = dx+dy, e2; /* error value e_xy */
              	        
              	;    for(;;){  /* loop */
              	;       setPixel(x0,y0);
              	;       if (x0==x1 && y0==y1) break;
              	;       e2 = 2*err;
              	;       if (e2 >= dy) { err += dy; x0 += sx; } /* e_xy+e_x > 0 */
              	;       if (e2 <= dx) { err += dx; y0 += sy; } /* e_xy+e_y < 0 */
              	;    }
              	; }
              	;Inputs: BC = X0,Y0
              	;        DE = X1,Y1
0457:         	drawLine:
              	;check that points are in range
0457: 79      	        LD A, C
0458: FE40    	        CP 40H
045A: D0      	        RET NC
045B: 78      	        LD A, B
045C: FE80    	        CP 80H
045E: D0      	        RET NC
045F: 7B      	        LD A, E
0460: FE40    	        CP 40H
0462: D0      	        RET NC
0463: 7A      	        LD A, D
0464: FE80    	        CP 80H
0466: D0      	        RET NC
              	        
              	;sx = x0<x1 ? 1 : -1
0467: 2601    	        LD H, 01H
0469: 78      	        LD A, B
046A: BA      	        CP D
046B: 3802    	        JR C, $ + 4
046D: 26FF    	        LD H, 0FFH
046F: 7C      	        LD A, H
0470: 3286FB  	        LD (SX), A
              	        
              	;sy = y0<y1 ? 1 : -1
0473: 2601    	        LD H, 01H
0475: 79      	        LD A, C
0476: BB      	        CP E
0477: 3802    	        JR C, $ + 4
0479: 26FF    	        LD H, 0FFH
047B: 7C      	        LD A, H
047C: 3287FB  	        LD (SY), A
              	        
047F: ED5384FB	        ld (ENDPT), DE
              	        
              	;dx =  abs(x1-x0)
0483: C5      	        PUSH BC
0484: 6A      	        LD L, D
0485: 2600    	        LD H, 0
0487: 48      	        LD C, B
0488: 0600    	        LD B, 0
048A: B7      	        OR A
048B: ED42    	        SBC HL, BC
048D: CDF804  	        CALL ABSHL
0490: 2288FB  	        LD (DX), HL
0493: C1      	        POP BC
              	        
              	;dy = -abs(y1-y0)
0494: C5      	        PUSH BC
0495: 6B      	        LD L, E
0496: 2600    	        LD H, 0
0498: 0600    	        LD B, 0
049A: B7      	        OR A
049B: ED42    	        SBC HL, BC
049D: CDF804  	        CALL ABSHL
04A0: AF      	        XOR A
04A1: 95      	        SUB L
04A2: 6F      	        LD L, A
04A3: 9F      	        SBC A, A
04A4: 94      	        SUB H
04A5: 67      	        LD H, A
04A6: 228AFB  	        LD (DY), HL
04A9: C1      	        POP BC
              	        
              	;err = dx+dy,
04AA: ED5B88FB	        LD DE, (DX)
04AE: 19      	        ADD HL, DE
04AF: 228CFB  	        LD (ERR), HL
              	        
04B2:         	LINE_LOOP:
              	;setPixel(x0,y0)
04B2: CDD705  	        CALL drawPixel
              	        
              	;if (x0==x1 && y0==y1) break;
04B5: 3A85FB  	        LD A, (ENDPT + 1)
04B8: B8      	        CP B
04B9: 2005    	        JR NZ, $ + 7
04BB: 3A84FB  	        LD A, (ENDPT)
04BE: B9      	        CP C
04BF: C8      	        RET Z
              	        
              	;e2 = 2*err;
04C0: 2A8CFB  	        LD HL, (ERR)
04C3: 29      	        ADD HL, HL              ;E2
              	        
              	;if (e2 >= dy)  err += dy; x0 += sx;
04C4: ED5B8AFB	        LD DE, (DY)
04C8: B7      	        OR A
04C9: ED52    	        SBC HL, DE
04CB: 19      	        ADD HL, DE
04CC: FADD04  	        JP M, LL2
              	        
04CF: E5      	        PUSH HL
04D0: 2A8CFB  	        LD HL, (ERR)
04D3: 19      	        ADD HL, DE
04D4: 228CFB  	        LD (ERR), HL
04D7: 3A86FB  	        LD A, (SX)
04DA: 80      	        ADD A, B
04DB: 47      	        LD B, A
04DC: E1      	        POP HL
              	        
04DD:         	LL2:
              	;if (e2 <= dx)  err += dx; y0 += sy;
04DD: ED5B88FB	        LD DE, (DX)
04E1: B7      	        OR A
04E2: ED52    	        SBC HL, DE
04E4: 19      	        ADD HL, DE
04E5: 2803    	        JR Z, LL3
04E7: F2B204  	        JP P, LINE_LOOP
04EA:         	LL3:
04EA: 2A8CFB  	        LD HL, (ERR)
04ED: 19      	        ADD HL, DE
04EE: 228CFB  	        LD (ERR), HL
04F1: 3A87FB  	        LD A, (SY)
04F4: 81      	        ADD A, C
04F5: 4F      	        LD C, A
              	        
04F6: 18BA    	        JR LINE_LOOP
              	        
04F8:         	ABSHL:
04F8: CB7C    	        BIT 7, H
04FA: C8      	        RET Z
04FB: AF      	        XOR A
04FC: 95      	        SUB L
04FD: 6F      	        LD L, A
04FE: 9F      	        SBC A, A
04FF: 94      	        SUB H
0500: 67      	        LD H, A
0501: C9      	        RET
              	        
              	;Draw a circle from a midpoint to a radius using Bresenham Line Algorithm
              	; void plotCircle(int xm, int ym, int r)
              	; {
              	;    int x = -r, y = 0, err = 2-2*r, i = 0; /* II. Quadrant */
              	;    printf("Midpoint = (%X,%X), Radius = %X\n", xm, ym, r);
              	;    do {
              	;       printf("(%X,%X) ", xm-x, ym+y); /*   I. Quadrant */
              	;       printf("(%X,%X) ", xm-y, ym-x); /*  II. Quadrant */
              	;       printf("(%X,%X) ", xm+x, ym-y); /* III. Quadrant */
              	;       printf("(%X,%X) ", xm+y, ym+x); /*  IV. Quadrant */
              	;       r = err;
              	;       if (r <= y) err += ++y*2+1;           /* e_xy+e_y < 0 */
              	;       if (r > x || err > y) err += ++x*2+1; /* e_xy+e_x > 0 or no 2nd y-step */
              	;       printf("x = %d, r = %d, y = %d, err =%d\n", x, r, y, err);
              	;    } while (x < 0);
              	; }
              	;Inputs BC = xm,ym (Midpoint)
              	;       E = radius
0502:         	drawCircle:
              	;   int x = -r, err = 2-2*r; /* II. Quadrant */
0502: AF      	        XOR A
0503: 93      	        SUB E
0504: 3286FB  	        LD (SX), A              ;x
              	;   y = 0
0507: AF      	        XOR A
0508: 3287FB  	        LD (SY), A              ;y
              	;   RAD = r
050B: 1600    	        LD D, 00H
050D: 7B      	        LD A, E
050E: ED538EFB	        LD (RAD), DE            ;r
              	;   err = 2-2*r
0512: EB      	        EX DE, HL
0513: 29      	        ADD HL, HL
0514: EB      	        EX DE, HL
0515: 210200  	        LD HL, 0002H
0518: B7      	        OR A
0519: ED52    	        SBC HL, DE              ;err
051B: 228CFB  	        LD (ERR), HL
              	        
051E:         	CIRCLE_LOOP:
              	;       setPixel(xm-x, ym+y); /*   I. Quadrant */
051E: C5      	        PUSH BC
051F: 3A86FB  	        LD A, (SX)
0522: ED44    	        NEG
0524: 80      	        ADD A, B
0525: 47      	        LD B, A
0526: 3A87FB  	        LD A, (SY)
0529: 81      	        ADD A, C
052A: 4F      	        LD C, A
052B: CDD705  	        CALL drawPixel
052E: C1      	        POP BC
              	;       setPixel(xm+x, ym-y); /* III. Quadrant */
052F: C5      	        PUSH BC
0530: 3A86FB  	        LD A, (SX)
0533: 80      	        ADD A, B
0534: 47      	        LD B, A
0535: 3A87FB  	        LD A, (SY)
0538: ED44    	        NEG
053A: 81      	        ADD A, C
053B: 4F      	        LD C, A
053C: CDD705  	        CALL drawPixel
053F: C1      	        POP BC
              	;       setPixel(xm-y, ym-x); /*  II. Quadrant */
0540: C5      	        PUSH BC
0541: 3A87FB  	        LD A, (SY)
0544: ED44    	        NEG
0546: 80      	        ADD A, B
0547: 47      	        LD B, A
0548: 3A86FB  	        LD A, (SX)
054B: ED44    	        NEG
054D: 81      	        ADD A, C
054E: 4F      	        LD C, A
054F: CDD705  	        CALL drawPixel
0552: C1      	        POP BC
              	;       setPixel(xm+y, ym+x); /*  IV. Quadrant */
0553: C5      	        PUSH BC
0554: 3A87FB  	        LD A, (SY)
0557: 80      	        ADD A, B
0558: 47      	        LD B, A
0559: 3A86FB  	        LD A, (SX)
055C: 81      	        ADD A, C
055D: 4F      	        LD C, A
055E: CDD705  	        CALL drawPixel
0561: C1      	        POP BC
              	;       r = err;
0562: 2A8CFB  	        LD HL, (ERR)
0565: 228EFB  	        LD (RAD), HL
              	;       if (r <= y) err += ++y*2+1;           /* e_xy+e_y < 0 */
0568: 3A87FB  	        LD A, (SY)
056B: 5F      	        LD E, A
056C: 1600    	        LD D, 0
056E: B7      	        OR A
056F: ED52    	        SBC HL, DE
0571: 19      	        ADD HL, DE
0572: 2803    	        JR Z, $ + 5
0574: F28A05  	        JP P, DS1
0577: 3A87FB  	        LD A, (SY)
057A: 3C      	        INC A
057B: 3287FB  	        LD (SY), A
057E: 87      	        ADD A, A
057F: 3C      	        INC A
0580: 5F      	        LD E, A
0581: 1600    	        LD D, 0
0583: 2A8CFB  	        LD HL, (ERR)
0586: 19      	        ADD HL, DE
0587: 228CFB  	        LD (ERR), HL
              	;       if (r > x || err > y) err += ++x*2+1; /* e_xy+e_x > 0 or no 2nd y-step */
058A:         	DS1:
058A: 2A8EFB  	        LD HL, (RAD)
058D: 3A86FB  	        LD A, (SX)
0590: 16FF    	        LD D, 0FFH
0592: 5F      	        LD E, A
0593: B7      	        OR A
0594: ED52    	        SBC HL, DE
0596: 19      	        ADD HL, DE
0597: 2803    	        JR Z, $ + 5
0599: F2AE05  	        JP P, DS2
059C: 2A8CFB  	        LD HL, (ERR)
059F: 3A87FB  	        LD A, (SY)
05A2: 1600    	        LD D, 0
05A4: 5F      	        LD E, A
05A5: B7      	        OR A
05A6: ED52    	        SBC HL, DE
05A8: 19      	        ADD HL, DE
05A9: 2816    	        JR Z, DS3
05AB: FAC105  	        JP M, DS3
05AE:         	DS2:
05AE: 3A86FB  	        LD A, (SX)
05B1: 3C      	        INC A
05B2: 3286FB  	        LD (SX), A
05B5: 87      	        ADD A, A
05B6: 3C      	        INC A
05B7: 5F      	        LD E, A
05B8: 16FF    	        LD D, 0FFH
05BA: 2A8CFB  	        LD HL, (ERR)
05BD: 19      	        ADD HL, DE
05BE: 228CFB  	        LD (ERR), HL
              	;   } while (x < 0);
05C1:         	DS3:
05C1: 3A86FB  	        LD A, (SX)
05C4: B7      	        OR A
05C5: C21E05  	        JP NZ, CIRCLE_LOOP
05C8: C9      	        RET
              	        
              	;Fill Circle
              	;Fills a circle by increasing radius until Radius = Original Radius E
              	;Inputs BC = xm,ym (Midpoint)
              	;       E = radius
05C9:         	fillCircle:
05C9: 1601    	        LD D, 01H               ;Start radius
05CB:         	NEXT_CIRCLE:
05CB: D5      	        PUSH DE                 ;Save end Radius
05CC: 5A      	        LD E, D
05CD: CD0205  	        CALL drawCircle
05D0: D1      	        POP DE                  ;Restore Radius
05D1: 7B      	        LD A, E
05D2: 14      	        INC D
05D3: BA      	        CP D
05D4: 30F5    	        JR NC, NEXT_CIRCLE
05D6: C9      	        RET
              	        
              	;Draw Pixel in position X Y
              	;Input B = column/X (0-127), C = row/Y (0-63)
              	;destroys HL
05D7:         	drawPixel:
05D7: 79      	        LD A, C
05D8: FE40    	        CP 40H
05DA: D0      	        RET NC
05DB: 78      	        LD A, B
05DC: FE80    	        CP 80H
05DE: D0      	        RET NC
              	        
05DF: D5      	        PUSH DE
05E0: CD0B06  	        CALL SET_GBUF
              	
05E3: 7A      	        LD A, D
05E4: B6      	        OR (HL)
05E5: 77      	        LD (HL), A
05E6: D1      	        POP DE
05E7: C9      	        RET
              	
              	;Clear Pixel in position X Y
              	;Input B = column/X (0-127), C = row/Y (0-63)
              	;destroys HL
05E8:         	clearPixel:
05E8: 79      	        LD A, C
05E9: FE40    	        CP 40H
05EB: D0      	        RET NC
05EC: 78      	        LD A, B
05ED: FE80    	        CP 80H
05EF: D0      	        RET NC
              	        
05F0: D5      	        PUSH DE
05F1: CD0B06  	        CALL SET_GBUF
              	
05F4: 7A      	        LD A, D
05F5: 2F      	        CPL
05F6: A6      	        AND (HL)
05F7: 77      	        LD (HL), A
05F8: D1      	        POP DE
05F9: C9      	        RET
              	
              	;Flip Pixel in position X Y
              	;Input B = column/X (0-127), C = row/Y (0-63)
              	;destroys HL
05FA:         	flipPixel:
05FA: 79      	        LD A, C
05FB: FE40    	        CP 40H
05FD: D0      	        RET NC
05FE: 78      	        LD A, B
05FF: FE80    	        CP 80H
0601: D0      	        RET NC
              	        
0602: D5      	        PUSH DE
0603: CD0B06  	        CALL SET_GBUF
              	
0606: 7A      	        LD A, D
0607: AE      	        XOR (HL)
0608: 77      	        LD (HL), A
0609: D1      	        POP DE
060A: C9      	        RET
              	
              	;Helper routine to set HL to the correct GBUF address given X and Y
              	;Input B = column/X (0-127), C = row/Y (0-63)
              	;Output HL = address of GBUF X,Y byte, D = Byte with Pixel Bit Set
              	;Destroys E
060B:         	SET_GBUF:
060B: 69      	        LD L, C
060C: 2600    	        LD H, 00H
060E: 29      	        ADD HL, HL
060F: 29      	        ADD HL, HL
0610: 29      	        ADD HL, HL
0611: 29      	        ADD HL, HL
0612: ED5B80FB	        LD DE, (VPORT)
0616: 1B      	        DEC DE
0617: 19      	        ADD HL, DE
              	        
0618: 78      	        LD A, B
0619: 1608    	        LD D, 08H
061B:         	BASE_COL:
061B: 23      	        INC HL
061C: 92      	        SUB D
061D: 30FC    	        JR NC, BASE_COL
              	        
061F: 2F      	        CPL
0620: 1601    	        LD D, 01H
0622: B7      	        OR A
0623: C8      	        RET Z
0624:         	SHIFT_BIT:
0624: CB22    	        SLA D
0626: 3D      	        DEC A
0627: 20FB    	        JR NZ, SHIFT_BIT
0629: C9      	        RET
              	
              	;Main draw routine.  Moves GBUF to LCD and clears buffer
              	;Destroys all
062A:         	plotToLCD:
062A: 2A80FB  	        LD HL, (VPORT)
062D: 0E80    	        LD C, 80H
062F:         	PLOT_ROW:
062F: 79      	        LD A, C
0630: E69F    	        AND 9FH
0632: D370    	        OUT (GLCD_INST), A      ;Vertical
0634: CD9C06  	        CALL delayUS        
0637: 3E80    	        LD A, 80H
0639: CB69    	        BIT 5, C
063B: 2802    	        JR Z, $ + 4
063D: F608    	        OR 08H
063F: D370    	        OUT (GLCD_INST), A      ;Horizontal
0641: CD9C06  	        CALL delayUS        
0644: 0610    	        LD B, 10H               ;send eight double bytes (16 bytes)
0646:         	PLOT_COLUMN:
0646: 7E      	        LD A, (HL)
0647: D371    	        OUT (GLCD_DATA), A
0649: CD9C06  	        CALL delayUS
064C: 3A90FB  	        LD A, (CLRBUF)
064F: B7      	        OR A
0650: 2802    	        JR Z, $ + 4
0652: 3600    	        LD (HL), 00H            ;Clear Buffer if CLRBUF is non zero
0654: 23      	        INC HL
0655: 10EF    	        DJNZ PLOT_COLUMN
0657: 0C      	        INC C
0658: CB71    	        BIT 6, C                ;Is Row = 64?
065A: 28D3    	        JR Z, PLOT_ROW
065C: C9      	        RET
              	        
              	; Print ASCII text on a given row
              	; Inputs: A = 0 to 3 Row Number
              	;         .db "String" on next line, terminate with 0
              	; EG:
              	;   LD A,2
              	;   CALL printString
              	;   .db "This Text",0
              	;
065D:         	printString:
065D: 47      	        LD B, A
065E: CD1504  	        CALL setTxtMode
0661: 212509  	        LD HL, ROWS
0664: 78      	        LD A, B
0665: 85      	        ADD A, L
0666: 3001    	        JR NC, $ + 3
0668: 24      	        INC H
0669: 6F      	        LD L, A
066A: 7E      	        LD A, (HL)
066B: D370    	        OUT (GLCD_INST), A
066D: CD9C06  	        CALL delayUS
0670: E1      	        POP HL
0671:         	DS_LOOP:
0671: 7E      	        LD A, (HL)
0672: 23      	        INC HL
0673: B7      	        OR A
0674: 2807    	        JR Z, DS_EXIT
0676: D371    	        OUT (GLCD_DATA), A
0678: CD9C06  	        CALL delayUS
067B: 18F4    	        JR DS_LOOP
067D:         	DS_EXIT:
067D: E9      	        JP (HL)
              	        
              	;Print Characters at a position X,Y
              	;Even though there are 16 columns, only every second column can be written
              	;to and two characters are to be printed.  IE: if you want to print one
              	;character in column 2, then you must set B=0 and print " x", putting
              	;a space before the character.
              	;Input B = column/X (0-7), C = row/Y (0-3)
              	;      HL = Start address of text to display, terminate with 0
067E:         	printChars:
067E: CD1504  	        CALL setTxtMode
0681: 112509  	        LD DE, ROWS
0684: 79      	        LD A, C
0685: 83      	        ADD A, E
0686: 3001    	        JR NC, $ + 3
0688: 14      	        INC D
0689: 5F      	        LD E, A
068A: 1A      	        LD A, (DE)
068B: 80      	        ADD A, B
068C: D370    	        OUT (GLCD_INST), A
068E: CD9C06  	        CALL delayUS
0691:         	PC_LOOP:
0691: 7E      	        LD A, (HL)
0692: 23      	        INC HL
0693: B7      	        OR A
0694: C8      	        RET Z
0695: D371    	        OUT (GLCD_DATA), A
0697: CD9C06  	        CALL delayUS
069A: 18F5    	        JR PC_LOOP
              	        
              	; Delay for LCD write
069C:         	delayUS:
069C: 111000  	        LD DE, V_DELAY_US       ;DELAY BETWEEN, was 0010H
069F:         	delayMS:
069F: 1B      	        DEC DE                  ;EACH BYTE
06A0: 7A      	        LD A, D                 ;AS PER
06A1: B3      	        OR E                    ;LCD MANUFACTER'S
06A2: 20FB    	        JR NZ, delayMS         ;INSTRUCTIONS
06A4: C9      	        RET
              	        
              	; Set Buffer Clearing after outputting to LCD
              	; Input: A = 0 Buffer to be cleared, A <> 0 Buffer kept
06A5:         	setBufClear:
06A5: 3EFF    	        LD A, 0FFH
06A7: 3290FB  	        LD (CLRBUF), A
06AA: C3B703  	        JP clearGBUF
              	        
06AD:         	setBufNoClear:
06AD: AF      	        XOR A
06AE: 3290FB  	        LD (CLRBUF), A
06B1: C9      	        RET
              	
              	
              	;Initialise the GLCD Terminal
              	;Clears the GBUF, sets cursor to top left and displays cursor.
              	;This must be called prior to any Terminal routine.  This routine
              	;will as call INIT_LCD.
06B2:         	initTerminal:
06B2: CD9A03  	        CALL initLCD            ;Clear LCD GBUF
06B5: CD0704  	        CALL setGrMode          ;Graphics mode
06B8: CDAD06  	        CALL setBufNoClear      ;Retain screen
06BB: 2180F7  	        LD HL,TGBUF             ;Reset VPORT and BUFF_TOP to TGBUF
06BE: 2280FB  	        LD (VPORT),HL           ;to GBUF
06C1: 2282FB  	        LD (TBUF),HL
06C4: CDB703  	        CALL clearGBUF
06C7: AF      	        XOR A                   ;Clear A
06C8: 3294FB  	        LD (CURSOR_ON),A        ;Cursor ON
06CB: 3295FB  	        LD (INVERSE),A          ;Inverse OFF
06CE: 3298FB  	        LD (AUTO_LF),A          ;Auto LF ON
06D1: 3297FB  	        LD (ULINE),A            ;UnderLine OFF
06D4: 3299FB  	        LD (PLOT_ALWAYS),A      ;Plot always ON
06D7: 010000  	        LD BC,0000H
06DA: CD9F07  	        CALL setCursor          ;Move cursor to top left
06DD: 1865    	        JR DRAW_CURSOR          ;Draw Cursor and exit
              	        
              	
              	;Send or handle ASCII characters to the GLCD screen.  This routines displays
              	;ASCII characters to the GLCD screen and handles some special control characters
              	;It also handles scrolling history of 10 lines.  Characters are drawn at the 
              	;current cursor position.  Cursor increments if character is drawn.
              	;       CR / 0DH = will move the cursor down and reset it column
              	;       LF / 0AH = is ignored
              	;       FF / 0CH = clears the terminal (restarts)
              	;       BS / 08H = will delete the character at the cursor and move cursor back one
              	;       HT / 09H = will TAB 4 spaces
              	;       UP / F8H = will scroll up one line if any
              	;       DN / F7H = will scroll down one line if any
              	;Input: A = ASCII character to send to the GLCD screen.
              	;       A = 0  cursor drawn only
06DF:         	sendCharToLCD:
              	        ;Check for special characters
06DF: B7      	        OR A                    ;Zero?
06E0: 2862    	        JR Z,DRAW_CURSOR
06E2:         	DO_SCRL_UP:
06E2: FEF8    	        CP UP                   ;Up Arrow
06E4: 2007    	        JR NZ,DO_SCRL_DN
06E6: AF      	        XOR A
06E7: CD1008  	        CALL MOVE_VPORT
06EA: C32A06  	        JP plotToLCD
06ED:         	DO_SCRL_DN:
06ED: FEF7    	        CP DN                   ;Down Arrow
06EF: 2004    	        JR NZ,DO_CR
06F1: 3E01    	        LD A,1
06F3: 18F2    	        JR $-12                 ;Move VPORT above
06F5:         	DO_CR:
              	        ;Key is now a drawing character, reset VPORT first
06F5: 2180F7  	        LD HL,TGBUF
06F8: 2280FB  	        LD (VPORT),HL
06FB: FE0A    	        CP LF      ;LF
06FD: C8      	        RET Z
06FE: FE0D    	        CP CR      ;CR
0700: 2014    	        JR NZ,DO_FF
0702: 3A92FB  	        LD A,(CURSOR_X)         ;Are we on the first column?
0705: B7      	        OR A
0706: F5      	        PUSH AF
0707: CCEA08  	        CALL Z,drawCursor
070A: F1      	        POP AF
070B: C40C09  	        CALL NZ,drawBlank          ;Clear cursor
070E: CDBD07  	        CALL INC_ROW
0711: 3293FB  	        LD (CURSOR_YS),A        ;Save start row
0714: 182E    	        JR DRAW_CURSOR
0716:         	DO_FF:
0716: FE0C    	        CP FF                   ;Form Feed / Clear Screen
0718: 2898    	        JR Z,initTerminal       ;Reset All.
071A:         	DO_BS:
071A: FE08    	        CP BKSP                 ;Backspace
071C: 200B    	        JR NZ,DO_TAB
071E: CD0C09  	        CALL drawBlank          ;Clear cursor
0721: CD3008  	        CALL DEC_CURSOR
0724: CD0C09  	        CALL drawBlank
0727: 181B    	        JR DRAW_CURSOR
0729:         	DO_TAB:
0729: FE09    	        CP TAB                  ;Horizontal Tab
072B: 2011    	        JR NZ,DO_CHAR
072D: CD0C09  	        CALL drawBlank          ;Clear cursor
0730: CDB007  	        CALL INC_CURSOR
0733: CDB007  	        CALL INC_CURSOR
0736: CDB007  	        CALL INC_CURSOR
0739: CDB007  	        CALL INC_CURSOR
073C: 1806    	        JR DRAW_CURSOR
073E:         	DO_CHAR:
073E: CD7C08  	        CALL drawGraphic
0741: CDB007  	        CALL INC_CURSOR
0744:         	DRAW_CURSOR:
0744: CDEA08  	        CALL drawCursor         ;Attempt to Draw cursor
0747:         	JUST_PLOT:
0747: 3A99FB  	        LD A,(PLOT_ALWAYS)      ;Only plot if set
074A: B7      	        OR A
074B: C0      	        RET NZ                  ;Exit if not set
074C: C32A06  	        JP plotToLCD          ;Plot screen and exit
              	
              	
              	
              	
              	
              	;Send a string of characters to the GLCD.  Prints a string pointed 
              	;by DE.  It stops printing and returns when either a CR is printed or
              	;when the next byte is the same as what is in register C
              	;Inputs: DE = address of string to print
              	;        A = character to stop printing.
              	;Destroy: All
074F:         	sendStringToLCD:
074F: 47      	        LD B, A                  ;Save cp in B
0750:         	NEXT_CHAR:
0750: 1A      	        LD A,(DE)               ;Get character
0751: 13      	        INC DE                  ;Move pointer
0752: B8      	        CP B                    ;Same as B?
0753: 28F2    	        JR Z,JUST_PLOT          ;Yes exit and plot LCD screen
0755: FE0D    	        CP CR                   ;Is it a CR?
0757: 200E    	        JR NZ,CHECK_FF
0759: 2180F7  	        LD HL,TGBUF
075C: 2280FB  	        LD (VPORT),HL
075F: CDBD07  	        CALL INC_ROW
0762: 3293FB  	        LD (CURSOR_YS),A        ;Save start row
0765: 18E0    	        JR JUST_PLOT
0767:         	CHECK_FF:
0767: FE0C    	        CP FF                   ;Is it a FF?
0769: 28AB    	        JR Z,DO_FF              ;Yes do a Form Feed and plot LCD screen and exit
076B: D9      	        EXX                     ;Save bulk registers
076C: CD7C08  	        CALL drawGraphic        ;Draw the character
076F: CDB007  	        CALL INC_CURSOR         ;Move cursor by one
0772: D9      	        EXX                     ;Restore bulk registers
0773: 18DB    	        JR NEXT_CHAR            ;Repeat for next character
0775: C9      	        RET
              	
              	;Display a register in ASCII on the GLCD
              	;Input: A = value to convert and display
0776:         	sendRegToLCD:
0776: CD7B07  	        CALL DRAW_A             ;Do the conversion
0779: 18C9    	        JR DRAW_CURSOR          ;exit and plot LCD screen
077B:         	DRAW_A:
077B: F5      	        PUSH AF                 ;Save AF
077C: 0F      	        RRCA                    ;move high
077D: 0F      	        RRCA                    ;nibble to low nibble
077E: 0F      	        RRCA
077F: 0F      	        RRCA
0780: CD8407  	        CALL NIBBLE_TO_LCD      ;Convert and display
0783: F1      	        POP AF                  ;Restore AF
0784:         	NIBBLE_TO_LCD:
0784: E60F    	        AND 0FH                 ;mask out high nibble
0786: C690    	        ADD A,90H               ;convert to 
0788: 27      	        DAA                     ;ASCII
0789: CE40    	        ADC A,40H               ;using this
078B: 27      	        DAA                     ;amazing routine
078C: CD7C08  	        CALL drawGraphic       ;Draw the character
078F: CDB007  	        CALL INC_CURSOR         ;Move cursor by one
0792: C9      	        RET
              	
              	;Display the register HL in ASCII on the GLCD
              	;Input: HL = value to convert and display
0793:         	sendHLToLCD:
0793: E5      	        PUSH HL                 ;Save HL
0794: 7C      	        LD A,H                  ;get H
0795: CD7B07  	        CALL DRAW_A             ;Do the conversion
0798: E1      	        POP HL
0799: 7D      	        LD A,L                  ;get L
079A: CD7B07  	        CALL DRAW_A             ;Do the conversion
079D: 18A5    	        JR DRAW_CURSOR          ;exit and plot LCD screen
              	
              	;Set the Graphic cursor position
              	;Inputs: BC = X,Y where X = 0..127, Y = 0..63
              	;Ignores update if one of the X,Y values are out of range
              	;Destroys: A
079F:         	setCursor:
              	        ;Check range. Exit if X,Y out of range
079F: 79      	        LD A, C
07A0: FE40    	        CP 40H
07A2: D0      	        RET NC
07A3: 78      	        LD A, B
07A4: FE80    	        CP 80H
07A6: D0      	        RET NC
              	        ;Set Cursor and initial start row
07A7: ED4391FB	        LD (CURSOR_XY),BC       ;Save cursor
07AB: 79      	        LD A,C
07AC: 3293FB  	        LD (CURSOR_YS),A        ;And initial Y Start
07AF: C9      	        RET
              	
              	;Increment the cursor by one font character
              	;A Font Character is 6x6 Pixels.  Move column 6 across until it can't then reset
              	;column back to 0 and move 6 down.
              	;If can't go down any further then keep on last row but move column back to 0
              	;Font Characters maximum 20 across and 10 down
              	;Output: Carry Set = No screen overflow
              	;Destroys: A
07B0:         	INC_CURSOR:
07B0: 3A92FB  	        LD A,(CURSOR_X)         ;Get X
07B3: C606    	        ADD A,6                 ;Add 6
07B5: FE7E    	        CP 126                  ;Is it >= 126?
07B7: 3004    	        JR NC,INC_ROW           ;Yes, reset column and increment row
07B9: 3292FB  	        LD (CURSOR_X),A         ;Save new column
07BC: C9      	        RET
07BD:         	INC_ROW:
07BD: AF      	        XOR A
07BE: 3292FB  	        LD (CURSOR_X),A         ;reset column to 0
07C1: 3A98FB  	        LD A,(AUTO_LF)          ;Check for AutoLF
07C4: B7      	        OR A
07C5: C0      	        RET NZ                  ;Don't CR and exit
07C6: 3A91FB  	        LD A,(CURSOR_Y)         ;get row
07C9: C606    	        ADD A,6                 ;Add 6
07CB: FE3C    	        CP 60                   ;Is it >= 60
07CD: 3807    	        JR C,SAVE_ROW           ;No, save new row
07CF: F5      	        PUSH AF
07D0: CDDA07  	        CALL SHIFT_BUFFER       ;Shift buffer up one row
07D3: F1      	        POP AF
07D4: D606    	        SUB 6                   ;overflow, just leave the same
07D6:         	SAVE_ROW:
07D6: 3291FB  	        LD (CURSOR_Y),A         ;Save new row
07D9: C9      	        RET
              	
              	;Shift the graphics buffer (GBUF) into the scroll buffer (SBUF) by
              	;one row (6 lines).  Move the top buffer address to the new top of 
              	;the scroll buffer
07DA:         	SHIFT_BUFFER:
              	        ;Check if anymore buffer left
07DA: 2A82FB  	        LD HL,(TBUF)        ;Get top buffer address
07DD: 1100F0  	        LD DE,TGBUF-SBUF    ;Get scroll buffer address
07E0: B7      	        OR A                ;Clear carry
07E1: ED52    	        SBC HL,DE           ;TBUF-SBUF
07E3: 2809    	        JR Z,SKIP_TBUF
07E5: 19      	        ADD HL,DE           ;restore HL
07E6: 116000  	        LD DE,16*6          ;Six pixel rows
07E9: ED52    	        SBC HL,DE           ;Move TBUF down by 6 rows
07EB: 2282FB  	        LD (TBUF),HL        ;Save new TBUF
07EE:         	SKIP_TBUF:
07EE: 2160F0  	        LD HL,TGBUF-SBUF+(16*6) ;Top of scroll buffer less one row
07F1: 1100F0  	        LD DE,TGBUF-SBUF    ;Top of scroll buffer
              	        ;LD BC,16*6*19       ;19 rows
07F4: 01E00A  	        LD BC,16*6*29       ;19 rows (change to 20 lines 19 to 29 (+10)) Z80 Mini
07F7: EDB0    	        LDIR
07F9: 21E0FA  	        LD HL,TGBUF+0360H   ;clear last row (9*16)
07FC: 11E1FA  	        LD DE,TGBUF+0361H
07FF: 015F00  	        LD BC,5FH
0802: AF      	        XOR A
0803: 77      	        LD (HL),A
0804: EDB0    	        LDIR
              	        ;Move Y Start up one row
0806: 3A93FB  	        LD A,(CURSOR_YS)    ;Get Y Start row
0809: D606    	        SUB 6
080B: D8      	        RET C               ;Ignore if less than zero
080C: 3293FB  	        LD (CURSOR_YS),A    
080F: C9      	        RET
              	
              	;Move the VPORT vertically between TBUF and end of GBUB.  VPORT will be 
              	;shifted by a standard termial row of 6 lines.
              	;input: A = 0 shift up else shift down
0810:         	MOVE_VPORT:
0810: 2A80FB  	        LD HL,(VPORT)       ;get viewport
0813: EB      	        EX DE,HL
0814: B7      	        OR A                ;check move
0815: 200E    	        JR NZ,MOVE_DOWN     ;shift down
0817:         	MOVE_UP:
0817: 2A82FB  	        LD HL,(TBUF)        ;get top of buffer
081A: ED52    	        SBC HL,DE           ;
081C: C8      	        RET Z               ;if the same, then at top already
081D: 21A0FF  	        LD HL,0-60H         ;one row up
0820:         	SAVE_VPORT:
0820: 19      	        ADD HL,DE           ;get new VPORT value
0821: 2280FB  	        LD (VPORT),HL
0824: C9      	        RET
0825:         	MOVE_DOWN:
0825: 2180F7  	        LD HL,TGBUF         ;get top of graphics buffer
0828: ED52    	        SBC HL,DE           ;
082A: C8      	        RET Z               ;if the same, then at top already
082B: 216000  	        LD HL,60H           ;one row down
082E: 18F0    	        JR SAVE_VPORT
              	
              	;Decrement the cursor by one font character up to the current row start
              	;Used to help with Backspace character or left arrow?
              	;Destroys: A
0830:         	DEC_CURSOR:
0830: 3A92FB  	        LD A,(CURSOR_X)         ;Get X
0833: D606    	        SUB 6                   ;subract 6
0835:         	SAVE_COL:
0835: 3292FB  	        LD (CURSOR_X),A         ;Save new column
              	        ;if < 0 then just make 0 or 20 depending on Y Start
0838: D0      	        RET NC
0839: C5      	        PUSH BC
083A: 3A93FB  	        LD A,(CURSOR_YS)        ;Get Y Start
083D: 47      	        LD B,A
083E: 3A91FB  	        LD A,(CURSOR_Y)         ;Get Y
0841: 90      	        SUB B
0842: C1      	        POP BC
0843: 3E00    	        LD A,0                  ;reset to 0
0845: 28EE    	        JR Z,SAVE_COL
0847: 3E78    	        LD A,6*20               ;last column
0849: 3292FB  	        LD (CURSOR_X),A         ;Save new column
084C: 3A91FB  	        LD A,(CURSOR_Y)
084F: D606    	        SUB 6                   ;move row one line up
0851: 3291FB  	        LD (CURSOR_Y),A         ;Save new row
0854: C9      	        RET
              	
              	;Get cursor position
              	;Outputs: BC = X,Y where X = 0..127, Y = 0..63
0855:         	getCursor:
0855: ED4B91FB	        LD BC,(CURSOR_XY)
0859: C9      	        RET
              	
              	;Display Cursor
              	;Input: A = 0, Turn cursor on, A = non zero, Turn cursor off
              	;Default is Cursor ON
085A:         	displayCursor:
085A: 3294FB  	        LD (CURSOR_ON),A
085D: B7      	        OR A
085E: C20C09  	        JP NZ,drawBlank
0861: C34407  	        JP DRAW_CURSOR
              	
              	;Inverse Graphic Drawing
              	;Initial state is normal.  Calling this routine will TOGGLE the inverse drawing flag
              	;Destroys: A
0864:         	invGraphic:
0864: 3A95FB  	        LD A,(INVERSE)
0867: 2F      	        CPL                 ;flip bits
0868: 3295FB  	        LD (INVERSE),A
086B: C9      	        RET
              	
              	;Display underline on character
              	;Initial state is no underline.  Calling this routine will TOGGLE the underline flag
              	;Destroys: A
086C:         	underline:
086C: 3A97FB  	        LD A,(ULINE)
086F: 2F      	        CPL                 ;flip bits
0870: 3297FB  	        LD (ULINE),A
0873: C9      	        RET
              	
              	;Automatic Line Feed when cursor reaches the end of the row
              	;Input: A = 0, Automatic Line Feed, CA= non zero, No Automatic Line Feed
              	;Default is AutoLF ON
0874:         	autoLF:
0874: 3298FB  	        LD (AUTO_LF),A
0877: C9      	        RET
              	
              	;When sendCharToLCD is called, determine if character should be sent to the GLCD
              	;or not.  If not sent, then a call to plotToLCD will be made to update the GLCD
              	;Input: A = 0, Plot Always, A = non zero, Do not plot
              	;Default is Plot Always
0878:         	plotAlways:
0878: 3299FB  	        LD (PLOT_ALWAYS),A
087B: C9      	        RET
              	
              	;Draw Graphic at the current cursor.  Draw either an ASCII character or
              	;a custom sprite/picture
              	;Input: A = ASCII number or 
              	;    if A=0 Then 
              	;       HL = Address of graphic data
              	;       B = width of graphic in pixels (1-128)
              	;       C = height of graphic in pixels (1-64)
              	;Destroys: All
087C:         	drawGraphic:
087C: B7      	        OR A                ;is A=0
087D: 2810    	        JR Z,PLOT_GRAPHIC   ;yes, use data pointing to HL
              	        ;Use internal font table and index it to value in A
087F: 3D      	        DEC A               ;fix for A = 0..255
0880: 2600    	        LD H,0
0882: 6F      	        LD L,A
0883: 29      	        ADD HL,HL           ;Multipy A by 2
0884: 54      	        LD D,H
0885: 5D      	        LD E,L              ;Save in DE
0886: 29      	        ADD HL,HL           ;Multipy A by 4
0887: 19      	        ADD HL,DE           ;Multiply by 6
0888: 112D09  	        LD DE,FONT_DATA     ;Font Table
088B: 19      	        ADD HL,DE           ;Add index (A*8) to HL
088C: 010606  	        LD BC,0606H         ;Six pixels across, Six pixels down
088F:         	PLOT_GRAPHIC:
088F: 50      	        LD D,B              ;D=Column pixel count
0890: 7A      	        LD A,D
0891: 3296FB  	        LD (PIXEL_X),A      ;Save original pixel length
0894: 59      	        LD E,C              ;E=Row pixel count
0895: ED4B91FB	        LD BC,(CURSOR_XY)   ;Get graphics cursor position
0899:         	PLOT_BYTE:
0899: 7A      	        LD A,D              ;Get column bit count
089A: D608    	        SUB 8
089C: 57      	        LD D,A
089D: D5      	        PUSH DE 
089E: 1608    	        LD D,8 
08A0: F5      	        PUSH AF
              	        ;underline check
08A1: 7B      	        LD A,E
08A2: FE01    	        CP 1                ;are we on the last row?
08A4: 200A    	        JR NZ,GET_ROW_DATA  ;no, just continue
08A6: 3A97FB  	        LD A,(ULINE)        ;check underline flag
08A9: B7      	        OR A                ;is it set?
08AA: 2804    	        JR Z,GET_ROW_DATA   ;no, just continue
08AC: 1EFF    	        LD E,0FFH           ;yes, set to all ones
08AE: 1801    	        JR $+3
08B0:         	GET_ROW_DATA:
08B0: 5E      	        LD E,(HL)           ;get pixel data
08B1: F1      	        POP AF
08B2: 3009    	        JR NC,INV_BIT
08B4: 82      	        ADD A, D ;Restore column bit count
08B5: 57      	        LD D,A
08B6: 7A      	        LD A,D
              	        ;D = Rotate adjust count
08B7: CB0B    	        RRC E               ;rotate it to get first bit in bit 7
08B9: 15      	        DEC D
08BA: 20FB    	        JR NZ,$-3
08BC: 57      	        LD D,A              ;reset D to actual bit count
08BD:         	INV_BIT:
08BD: 3A95FB  	        LD A,(INVERSE)      ;check inverse flag
08C0: AB      	        XOR E               ;flip bits
08C1: 5F      	        LD E,A              ;save new data
08C2:         	PLOT_BIT:
08C2: CB03    	        RLC E
08C4: E5      	        PUSH HL
08C5: 3005    	        JR NC,REMOVE_PIXEL
08C7: CDD705  	        CALL drawPixel
08CA: 1803    	        JR $+5
08CC:         	REMOVE_PIXEL:
08CC: CDE805  	        CALL clearPixel
08CF: E1      	        POP HL
08D0: 04      	        INC B               ;move X to the right by one
08D1: 15      	        DEC D
08D2: 20EE    	        JR NZ,PLOT_BIT
              	        ;All bits are plotted check if D <= 0
08D4: 23      	        INC HL              ;move to next pixel byte
08D5: D1      	        POP DE              ;restore Column/Row bit count
08D6: 7A      	        LD A,D
08D7: B7      	        OR A                ;check for zero or lessor
08D8: 2803    	        JR Z,$+5
08DA: F29908  	        JP P,PLOT_BYTE      ;its greater or zero, do next byte
              	        ;Move down a row and set column to the start
08DD: 1D      	        DEC E               ;move column pixel count down by one
08DE: C8      	        RET Z               ;if its zero no more to do, just exit
08DF: 0C      	        INC C               ;move down a row
08E0: 3A92FB  	        LD A,(CURSOR_X)
08E3: 47      	        LD B,A              ;reset column
08E4: 3A96FB  	        LD A,(PIXEL_X)
08E7: 57      	        LD D,A              ;reset pixel length per row
08E8: 18AF    	        JR PLOT_BYTE
              	
              	;Draw a cursor at the current cursor position.  This will XOR the bits underneith
              	;the cursor position.  The cursor is a 6x6 pixel square.
08EA:         	drawCursor:
08EA: 3A94FB  	        LD A,(CURSOR_ON)
08ED: B7      	        OR A
08EE: C0      	        RET NZ              ;exit if cursor off
08EF: 110606  	        LD DE,0606H         ;Six pixels across, Six pixels down
08F2: ED4B91FB	        LD BC,(CURSOR_XY)   ;Get graphics cursor position
08F6:         	FLIP_BIT:        
08F6: 3A95FB  	        LD A,(INVERSE)      ;check inverse flag
08F9: B7      	        OR A
08FA: CCFA05  	        CALL Z,flipPixel    ;Flip the bit at the cursor position if not inverse
08FD: 04      	        INC B               ;move X to the right by one
08FE: 15      	        DEC D
08FF: 20F5    	        JR NZ,FLIP_BIT
0901: 1D      	        DEC E               ;move column pixel count down by one
0902: C8      	        RET Z               ;if its zero no more to do, just exit
0903: 0C      	        INC C               ;move down a row
0904: 1606    	        LD D,6              ;reset pixel length per row
0906: 3A92FB  	        LD A,(CURSOR_X)     ;restore original column
0909: 47      	        LD B,A              ;reset column
090A: 18EA    	        JR FLIP_BIT
              	
              	;Draw a blank at the current cursor position.  This is for DELETE character
090C:         	drawBlank:
090C: 110606  	        LD DE,0606H         ;Six pixels across, Six pixels down
090F: ED4B91FB	        LD BC,(CURSOR_XY)   ;Get graphics cursor position
0913:         	FLIP_BIT1:        
0913: CDE805  	        CALL clearPixel     ;clear the bit at the cursor position
0916: 04      	        INC B               ;move X to the right by one
0917: 15      	        DEC D
0918: 20F9    	        JR NZ,FLIP_BIT1
091A: 1D      	        DEC E               ;move column pixel count down by one
091B: C8      	        RET Z               ;if its zero no more to do, just exit
091C: 0C      	        INC C               ;move down a row
091D: 1606    	        LD D,6              ;reset pixel length per row
091F: 3A92FB  	        LD A,(CURSOR_X)     ;restore original column
0922: 47      	        LD B,A              ;reset column
0923: 18EE    	        JR FLIP_BIT1
              	
              	; Contstants
0925: 80908898	ROWS:   .db      80H,90H,88H,98H ;Text Row start position
              	        
0929:         	INIT_BASIC:
0929: 30      	        .db      30H             ;8 Bit interface, basic instruction
092A: 0C      	        .db      0CH             ;display on, cursor & blink off
092B: 06      	        .db      06H             ;cursor move to right ,no shift
092C: 01      	        .db      01H             ;clear RAM
              	
              	;General Graphic Data
              	;Byte n = Pixel data where set bits represent pixels.  Read from LSB
              	
              	; 256 Character Font 
092D:         	FONT_DATA:
              	        ;001
092D: 1E      	        .db 00011110b   ;  ####
092E: 21      	        .db 00100001b   ; #    #
092F: 21      	        .db 00100001b   ; #    #
0930: 21      	        .db 00100001b   ; #    #
0931: 21      	        .db 00100001b   ; #    #
0932: 1E      	        .db 00011110b   ;  ####
              	        ;002
0933: 1E      	        .db 00011110b   ;  ####
0934: 3F      	        .db 00111111b   ; ######
0935: 3F      	        .db 00111111b   ; ######
0936: 3F      	        .db 00111111b   ; ######
0937: 3F      	        .db 00111111b   ; ######
0938: 1E      	        .db 00011110b   ;  ####
              	        ;003 Up Arrow
0939: 0C      	        .db 00001100b   ;   ##
093A: 1E      	        .db 00011110b   ;  ####
093B: 3F      	        .db 00111111b   ; ######
093C: 0C      	        .db 00001100b   ;   ##
093D: 0C      	        .db 00001100b   ;   ##
093E: 0C      	        .db 00001100b   ;   ##
              	        ;004 Down Arrow
093F: 0C      	        .db 00001100b   ;   ##
0940: 0C      	        .db 00001100b   ;   ##
0941: 0C      	        .db 00001100b   ;   ##
0942: 3F      	        .db 00111111b   ; ######
0943: 1E      	        .db 00011110b   ;  ####
0944: 0C      	        .db 00001100b   ;   ##
              	        ;005 Left Arrow
0945: 08      	        .db 00001000b   ;   #
0946: 18      	        .db 00011000b   ;  ##
0947: 3F      	        .db 00111111b   ; ######
0948: 3F      	        .db 00111111b   ; ######
0949: 18      	        .db 00011000b   ;  ##
094A: 08      	        .db 00001000b   ;   #
              	        ;006 Right Arrow
094B: 04      	        .db 00000100b   ;    #
094C: 06      	        .db 00000110b   ;    ##
094D: 3F      	        .db 00111111b   ; ######
094E: 3F      	        .db 00111111b   ; ######
094F: 06      	        .db 00000110b   ;    ##
0950: 04      	        .db 00000100b   ;    #
              	        ;007 Up Hat
0951: 0C      	        .db 00001100b   ;   ##
0952: 1E      	        .db 00011110b   ;  ####
0953: 3F      	        .db 00111111b   ; ######
0954: 00      	        .db 00000000b   ;
0955: 00      	        .db 00000000b   ;
0956: 00      	        .db 00000000b   ;
              	        ;008 Down Hat
0957: 00      	        .db 00000000b   ;
0958: 00      	        .db 00000000b   ;
0959: 00      	        .db 00000000b   ;
095A: 3F      	        .db 00111111b   ; ######
095B: 1E      	        .db 00011110b   ;  ####
095C: 0C      	        .db 00001100b   ;   ##
              	        ;009 Left Hat
095D: 08      	        .db 00001000b   ;   #
095E: 18      	        .db 00011000b   ;  ##
095F: 38      	        .db 00111000b   ; ###
0960: 38      	        .db 00111000b   ; ###
0961: 18      	        .db 00011000b   ;  ##
0962: 08      	        .db 00001000b   ;   #
              	        ;010 Right Hat
0963: 04      	        .db 00000100b   ;    #
0964: 06      	        .db 00000110b   ;    ##
0965: 07      	        .db 00000111b   ;    ###
0966: 07      	        .db 00000111b   ;    ###
0967: 06      	        .db 00000110b   ;    ##
0968: 04      	        .db 00000100b   ;    #
              	        ;011 Note 1
0969: 04      	        .db 00000100b   ;    #
096A: 04      	        .db 00000100b   ;    # 
096B: 04      	        .db 00000100b   ;    # 
096C: 1C      	        .db 00011100b   ;  ###
096D: 3C      	        .db 00111100b   ; ####
096E: 18      	        .db 00011000b   ;  ##
              	        ;012 Note 2
096F: 04      	        .db 00000100b   ;    #
0970: 06      	        .db 00000110b   ;    ## 
0971: 05      	        .db 00000101b   ;    # #
0972: 1C      	        .db 00011100b   ;  ###
0973: 3C      	        .db 00111100b   ; ####
0974: 18      	        .db 00011000b   ;  ##
              	        ;013 Rocket
0975: 0C      	        .db 00001100b   ;   ##
0976: 0C      	        .db 00001100b   ;   ##
0977: 0C      	        .db 00001100b   ;   ##
0978: 0C      	        .db 00001100b   ;   ##
0979: 1E      	        .db 00011110b   ;  ####
097A: 33      	        .db 00110011b   ; ##  ##
              	        ;014 Bomb
097B: 1E      	        .db 00011110b   ;  ####
097C: 0C      	        .db 00001100b   ;   ##
097D: 1E      	        .db 00011110b   ;  ####
097E: 1E      	        .db 00011110b   ;  ####
097F: 1E      	        .db 00011110b   ;  ####
0980: 0C      	        .db 00001100b   ;   ##
              	        ;015 Explosion
0981: 0C      	        .db 00001100b   ;   ##
0982: 3F      	        .db 00111111b   ; ######
0983: 06      	        .db 00000110b   ;    ##
0984: 0C      	        .db 00001100b   ;   ##
0985: 18      	        .db 00011000b   ;  ##
0986: 0C      	        .db 00001100b   ;   ##
              	        ;016
0987: 36      	        .db 00110110b   ; ## ##
0988: 24      	        .db 00100100b   ; #  #
0989: 00      	        .db 00000000b   ;
098A: 00      	        .db 00000000b   ;
098B: 00      	        .db 00000000b   ;
098C: 00      	        .db 00000000b   ;
              	        ;017
098D: 36      	        .db 00110110b   ; ## ##
098E: 12      	        .db 00010010b   ;  #  #
098F: 00      	        .db 00000000b   ;
0990: 00      	        .db 00000000b   ;
0991: 00      	        .db 00000000b   ;
0992: 00      	        .db 00000000b   ;
              	        ;018
0993: 0E      	        .db 00001110b   ;   ###
0994: 12      	        .db 00010010b   ;  #  #
0995: 38      	        .db 00111000b   ; ###
0996: 12      	        .db 00010010b   ;  #  #
0997: 3E      	        .db 00111110b   ; #####
0998: 00      	        .db 00000000b   ;
              	        ;019
0999: 1C      	        .db 00011100b   ;  ###
099A: 22      	        .db 00100010b   ; #   #
099B: 2A      	        .db 00101010b   ; # # #
099C: 22      	        .db 00100010b   ; #   #
099D: 1C      	        .db 00011100b   ;  ###
099E: 00      	        .db 00000000b   ;
              	        ;020
099F: 3E      	        .db 00111110b   ; #####
09A0: 34      	        .db 00110100b   ; ## #
09A1: 34      	        .db 00110100b   ; ## #
09A2: 14      	        .db 00010100b   ;  # #
09A3: 14      	        .db 00010100b   ;  # #
09A4: 00      	        .db 00000000b   ;
              	        ;021
09A5: 1C      	        .db 00011100b   ;  ###
09A6: 18      	        .db 00011000b   ;  ##
09A7: 24      	        .db 00100100b   ; #  #
09A8: 18      	        .db 00011000b   ;  ##
09A9: 38      	        .db 00111000b   ; ###
09AA: 00      	        .db 00000000b   ;
              	        ;022
09AB: 0C      	        .db 00001100b   ;   ##
09AC: 0C      	        .db 00001100b   ;   ##
09AD: 02      	        .db 00000010b   ;     #
09AE: 00      	        .db 00000000b   ;
09AF: 00      	        .db 00000000b   ;
09B0: 00      	        .db 00000000b   ;
              	        ;023
09B1: 14      	        .db 00010100b   ;  # #
09B2: 00      	        .db 00000000b   ;
09B3: 08      	        .db 00001000b   ;   #
09B4: 22      	        .db 00100010b   ; #   # 
09B5: 1C      	        .db 00011100b   ;  ###
09B6: 00      	        .db 00000000b   ;
              	        ;024
09B7: 14      	        .db 00010100b   ;  # #
09B8: 00      	        .db 00000000b   ;
09B9: 00      	        .db 00000000b   ;
09BA: 1C      	        .db 00011100b   ;  ###
09BB: 22      	        .db 00100010b   ; #   # 
09BC: 00      	        .db 00000000b   ;
              	        ;025
09BD: 08      	        .db 00001000b   ;   #
09BE: 00      	        .db 00000000b   ;
09BF: 18      	        .db 00011000b   ;  ##
09C0: 22      	        .db 00100010b   ; #   #
09C1: 1C      	        .db 00011100b   ;  ###
09C2: 00      	        .db 00000000b   ;
              	        ;026
09C3: 08      	        .db 00001000b   ;   #
09C4: 00      	        .db 00000000b   ;
09C5: 08      	        .db 00001000b   ;   #
09C6: 08      	        .db 00001000b   ;   #
09C7: 08      	        .db 00001000b   ;   #
09C8: 00      	        .db 00000000b   ;
              	        ;027
09C9: 00      	        .db 00000000b   ;
09CA: 00      	        .db 00000000b   ;
09CB: 3E      	        .db 00111110b   ; #####
09CC: 06      	        .db 00000110b   ;    ##
09CD: 06      	        .db 00000110b   ;    ##
09CE: 00      	        .db 00000000b   ;
              	        ;028
09CF: 1C      	        .db 00011100b   ;  ###
09D0: 1C      	        .db 00011100b   ;  ###
09D1: 3E      	        .db 00111110b   ; #####
09D2: 08      	        .db 00001000b   ;   #
09D3: 1C      	        .db 00011100b   ;  ###
09D4: 00      	        .db 00000000b   ;
              	        ;029
09D5: 08      	        .db 00001000b   ;   #
09D6: 1C      	        .db 00011100b   ;  ###
09D7: 3E      	        .db 00111110b   ; #####
09D8: 1C      	        .db 00011100b   ;  ###
09D9: 08      	        .db 00001000b   ;   #
09DA: 00      	        .db 00000000b   ;
              	        ;030
09DB: 14      	        .db 00010100b   ;  # #
09DC: 3E      	        .db 00111110b   ; #####
09DD: 3E      	        .db 00111110b   ; #####
09DE: 1C      	        .db 00011100b   ;  ###
09DF: 08      	        .db 00001000b   ;   #
09E0: 00      	        .db 00000000b   ;
              	        ;031
09E1: 08      	        .db 00001000b   ;   #
09E2: 1C      	        .db 00011100b   ;  ###
09E3: 3E      	        .db 00111110b   ; #####
09E4: 08      	        .db 00001000b   ;   #
09E5: 1C      	        .db 00011100b   ;  ###
09E6: 00      	        .db 00000000b   ;
              	        ;032 Space
09E7: 00      	        .db 00000000b   ;
09E8: 00      	        .db 00000000b   ;
09E9: 00      	        .db 00000000b   ;
09EA: 00      	        .db 00000000b   ;
09EB: 00      	        .db 00000000b   ;
09EC: 00      	        .db 00000000b   ;
              	        ;033 !
09ED: 08      	        .db 00001000b   ;   #
09EE: 08      	        .db 00001000b   ;   #
09EF: 08      	        .db 00001000b   ;   #
09F0: 00      	        .db 00000000b   ;
09F1: 08      	        .db 00001000b   ;   #
09F2: 00      	        .db 00000000b   ;
              	        ;034 "
09F3: 14      	        .db 00010100b   ;  # #
09F4: 14      	        .db 00010100b   ;  # #
09F5: 00      	        .db 00000000b   ;
09F6: 00      	        .db 00000000b   ;
09F7: 00      	        .db 00000000b   ;
09F8: 00      	        .db 00000000b   ;
              	        ;035 #
09F9: 14      	        .db 00010100b   ;  # #
09FA: 3E      	        .db 00111110b   ; #####
09FB: 14      	        .db 00010100b   ;  # #
09FC: 3E      	        .db 00111110b   ; #####
09FD: 14      	        .db 00010100b   ;  # #
09FE: 00      	        .db 00000000b   ;
              	        ;036 $
09FF: 1E      	        .db 00011110b   ;  ####
0A00: 28      	        .db 00101000b   ; # #
0A01: 1C      	        .db 00011100b   ;  ###
0A02: 0A      	        .db 00001010b   ;   # #
0A03: 3C      	        .db 00111100b   ; ####
0A04: 00      	        .db 00000000b   ;
              	        ;037 %
0A05: 32      	        .db 00110010b   ; ##  #
0A06: 34      	        .db 00110100b   ; ## #
0A07: 08      	        .db 00001000b   ;   #
0A08: 16      	        .db 00010110b   ;  # ##
0A09: 26      	        .db 00100110b   ; #  ##
0A0A: 00      	        .db 00000000b   ;
              	        ;038 &
0A0B: 18      	        .db 00011000b   ;  ##
0A0C: 24      	        .db 00100100b   ; #  #
0A0D: 1A      	        .db 00011010b   ;  ## #
0A0E: 24      	        .db 00100100b   ; #  #
0A0F: 1A      	        .db 00011010b   ;  ## #
0A10: 00      	        .db 00000000b   ;
              	        ;039 '
0A11: 04      	        .db 00000100b   ;    #
0A12: 08      	        .db 00001000b   ;   #
0A13: 00      	        .db 00000000b   ;
0A14: 00      	        .db 00000000b   ;
0A15: 00      	        .db 00000000b   ;
0A16: 00      	        .db 00000000b   ;
              	        ;040 (
0A17: 04      	        .db 00000100b   ;    #
0A18: 08      	        .db 00001000b   ;   #
0A19: 08      	        .db 00001000b   ;   #
0A1A: 08      	        .db 00001000b   ;   #
0A1B: 04      	        .db 00000100b   ;    #
0A1C: 00      	        .db 00000000b   ;
              	        ;041 )
0A1D: 10      	        .db 00010000b   ;  #
0A1E: 08      	        .db 00001000b   ;   #
0A1F: 08      	        .db 00001000b   ;   #
0A20: 08      	        .db 00001000b   ;   #
0A21: 10      	        .db 00010000b   ;  #
0A22: 00      	        .db 00000000b   ;
              	        ;042 *
0A23: 2A      	        .db 00101010b   ; # # #
0A24: 1C      	        .db 00011100b   ;  ###
0A25: 3E      	        .db 00111110b   ; #####
0A26: 1C      	        .db 00011100b   ;  ###
0A27: 2A      	        .db 00101010b   ; # # #
0A28: 00      	        .db 00000000b   ;
              	        ;043 +
0A29: 00      	        .db 00000000b   ;
0A2A: 08      	        .db 00001000b   ;   #
0A2B: 1C      	        .db 00011100b   ;  ###
0A2C: 08      	        .db 00001000b   ;   #
0A2D: 00      	        .db 00000000b   ;
0A2E: 00      	        .db 00000000b   ;
              	        ;044 ,
0A2F: 00      	        .db 00000000b   ;
0A30: 00      	        .db 00000000b   ;
0A31: 00      	        .db 00000000b   ;
0A32: 08      	        .db 00001000b   ;   #
0A33: 10      	        .db 00010000b   ;  #
0A34: 00      	        .db 00000000b   ;
              	        ;045 -
0A35: 00      	        .db 00000000b   ;
0A36: 00      	        .db 00000000b   ;
0A37: 1C      	        .db 00011100b   ;  ###
0A38: 00      	        .db 00000000b   ;
0A39: 00      	        .db 00000000b   ;
0A3A: 00      	        .db 00000000b   ;
              	        ;046 .
0A3B: 00      	        .db 00000000b   ;
0A3C: 00      	        .db 00000000b   ;
0A3D: 00      	        .db 00000000b   ;
0A3E: 00      	        .db 00000000b   ;
0A3F: 10      	        .db 00010000b   ;  #
0A40: 00      	        .db 00000000b   ;
              	        ;047 /
0A41: 02      	        .db 00000010b   ;     #
0A42: 04      	        .db 00000100b   ;    #
0A43: 08      	        .db 00001000b   ;   #
0A44: 10      	        .db 00010000b   ;  #
0A45: 20      	        .db 00100000b   ; #
0A46: 00      	        .db 00000000b   ;
              	        ;048 0
0A47: 1C      	        .db 00011100b   ;  ###
0A48: 14      	        .db 00010100b   ;  # #
0A49: 14      	        .db 00010100b   ;  # #
0A4A: 14      	        .db 00010100b   ;  # #
0A4B: 1C      	        .db 00011100b   ;  ###
0A4C: 00      	        .db 00000000b   ;
              	        ;049 1
0A4D: 08      	        .db 00001000b   ;   #
0A4E: 18      	        .db 00011000b   ;  ##
0A4F: 08      	        .db 00001000b   ;   #
0A50: 08      	        .db 00001000b   ;   #
0A51: 1C      	        .db 00011100b   ;  ###
0A52: 00      	        .db 00000000b   ;
              	        ;050 2
0A53: 1C      	        .db 00011100b   ;  ###
0A54: 04      	        .db 00000100b   ;    #
0A55: 1C      	        .db 00011100b   ;  ###
0A56: 10      	        .db 00010000b   ;  #
0A57: 1C      	        .db 00011100b   ;  ###
0A58: 00      	        .db 00000000b   ;
              	        ;051 3
0A59: 1C      	        .db 00011100b   ;  ###
0A5A: 04      	        .db 00000100b   ;    #
0A5B: 0C      	        .db 00001100b   ;   ##
0A5C: 04      	        .db 00000100b   ;    #
0A5D: 1C      	        .db 00011100b   ;  ###
0A5E: 00      	        .db 00000000b   ;
              	        ;052 4
0A5F: 10      	        .db 00010000b   ;  #
0A60: 10      	        .db 00010000b   ;  #
0A61: 14      	        .db 00010100b   ;  # #
0A62: 1C      	        .db 00011100b   ;  ###
0A63: 04      	        .db 00000100b   ;    #
0A64: 00      	        .db 00000000b   ;
              	        ;053 5
0A65: 1C      	        .db 00011100b   ;  ###
0A66: 10      	        .db 00010000b   ;  #
0A67: 1C      	        .db 00011100b   ;  ###
0A68: 04      	        .db 00000100b   ;    #
0A69: 1C      	        .db 00011100b   ;  ###
0A6A: 00      	        .db 00000000b   ;
              	        ;054 6
0A6B: 18      	        .db 00011000b   ;  ##
0A6C: 10      	        .db 00010000b   ;  #
0A6D: 1C      	        .db 00011100b   ;  ###
0A6E: 14      	        .db 00010100b   ;  # #
0A6F: 1C      	        .db 00011100b   ;  ###
0A70: 00      	        .db 00000000b   ;
              	        ;055 7
0A71: 1C      	        .db 00011100b   ;  ###
0A72: 04      	        .db 00000100b   ;    #
0A73: 08      	        .db 00001000b   ;   #
0A74: 10      	        .db 00010000b   ;  #
0A75: 10      	        .db 00010000b   ;  #
0A76: 00      	        .db 00000000b   ;
              	        ;056 8
0A77: 1C      	        .db 00011100b   ;  ###
0A78: 14      	        .db 00010100b   ;  # #
0A79: 1C      	        .db 00011100b   ;  ###
0A7A: 14      	        .db 00010100b   ;  # #
0A7B: 1C      	        .db 00011100b   ;  ###
0A7C: 00      	        .db 00000000b   ;
              	        ;057 9
0A7D: 1C      	        .db 00011100b   ;  ###
0A7E: 14      	        .db 00010100b   ;  # #
0A7F: 1C      	        .db 00011100b   ;  ###
0A80: 04      	        .db 00000100b   ;    #
0A81: 1C      	        .db 00011100b   ;  ###
0A82: 00      	        .db 00000000b   ;
              	        ;058 :
0A83: 00      	        .db 00000000b   ;
0A84: 08      	        .db 00001000b   ;   #
0A85: 00      	        .db 00000000b   ;
0A86: 08      	        .db 00001000b   ;   #
0A87: 00      	        .db 00000000b   ;
0A88: 00      	        .db 00000000b   ;
              	        ;059 ;
0A89: 00      	        .db 00000000b   ;
0A8A: 08      	        .db 00001000b   ;   #
0A8B: 00      	        .db 00000000b   ;
0A8C: 08      	        .db 00001000b   ;   #
0A8D: 10      	        .db 00010000b   ;  #
0A8E: 00      	        .db 00000000b   ;
              	        ;060 <
0A8F: 04      	        .db 00000100b   ;    #
0A90: 08      	        .db 00001000b   ;   #
0A91: 10      	        .db 00010000b   ;  #
0A92: 08      	        .db 00001000b   ;   #
0A93: 04      	        .db 00000100b   ;    #
0A94: 00      	        .db 00000000b   ;
              	        ;061 =
0A95: 00      	        .db 00000000b   ;
0A96: 1C      	        .db 00011100b   ;  ###
0A97: 00      	        .db 00000000b   ;
0A98: 1C      	        .db 00011100b   ;  ###
0A99: 00      	        .db 00000000b   ;
0A9A: 00      	        .db 00000000b   ;
              	        ;062 >
0A9B: 10      	        .db 00010000b   ;  #
0A9C: 08      	        .db 00001000b   ;   #
0A9D: 04      	        .db 00000100b   ;    #
0A9E: 08      	        .db 00001000b   ;   #
0A9F: 10      	        .db 00010000b   ;  #
0AA0: 00      	        .db 00000000b   ;
              	        ;063 ?
0AA1: 1C      	        .db 00011100b   ;  ###
0AA2: 22      	        .db 00100010b   ; #   # 
0AA3: 0C      	        .db 00001100b   ;   ##
0AA4: 00      	        .db 00000000b   ;
0AA5: 08      	        .db 00001000b   ;   #
0AA6: 00      	        .db 00000000b   ;
              	        ;064 @
0AA7: 1C      	        .db 00011100b   ;  ###
0AA8: 22      	        .db 00100010b   ; #   #
0AA9: 26      	        .db 00100110b   ; #  ##
0AAA: 2A      	        .db 00101010b   ; # # # 
0AAB: 0C      	        .db 00001100b   ;   ##
0AAC: 00      	        .db 00000000b   ;
              	        ;065 A
0AAD: 1C      	        .db 00011100b   ;  ###
0AAE: 22      	        .db 00100010b   ; #   #
0AAF: 22      	        .db 00100010b   ; #   #
0AB0: 3E      	        .db 00111110b   ; #####
0AB1: 22      	        .db 00100010b   ; #   #
0AB2: 00      	        .db 00000000b   ; 
              	        ;066 B
0AB3: 3C      	        .db 00111100b   ; ####
0AB4: 22      	        .db 00100010b   ; #   #
0AB5: 3C      	        .db 00111100b   ; ####
0AB6: 22      	        .db 00100010b   ; #   #
0AB7: 3C      	        .db 00111100b   ; ####
0AB8: 00      	        .db 00000000b   ; 
              	        ;067 C
0AB9: 1C      	        .db 00011100b   ;  ###
0ABA: 22      	        .db 00100010b   ; #   # 
0ABB: 20      	        .db 00100000b   ; #
0ABC: 22      	        .db 00100010b   ; #   # 
0ABD: 1C      	        .db 00011100b   ;  ###
0ABE: 00      	        .db 00000000b   ;
              	        ;068 D
0ABF: 3C      	        .db 00111100b   ; ####
0AC0: 22      	        .db 00100010b   ; #   #
0AC1: 22      	        .db 00100010b   ; #   #
0AC2: 22      	        .db 00100010b   ; #   #
0AC3: 3C      	        .db 00111100b   ; ####
0AC4: 00      	        .db 00000000b   ;
              	        ;069 E
0AC5: 3E      	        .db 00111110b   ; #####
0AC6: 20      	        .db 00100000b   ; #
0AC7: 3C      	        .db 00111100b   ; ####
0AC8: 20      	        .db 00100000b   ; #
0AC9: 3E      	        .db 00111110b   ; #####
0ACA: 00      	        .db 00000000b   ;
              	        ;070 F
0ACB: 3E      	        .db 00111110b   ; #####
0ACC: 20      	        .db 00100000b   ; #
0ACD: 3C      	        .db 00111100b   ; ####
0ACE: 20      	        .db 00100000b   ; #
0ACF: 20      	        .db 00100000b   ; #
0AD0: 00      	        .db 00000000b   ;
              	        ;071 G
0AD1: 1C      	        .db 00011100b   ;  ###
0AD2: 20      	        .db 00100000b   ; #    
0AD3: 26      	        .db 00100110b   ; #  ##
0AD4: 22      	        .db 00100010b   ; #   # 
0AD5: 1C      	        .db 00011100b   ;  ###
0AD6: 00      	        .db 00000000b   ;
              	        ;072 H
0AD7: 22      	        .db 00100010b   ; #   #
0AD8: 22      	        .db 00100010b   ; #   #
0AD9: 3E      	        .db 00111110b   ; #####
0ADA: 22      	        .db 00100010b   ; #   #
0ADB: 22      	        .db 00100010b   ; #   #
0ADC: 00      	        .db 00000000b   ;
              	        ;073 I
0ADD: 1C      	        .db 00011100b   ;  ###
0ADE: 08      	        .db 00001000b   ;   #
0ADF: 08      	        .db 00001000b   ;   #
0AE0: 08      	        .db 00001000b   ;   #
0AE1: 1C      	        .db 00011100b   ;  ###
0AE2: 00      	        .db 00000000b   ;
              	        ;074 J
0AE3: 0C      	        .db 00001100b   ;   ##
0AE4: 04      	        .db 00000100b   ;    #
0AE5: 04      	        .db 00000100b   ;    #
0AE6: 14      	        .db 00010100b   ;  # #
0AE7: 1C      	        .db 00011100b   ;  ###
0AE8: 00      	        .db 00000000b   ;
              	        ;075 K
0AE9: 24      	        .db 00100100b   ; #  #
0AEA: 28      	        .db 00101000b   ; # #
0AEB: 30      	        .db 00110000b   ; ##
0AEC: 28      	        .db 00101000b   ; # #
0AED: 24      	        .db 00100100b   ; #  #
0AEE: 00      	        .db 00000000b   ;
              	        ;076 L
0AEF: 20      	        .db 00100000b   ; #
0AF0: 20      	        .db 00100000b   ; #
0AF1: 20      	        .db 00100000b   ; #
0AF2: 20      	        .db 00100000b   ; #
0AF3: 3C      	        .db 00111100b   ; ####
0AF4: 00      	        .db 00000000b   ; 
              	        ;077 M
0AF5: 22      	        .db 00100010b   ; #   #
0AF6: 36      	        .db 00110110b   ; ## ##
0AF7: 2A      	        .db 00101010b   ; # # #
0AF8: 22      	        .db 00100010b   ; #   #
0AF9: 22      	        .db 00100010b   ; #   #
0AFA: 00      	        .db 00000000b   ; 
              	        ;078 N
0AFB: 22      	        .db 00100010b   ; #   #
0AFC: 32      	        .db 00110010b   ; ##  #
0AFD: 2A      	        .db 00101010b   ; # # #
0AFE: 26      	        .db 00100110b   ; #  ##
0AFF: 22      	        .db 00100010b   ; #   #
0B00: 00      	        .db 00000000b   ; 
              	        ;079 O
0B01: 1C      	        .db 00011100b   ;  ###
0B02: 26      	        .db 00100110b   ; #  ## 
0B03: 22      	        .db 00100010b   ; #   #
0B04: 22      	        .db 00100010b   ; #   # 
0B05: 1C      	        .db 00011100b   ;  ###
0B06: 00      	        .db 00000000b   ; 
              	        ;080 P
0B07: 38      	        .db 00111000b   ; ###
0B08: 24      	        .db 00100100b   ; #  #
0B09: 38      	        .db 00111000b   ; ###
0B0A: 20      	        .db 00100000b   ; #
0B0B: 20      	        .db 00100000b   ; #
0B0C: 00      	        .db 00000000b   ; 
              	        ;081 Q
0B0D: 1C      	        .db 00011100b   ;  ###
0B0E: 22      	        .db 00100010b   ; #   # 
0B0F: 22      	        .db 00100010b   ; #   #
0B10: 26      	        .db 00100110b   ; #  ## 
0B11: 1E      	        .db 00011110b   ;  ####
0B12: 00      	        .db 00000000b   ; 
              	        ;082 R
0B13: 38      	        .db 00111000b   ; ###
0B14: 24      	        .db 00100100b   ; #  #
0B15: 38      	        .db 00111000b   ; ###
0B16: 28      	        .db 00101000b   ; # #
0B17: 24      	        .db 00100100b   ; #  #
0B18: 00      	        .db 00000000b   ; 
              	        ;083 S
0B19: 1E      	        .db 00011110b   ;  ####
0B1A: 20      	        .db 00100000b   ; #
0B1B: 1C      	        .db 00011100b   ;  ###
0B1C: 02      	        .db 00000010b   ;     #
0B1D: 3C      	        .db 00111100b   ; ####
0B1E: 00      	        .db 00000000b   ; 
              	        ;084 T
0B1F: 3E      	        .db 00111110b   ; #####
0B20: 08      	        .db 00001000b   ;   #
0B21: 08      	        .db 00001000b   ;   #
0B22: 08      	        .db 00001000b   ;   #
0B23: 08      	        .db 00001000b   ;   #
0B24: 00      	        .db 00000000b   ; 
              	        ;085 U
0B25: 22      	        .db 00100010b   ; #   #
0B26: 22      	        .db 00100010b   ; #   #
0B27: 22      	        .db 00100010b   ; #   #
0B28: 22      	        .db 00100010b   ; #   #
0B29: 1C      	        .db 00011100b   ;  ###
0B2A: 00      	        .db 00000000b   ; 
              	        ;086 V
0B2B: 22      	        .db 00100010b   ; #   #
0B2C: 22      	        .db 00100010b   ; #   #
0B2D: 14      	        .db 00010100b   ;  # #
0B2E: 14      	        .db 00010100b   ;  # #
0B2F: 08      	        .db 00001000b   ;   #
0B30: 00      	        .db 00000000b   ; 
              	        ;087 W
0B31: 22      	        .db 00100010b   ; #   #
0B32: 22      	        .db 00100010b   ; #   #
0B33: 2A      	        .db 00101010b   ; # # #
0B34: 2A      	        .db 00101010b   ; # # #
0B35: 14      	        .db 00010100b   ;  # #
0B36: 00      	        .db 00000000b   ; 
              	        ;088 X
0B37: 22      	        .db 00100010b   ; #   #
0B38: 14      	        .db 00010100b   ;  # #
0B39: 08      	        .db 00001000b   ;   #
0B3A: 14      	        .db 00010100b   ;  # #
0B3B: 22      	        .db 00100010b   ; #   #
0B3C: 00      	        .db 00000000b   ; 
              	        ;089 Y
0B3D: 22      	        .db 00100010b   ; #   #
0B3E: 14      	        .db 00010100b   ;  # #
0B3F: 08      	        .db 00001000b   ;   #
0B40: 08      	        .db 00001000b   ;   #
0B41: 08      	        .db 00001000b   ;   #
0B42: 00      	        .db 00000000b   ; 
              	        ;090 Z
0B43: 3E      	        .db 00111110b   ; #####
0B44: 04      	        .db 00000100b   ;    #
0B45: 08      	        .db 00001000b   ;   #
0B46: 10      	        .db 00010000b   ;  #
0B47: 3E      	        .db 00111110b   ; #####
0B48: 00      	        .db 00000000b   ; 
              	        ;091 [
0B49: 0C      	        .db 00001100b   ;   ##
0B4A: 08      	        .db 00001000b   ;   #
0B4B: 08      	        .db 00001000b   ;   #
0B4C: 08      	        .db 00001000b   ;   #
0B4D: 0C      	        .db 00001100b   ;   ##
0B4E: 00      	        .db 00000000b   ; 
              	        ;092 \
0B4F: 20      	        .db 00100000b   ; #
0B50: 10      	        .db 00010000b   ;  #
0B51: 08      	        .db 00001000b   ;   #
0B52: 04      	        .db 00000100b   ;    #
0B53: 02      	        .db 00000010b   ;     #
0B54: 00      	        .db 00000000b   ; 
              	        ;093 ]
0B55: 18      	        .db 00011000b   ;  ##
0B56: 08      	        .db 00001000b   ;   #
0B57: 08      	        .db 00001000b   ;   #
0B58: 08      	        .db 00001000b   ;   #
0B59: 18      	        .db 00011000b   ;  ##
0B5A: 00      	        .db 00000000b   ; 
              	        ;094 ^
0B5B: 08      	        .db 00001000b   ;   #
0B5C: 14      	        .db 00010100b   ;  # #
0B5D: 00      	        .db 00000000b   ; 
0B5E: 00      	        .db 00000000b   ; 
0B5F: 00      	        .db 00000000b   ; 
0B60: 00      	        .db 00000000b   ; 
              	        ;095 _
0B61: 00      	        .db 00000000b   ; 
0B62: 00      	        .db 00000000b   ; 
0B63: 00      	        .db 00000000b   ; 
0B64: 00      	        .db 00000000b   ; 
0B65: 3E      	        .db 00111110b   ; #####
0B66: 00      	        .db 00000000b   ; 
              	        ;096 `
0B67: 08      	        .db 00001000b   ;   #
0B68: 04      	        .db 00000100b   ;    #
0B69: 00      	        .db 00000000b   ;
0B6A: 00      	        .db 00000000b   ;
0B6B: 00      	        .db 00000000b   ;
0B6C: 00      	        .db 00000000b   ;
              	        ;097 a
0B6D: 00      	        .db 00000000b   ; 
0B6E: 1C      	        .db 00011100b   ;  ###
0B6F: 22      	        .db 00100010b   ; #   #
0B70: 26      	        .db 00100110b   ; #  ##
0B71: 1A      	        .db 00011010b   ;  ## #
0B72: 00      	        .db 00000000b   ; 
              	        ;098 b
0B73: 20      	        .db 00100000b   ; #
0B74: 3C      	        .db 00111100b   ; ####
0B75: 22      	        .db 00100010b   ; #   #
0B76: 22      	        .db 00100010b   ; #   #
0B77: 3C      	        .db 00111100b   ; ####
0B78: 00      	        .db 00000000b   ; 
              	        ;099 c
0B79: 00      	        .db 00000000b   ; 
0B7A: 1C      	        .db 00011100b   ;  ###
0B7B: 20      	        .db 00100000b   ; #   
0B7C: 20      	        .db 00100000b   ; #   
0B7D: 1C      	        .db 00011100b   ;  ###
0B7E: 00      	        .db 00000000b   ; 
              	        ;100 d
0B7F: 02      	        .db 00000010b   ;     #
0B80: 1E      	        .db 00011110b   ;  ####
0B81: 22      	        .db 00100010b   ; #   #
0B82: 22      	        .db 00100010b   ; #   #
0B83: 1E      	        .db 00011110b   ;  ####
0B84: 00      	        .db 00000000b   ; 
              	        ;101 e
0B85: 1C      	        .db 00011100b   ;  ###
0B86: 22      	        .db 00100010b   ; #   #
0B87: 3C      	        .db 00111100b   ; ####
0B88: 20      	        .db 00100000b   ; #
0B89: 1E      	        .db 00011110b   ;  ####
0B8A: 00      	        .db 00000000b   ; 
              	        ;102 f
0B8B: 0E      	        .db 00001110b   ;   ###
0B8C: 10      	        .db 00010000b   ;  # 
0B8D: 3C      	        .db 00111100b   ; ####
0B8E: 10      	        .db 00010000b   ;  # 
0B8F: 10      	        .db 00010000b   ;  # 
0B90: 00      	        .db 00000000b   ; 
              	        ;103 g
0B91: 1E      	        .db 00011110b   ;  ####
0B92: 22      	        .db 00100010b   ; #   #
0B93: 1E      	        .db 00011110b   ;  ####
0B94: 02      	        .db 00000010b   ;     #
0B95: 3C      	        .db 00111100b   ; ####
0B96: 00      	        .db 00000000b   ; 
              	        ;104 h
0B97: 20      	        .db 00100000b   ; #
0B98: 20      	        .db 00100000b   ; #
0B99: 3C      	        .db 00111100b   ; ####
0B9A: 22      	        .db 00100010b   ; #   #
0B9B: 22      	        .db 00100010b   ; #   #
0B9C: 00      	        .db 00000000b   ; 
              	        ;105 i
0B9D: 08      	        .db 00001000b   ;   #
0B9E: 00      	        .db 00000000b   ; 
0B9F: 08      	        .db 00001000b   ;   #
0BA0: 08      	        .db 00001000b   ;   #
0BA1: 08      	        .db 00001000b   ;   #
0BA2: 00      	        .db 00000000b   ; 
              	        ;106 j
0BA3: 04      	        .db 00000100b   ;    # 
0BA4: 00      	        .db 00000000b   ; 
0BA5: 04      	        .db 00000100b   ;    # 
0BA6: 04      	        .db 00000100b   ;    # 
0BA7: 18      	        .db 00011000b   ;  ##
0BA8: 00      	        .db 00000000b   ; 
              	        ;107 k
0BA9: 20      	        .db 00100000b   ; #
0BAA: 24      	        .db 00100100b   ; #  #
0BAB: 28      	        .db 00101000b   ; # #
0BAC: 34      	        .db 00110100b   ; ## #
0BAD: 22      	        .db 00100010b   ; #   #
0BAE: 00      	        .db 00000000b   ; 
              	        ;108 l
0BAF: 08      	        .db 00001000b   ;   #
0BB0: 08      	        .db 00001000b   ;   #
0BB1: 08      	        .db 00001000b   ;   #
0BB2: 08      	        .db 00001000b   ;   #
0BB3: 0C      	        .db 00001100b   ;   ##
0BB4: 00      	        .db 00000000b   ; 
              	        ;109 m
0BB5: 00      	        .db 00000000b   ; 
0BB6: 14      	        .db 00010100b   ;  # #
0BB7: 2A      	        .db 00101010b   ; # # #
0BB8: 2A      	        .db 00101010b   ; # # #
0BB9: 2A      	        .db 00101010b   ; # # #
0BBA: 00      	        .db 00000000b   ; 
              	        ;110 n
0BBB: 00      	        .db 00000000b   ; 
0BBC: 1C      	        .db 00011100b   ;  ###
0BBD: 22      	        .db 00100010b   ; #   #
0BBE: 22      	        .db 00100010b   ; #   #
0BBF: 22      	        .db 00100010b   ; #   #
0BC0: 00      	        .db 00000000b   ; 
              	        ;111 o
0BC1: 00      	        .db 00000000b   ; 
0BC2: 1C      	        .db 00011100b   ;  ###
0BC3: 22      	        .db 00100010b   ; #   #
0BC4: 22      	        .db 00100010b   ; #   #
0BC5: 1C      	        .db 00011100b   ;  ###
0BC6: 00      	        .db 00000000b   ; 
              	        ;112 p
0BC7: 1C      	        .db 00011100b   ;  ###
0BC8: 22      	        .db 00100010b   ; #   #
0BC9: 22      	        .db 00100010b   ; #   #
0BCA: 3C      	        .db 00111100b   ; ####
0BCB: 20      	        .db 00100000b   ; #
0BCC: 00      	        .db 00000000b   ; 
              	        ;113 q
0BCD: 1C      	        .db 00011100b   ;  ###
0BCE: 22      	        .db 00100010b   ; #   #
0BCF: 22      	        .db 00100010b   ; #   #
0BD0: 1E      	        .db 00011110b   ;  ####
0BD1: 02      	        .db 00000010b   ;     #
0BD2: 00      	        .db 00000000b   ; 
              	        ;114 r
0BD3: 00      	        .db 00000000b   ; 
0BD4: 2C      	        .db 00101100b   ; # ##
0BD5: 30      	        .db 00110000b   ; ##
0BD6: 20      	        .db 00100000b   ; #
0BD7: 20      	        .db 00100000b   ; #
0BD8: 00      	        .db 00000000b   ; 
              	        ;115 s
0BD9: 1C      	        .db 00011100b   ;  ###
0BDA: 20      	        .db 00100000b   ; #
0BDB: 1C      	        .db 00011100b   ;  ###
0BDC: 02      	        .db 00000010b   ;     #
0BDD: 3C      	        .db 00111100b   ; ####
0BDE: 00      	        .db 00000000b   ; 
              	        ;116 t
0BDF: 08      	        .db 00001000b   ;   #
0BE0: 1C      	        .db 00011100b   ;  ###
0BE1: 08      	        .db 00001000b   ;   #
0BE2: 08      	        .db 00001000b   ;   #
0BE3: 04      	        .db 00000100b   ;    #
0BE4: 00      	        .db 00000000b   ; 
              	        ;117 u
0BE5: 00      	        .db 00000000b   ; 
0BE6: 22      	        .db 00100010b   ; #   # 
0BE7: 22      	        .db 00100010b   ; #   # 
0BE8: 22      	        .db 00100010b   ; #   # 
0BE9: 1C      	        .db 00011100b   ;  ###
0BEA: 00      	        .db 00000000b   ; 
              	        ;118 v
0BEB: 00      	        .db 00000000b   ; 
0BEC: 22      	        .db 00100010b   ; #   # 
0BED: 22      	        .db 00100010b   ; #   # 
0BEE: 14      	        .db 00010100b   ;  # # 
0BEF: 08      	        .db 00001000b   ;   #
0BF0: 00      	        .db 00000000b   ; 
              	        ;119 w
0BF1: 00      	        .db 00000000b   ; 
0BF2: 22      	        .db 00100010b   ; #   # 
0BF3: 22      	        .db 00100010b   ; #   # 
0BF4: 2A      	        .db 00101010b   ; # # # 
0BF5: 36      	        .db 00110110b   ; ## ##
0BF6: 00      	        .db 00000000b   ; 
              	        ;120 x
0BF7: 00      	        .db 00000000b   ; 
0BF8: 22      	        .db 00100010b   ; #   # 
0BF9: 1C      	        .db 00011100b   ;  ###
0BFA: 1C      	        .db 00011100b   ;  ###
0BFB: 22      	        .db 00100010b   ; #   # 
0BFC: 00      	        .db 00000000b   ; 
              	        ;121 y
0BFD: 22      	        .db 00100010b   ; #   # 
0BFE: 22      	        .db 00100010b   ; #   # 
0BFF: 1E      	        .db 00011110b   ;  ####
0C00: 02      	        .db 00000010b   ;     #
0C01: 3C      	        .db 00111100b   ; ####
0C02: 00      	        .db 00000000b   ; 
              	        ;122 z
0C03: 00      	        .db 00000000b   ; 
0C04: 3C      	        .db 00111100b   ; #### 
0C05: 08      	        .db 00001000b   ;   #
0C06: 10      	        .db 00010000b   ;  #
0C07: 3C      	        .db 00111100b   ; #### 
0C08: 00      	        .db 00000000b   ; 
              	        ;123 {
0C09: 0C      	        .db 00001100b   ;   ##
0C0A: 08      	        .db 00001000b   ;   #
0C0B: 10      	        .db 00010000b   ;  #
0C0C: 08      	        .db 00001000b   ;   #
0C0D: 0C      	        .db 00001100b   ;   ##
0C0E: 00      	        .db 00000000b   ; 
              	        ;124 |
0C0F: 08      	        .db 00001000b   ;   # 
0C10: 08      	        .db 00001000b   ;   # 
0C11: 08      	        .db 00001000b   ;   # 
0C12: 08      	        .db 00001000b   ;   # 
0C13: 08      	        .db 00001000b   ;   # 
0C14: 00      	        .db 00000000b   ; 
              	        ;125 }
0C15: 18      	        .db 00011000b   ;  ##
0C16: 08      	        .db 00001000b   ;   #
0C17: 04      	        .db 00000100b   ;    #
0C18: 08      	        .db 00001000b   ;   #
0C19: 18      	        .db 00011000b   ;  ##
0C1A: 00      	        .db 00000000b   ; 
              	        ;126 ~
0C1B: 14      	        .db 00010100b   ;  # #
0C1C: 28      	        .db 00101000b   ; # #
0C1D: 00      	        .db 00000000b   ; 
0C1E: 00      	        .db 00000000b   ; 
0C1F: 00      	        .db 00000000b   ; 
0C20: 00      	        .db 00000000b   ; 
              	        ;127 
0C21: 2A      	        .db 00101010b   ; # # #
0C22: 15      	        .db 00010101b   ;  # # #
0C23: 2A      	        .db 00101010b   ; # # #
0C24: 15      	        .db 00010101b   ;  # # #
0C25: 2A      	        .db 00101010b   ; # # #
0C26: 15      	        .db 00010101b   ;  # # #
              	        ;128
0C27: 00      	        .db 00000000b   ; 
0C28: 00      	        .db 00000000b   ; 
0C29: 00      	        .db 00000000b   ; 
0C2A: 00      	        .db 00000000b   ; 
0C2B: 00      	        .db 00000000b   ; 
0C2C: 00      	        .db 00000000b   ; 
              	        ;129
0C2D: 38      	        .db 00111000b   ; ###
0C2E: 38      	        .db 00111000b   ; ###
0C2F: 38      	        .db 00111000b   ; ###
0C30: 00      	        .db 00000000b   ; 
0C31: 00      	        .db 00000000b   ; 
0C32: 00      	        .db 00000000b   ; 
              	        ;130
0C33: 07      	        .db 00000111b   ;    ###
0C34: 07      	        .db 00000111b   ;    ###
0C35: 07      	        .db 00000111b   ;    ###
0C36: 00      	        .db 00000000b   ; 
0C37: 00      	        .db 00000000b   ; 
0C38: 00      	        .db 00000000b   ; 
              	        ;131
0C39: 3F      	        .db 00111111b   ; ######
0C3A: 3F      	        .db 00111111b   ; ######
0C3B: 3F      	        .db 00111111b   ; ######
0C3C: 00      	        .db 00000000b   ; 
0C3D: 00      	        .db 00000000b   ; 
0C3E: 00      	        .db 00000000b   ; 
              	        ;132
0C3F: 00      	        .db 00000000b   ; 
0C40: 00      	        .db 00000000b   ; 
0C41: 00      	        .db 00000000b   ; 
0C42: 38      	        .db 00111000b   ; ###
0C43: 38      	        .db 00111000b   ; ###
0C44: 38      	        .db 00111000b   ; ###
              	        ;133
0C45: 38      	        .db 00111000b   ; ###
0C46: 38      	        .db 00111000b   ; ###
0C47: 38      	        .db 00111000b   ; ###
0C48: 38      	        .db 00111000b   ; ###
0C49: 38      	        .db 00111000b   ; ###
0C4A: 38      	        .db 00111000b   ; ###
              	        ;134
0C4B: 07      	        .db 00000111b   ;    ###
0C4C: 07      	        .db 00000111b   ;    ###
0C4D: 07      	        .db 00000111b   ;    ###
0C4E: 38      	        .db 00111000b   ; ###
0C4F: 38      	        .db 00111000b   ; ###
0C50: 38      	        .db 00111000b   ; ###
              	        ;135
0C51: 3F      	        .db 00111111b   ; ######
0C52: 3F      	        .db 00111111b   ; ######
0C53: 3F      	        .db 00111111b   ; ######
0C54: 38      	        .db 00111000b   ; ###
0C55: 38      	        .db 00111000b   ; ###
0C56: 38      	        .db 00111000b   ; ###
              	        ;136
0C57: 00      	        .db 00000000b   ; 
0C58: 00      	        .db 00000000b   ; 
0C59: 00      	        .db 00000000b   ; 
0C5A: 07      	        .db 00000111b   ;    ###
0C5B: 07      	        .db 00000111b   ;    ###
0C5C: 07      	        .db 00000111b   ;    ###
              	        ;137
0C5D: 38      	        .db 00111000b   ; ###
0C5E: 38      	        .db 00111000b   ; ###
0C5F: 38      	        .db 00111000b   ; ###
0C60: 07      	        .db 00000111b   ;    ###
0C61: 07      	        .db 00000111b   ;    ###
0C62: 07      	        .db 00000111b   ;    ###
              	        ;138
0C63: 07      	        .db 00000111b   ;    ###
0C64: 07      	        .db 00000111b   ;    ###
0C65: 07      	        .db 00000111b   ;    ###
0C66: 07      	        .db 00000111b   ;    ###
0C67: 07      	        .db 00000111b   ;    ###
0C68: 07      	        .db 00000111b   ;    ###
              	        ;139
0C69: 3F      	        .db 00111111b   ; ######
0C6A: 3F      	        .db 00111111b   ; ######
0C6B: 3F      	        .db 00111111b   ; ######
0C6C: 07      	        .db 00000111b   ;    ###
0C6D: 07      	        .db 00000111b   ;    ###
0C6E: 07      	        .db 00000111b   ;    ###
              	        ;140
0C6F: 00      	        .db 00000000b   ; 
0C70: 00      	        .db 00000000b   ; 
0C71: 00      	        .db 00000000b   ; 
0C72: 3F      	        .db 00111111b   ; ######
0C73: 3F      	        .db 00111111b   ; ######
0C74: 3F      	        .db 00111111b   ; ######
              	        ;141
0C75: 38      	        .db 00111000b   ; ###
0C76: 38      	        .db 00111000b   ; ###
0C77: 38      	        .db 00111000b   ; ###
0C78: 3F      	        .db 00111111b   ; ######
0C79: 3F      	        .db 00111111b   ; ######
0C7A: 3F      	        .db 00111111b   ; ######
              	        ;142
0C7B: 07      	        .db 00000111b   ;    ###
0C7C: 07      	        .db 00000111b   ;    ###
0C7D: 07      	        .db 00000111b   ;    ###
0C7E: 3F      	        .db 00111111b   ; ######
0C7F: 3F      	        .db 00111111b   ; ######
0C80: 3F      	        .db 00111111b   ; ######
              	        ;143
0C81: 3F      	        .db 00111111b   ; ######
0C82: 3F      	        .db 00111111b   ; ######
0C83: 3F      	        .db 00111111b   ; ######
0C84: 3F      	        .db 00111111b   ; ######
0C85: 3F      	        .db 00111111b   ; ######
0C86: 3F      	        .db 00111111b   ; ######
              	        ;144
0C87: 00      	        .db 00000000b   ; 
0C88: 00      	        .db 00000000b   ; 
0C89: 0C      	        .db 00001100b   ;   ##
0C8A: 0C      	        .db 00001100b   ;   ##
0C8B: 00      	        .db 00000000b   ; 
0C8C: 00      	        .db 00000000b   ; 
              	        ;145
0C8D: 0C      	        .db 00001100b   ;   ##
0C8E: 0C      	        .db 00001100b   ;   ##
0C8F: 0C      	        .db 00001100b   ;   ##
0C90: 0C      	        .db 00001100b   ;   ##
0C91: 00      	        .db 00000000b   ; 
0C92: 00      	        .db 00000000b   ; 
              	        ;146
0C93: 00      	        .db 00000000b   ; 
0C94: 00      	        .db 00000000b   ; 
0C95: 0F      	        .db 00001111b   ;   ####
0C96: 0F      	        .db 00001111b   ;   ####
0C97: 00      	        .db 00000000b   ; 
0C98: 00      	        .db 00000000b   ; 
              	        ;147
0C99: 0C      	        .db 00001100b   ;   ##
0C9A: 0C      	        .db 00001100b   ;   ##
0C9B: 0F      	        .db 00001111b   ;   ####
0C9C: 07      	        .db 00000111b   ;    ###
0C9D: 00      	        .db 00000000b   ; 
0C9E: 00      	        .db 00000000b   ; 
              	        ;148
0C9F: 00      	        .db 00000000b   ; 
0CA0: 00      	        .db 00000000b   ; 
0CA1: 0C      	        .db 00001100b   ;   ##
0CA2: 0C      	        .db 00001100b   ;   ##
0CA3: 0C      	        .db 00001100b   ;   ##
0CA4: 0C      	        .db 00001100b   ;   ##
              	        ;149
0CA5: 0C      	        .db 00001100b   ;   ##
0CA6: 0C      	        .db 00001100b   ;   ##
0CA7: 0C      	        .db 00001100b   ;   ##
0CA8: 0C      	        .db 00001100b   ;   ##
0CA9: 0C      	        .db 00001100b   ;   ##
0CAA: 0C      	        .db 00001100b   ;   ##
              	        ;150
0CAB: 00      	        .db 00000000b   ; 
0CAC: 00      	        .db 00000000b   ; 
0CAD: 07      	        .db 00000111b   ;    ###
0CAE: 0F      	        .db 00001111b   ;   ####
0CAF: 0C      	        .db 00001100b   ;   ##
0CB0: 0C      	        .db 00001100b   ;   ##
              	        ;151
0CB1: 0C      	        .db 00001100b   ;   ##
0CB2: 0C      	        .db 00001100b   ;   ##
0CB3: 0F      	        .db 00001111b   ;   ####
0CB4: 0F      	        .db 00001111b   ;   ####
0CB5: 0C      	        .db 00001100b   ;   ##
0CB6: 0C      	        .db 00001100b   ;   ##
              	        ;152
0CB7: 00      	        .db 00000000b   ; 
0CB8: 00      	        .db 00000000b   ; 
0CB9: 3C      	        .db 00111100b   ; ####
0CBA: 3C      	        .db 00111100b   ; ####
0CBB: 00      	        .db 00000000b   ; 
0CBC: 00      	        .db 00000000b   ; 
              	        ;153
0CBD: 0C      	        .db 00001100b   ;   ##
0CBE: 0C      	        .db 00001100b   ;   ##
0CBF: 3C      	        .db 00111100b   ; ####
0CC0: 38      	        .db 00111000b   ; ###
0CC1: 00      	        .db 00000000b   ; 
0CC2: 00      	        .db 00000000b   ; 
              	        ;154
0CC3: 00      	        .db 00000000b   ; 
0CC4: 00      	        .db 00000000b   ; 
0CC5: 3F      	        .db 00111111b   ; ######
0CC6: 3F      	        .db 00111111b   ; ######
0CC7: 00      	        .db 00000000b   ; 
0CC8: 00      	        .db 00000000b   ; 
              	        ;155
0CC9: 0C      	        .db 00001100b   ;   ##
0CCA: 0C      	        .db 00001100b   ;   ##
0CCB: 3F      	        .db 00111111b   ; ######
0CCC: 3F      	        .db 00111111b   ; ######
0CCD: 00      	        .db 00000000b   ; 
0CCE: 00      	        .db 00000000b   ; 
              	        ;156
0CCF: 00      	        .db 00000000b   ; 
0CD0: 00      	        .db 00000000b   ; 
0CD1: 38      	        .db 00111000b   ; ###
0CD2: 3C      	        .db 00111100b   ; ####
0CD3: 0C      	        .db 00001100b   ;   ##
0CD4: 0C      	        .db 00001100b   ;   ##
              	        ;157
0CD5: 0C      	        .db 00001100b   ;   ##
0CD6: 0C      	        .db 00001100b   ;   ##
0CD7: 3C      	        .db 00111100b   ; ####
0CD8: 3C      	        .db 00111100b   ; ####
0CD9: 0C      	        .db 00001100b   ;   ##
0CDA: 0C      	        .db 00001100b   ;   ##
              	        ;158
0CDB: 00      	        .db 00000000b   ; 
0CDC: 00      	        .db 00000000b   ; 
0CDD: 3F      	        .db 00111111b   ; ######
0CDE: 3F      	        .db 00111111b   ; ######
0CDF: 0C      	        .db 00001100b   ;   ##
0CE0: 0C      	        .db 00001100b   ;   ##
              	        ;159
0CE1: 0C      	        .db 00001100b   ;   ##
0CE2: 0C      	        .db 00001100b   ;   ##
0CE3: 3F      	        .db 00111111b   ; ######
0CE4: 3F      	        .db 00111111b   ; ######
0CE5: 0C      	        .db 00001100b   ;   ##
0CE6: 0C      	        .db 00001100b   ;   ##
              	        ;160
0CE7: 00      	        .db 00000000b   ; 
0CE8: 12      	        .db 00010010b   ;  #  #
0CE9: 00      	        .db 00000000b   ; 
0CEA: 00      	        .db 00000000b   ; 
0CEB: 12      	        .db 00010010b   ;  #  #
0CEC: 00      	        .db 00000000b   ; 
              	        ;161
0CED: 12      	        .db 00010010b   ;  #  #
0CEE: 12      	        .db 00010010b   ;  #  #
0CEF: 12      	        .db 00010010b   ;  #  #
0CF0: 12      	        .db 00010010b   ;  #  #
0CF1: 00      	        .db 00000000b   ; 
0CF2: 00      	        .db 00000000b   ; 
              	        ;162
0CF3: 00      	        .db 00000000b   ; 
0CF4: 0F      	        .db 00001111b   ;   ####
0CF5: 00      	        .db 00000000b   ; 
0CF6: 00      	        .db 00000000b   ; 
0CF7: 0F      	        .db 00001111b   ;   ####
0CF8: 00      	        .db 00000000b   ; 
              	        ;163
0CF9: 12      	        .db 00010010b   ;  #  #
0CFA: 13      	        .db 00010011b   ;  #  ##
0CFB: 10      	        .db 00010000b   ;  #
0CFC: 10      	        .db 00010000b   ;  #
0CFD: 0F      	        .db 00001111b   ;   ####
0CFE: 00      	        .db 00000000b   ; 
              	        ;164
0CFF: 00      	        .db 00000000b   ; 
0D00: 00      	        .db 00000000b   ; 
0D01: 12      	        .db 00010010b   ;  #  #
0D02: 12      	        .db 00010010b   ;  #  #
0D03: 12      	        .db 00010010b   ;  #  #
0D04: 12      	        .db 00010010b   ;  #  #
              	        ;165
0D05: 12      	        .db 00010010b   ;  #  #
0D06: 12      	        .db 00010010b   ;  #  #
0D07: 12      	        .db 00010010b   ;  #  #
0D08: 12      	        .db 00010010b   ;  #  #
0D09: 12      	        .db 00010010b   ;  #  #
0D0A: 12      	        .db 00010010b   ;  #  #
              	        ;166
0D0B: 00      	        .db 00000000b   ; 
0D0C: 0F      	        .db 00001111b   ;   ####
0D0D: 10      	        .db 00010000b   ;  #
0D0E: 10      	        .db 00010000b   ;  #
0D0F: 13      	        .db 00010011b   ;  #  ##
0D10: 12      	        .db 00010010b   ;  #  #
              	        ;167
0D11: 12      	        .db 00010010b   ;  #  #
0D12: 13      	        .db 00010011b   ;  #  ##
0D13: 10      	        .db 00010000b   ;  #
0D14: 10      	        .db 00010000b   ;  #
0D15: 13      	        .db 00010011b   ;  #  ##
0D16: 12      	        .db 00010010b   ;  #  #
              	        ;168
0D17: 00      	        .db 00000000b   ; 
0D18: 3C      	        .db 00111100b   ; ####
0D19: 00      	        .db 00000000b   ; 
0D1A: 00      	        .db 00000000b   ; 
0D1B: 3C      	        .db 00111100b   ; ####
0D1C: 00      	        .db 00000000b   ; 
              	        ;169
0D1D: 12      	        .db 00010010b   ;  #  #
0D1E: 32      	        .db 00110010b   ; ##  #
0D1F: 02      	        .db 00000010b   ;     #
0D20: 02      	        .db 00000010b   ;     #
0D21: 3C      	        .db 00111100b   ; ####
0D22: 00      	        .db 00000000b   ; 
              	        ;170
0D23: 00      	        .db 00000000b   ; 
0D24: 3F      	        .db 00111111b   ; ######
0D25: 00      	        .db 00000000b   ; 
0D26: 00      	        .db 00000000b   ; 
0D27: 3F      	        .db 00111111b   ; ######
0D28: 00      	        .db 00000000b   ; 
              	        ;171
0D29: 12      	        .db 00010010b   ;  #  #
0D2A: 33      	        .db 00110011b   ; ##  ##
0D2B: 00      	        .db 00000000b   ; 
0D2C: 00      	        .db 00000000b   ; 
0D2D: 3F      	        .db 00111111b   ; ######
0D2E: 00      	        .db 00000000b   ; 
              	        ;172
0D2F: 00      	        .db 00000000b   ; 
0D30: 3C      	        .db 00111100b   ; ####
0D31: 02      	        .db 00000010b   ;     #
0D32: 02      	        .db 00000010b   ;     #
0D33: 32      	        .db 00110010b   ; ##  #
0D34: 12      	        .db 00010010b   ;  #  #
              	        ;173
0D35: 12      	        .db 00010010b   ;  #  #
0D36: 32      	        .db 00110010b   ; ##  #
0D37: 02      	        .db 00000010b   ;     #
0D38: 02      	        .db 00000010b   ;     #
0D39: 32      	        .db 00110010b   ; ##  #
0D3A: 12      	        .db 00010010b   ;  #  #
              	        ;174
0D3B: 00      	        .db 00000000b   ; 
0D3C: 3F      	        .db 00111111b   ; ######
0D3D: 00      	        .db 00000000b   ; 
0D3E: 00      	        .db 00000000b   ; 
0D3F: 33      	        .db 00110011b   ; ##  ##
0D40: 12      	        .db 00010010b   ;  #  #
              	        ;175
0D41: 12      	        .db 00010010b   ;  #  #
0D42: 33      	        .db 00110011b   ; ##  ##
0D43: 00      	        .db 00000000b   ; 
0D44: 00      	        .db 00000000b   ; 
0D45: 33      	        .db 00110011b   ; ##  ##
0D46: 12      	        .db 00010010b   ;  #  #
              	        ;176
0D47: 0C      	        .db 00001100b   ;   ##
0D48: 18      	        .db 00011000b   ;  ##
0D49: 30      	        .db 00110000b   ; ##
0D4A: 20      	        .db 00100000b   ; #
0D4B: 00      	        .db 00000000b   ; 
0D4C: 00      	        .db 00000000b   ; 
              	        ;177
0D4D: 0C      	        .db 00001100b   ;   ##
0D4E: 06      	        .db 00000110b   ;    ##
0D4F: 03      	        .db 00000011b   ;     ##
0D50: 01      	        .db 00000001b   ;      #
0D51: 00      	        .db 00000000b   ; 
0D52: 00      	        .db 00000000b   ; 
              	        ;178
0D53: 00      	        .db 00000000b   ; 
0D54: 00      	        .db 00000000b   ; 
0D55: 01      	        .db 00000001b   ;      #
0D56: 03      	        .db 00000011b   ;     ##
0D57: 06      	        .db 00000110b   ;    ##
0D58: 0C      	        .db 00001100b   ;   ##
              	        ;179
0D59: 00      	        .db 00000000b   ; 
0D5A: 00      	        .db 00000000b   ; 
0D5B: 20      	        .db 00100000b   ; #
0D5C: 30      	        .db 00110000b   ; ##
0D5D: 18      	        .db 00011000b   ;  ##
0D5E: 0C      	        .db 00001100b   ;   ##
              	        ;180
0D5F: 0C      	        .db 00001100b   ;   ##
0D60: 1E      	        .db 00011110b   ;  ####
0D61: 33      	        .db 00110011b   ; ##  ##
0D62: 21      	        .db 00100001b   ; #    # 
0D63: 00      	        .db 00000000b   ; 
0D64: 00      	        .db 00000000b   ; 
              	        ;181
0D65: 0C      	        .db 00001100b   ;   ##
0D66: 06      	        .db 00000110b   ;    ##
0D67: 03      	        .db 00000011b   ;     ##
0D68: 03      	        .db 00000011b   ;     ##
0D69: 06      	        .db 00000110b   ;    ##
0D6A: 0C      	        .db 00001100b   ;   ##
              	        ;182
0D6B: 00      	        .db 00000000b   ; 
0D6C: 00      	        .db 00000000b   ; 
0D6D: 21      	        .db 00100001b   ; #    # 
0D6E: 33      	        .db 00110011b   ; ##  ##
0D6F: 1E      	        .db 00011110b   ;  ####
0D70: 0C      	        .db 00001100b   ;   ##
              	        ;183
0D71: 0C      	        .db 00001100b   ;   ##
0D72: 18      	        .db 00011000b   ;  ##
0D73: 30      	        .db 00110000b   ; ##
0D74: 30      	        .db 00110000b   ; ##
0D75: 18      	        .db 00011000b   ;  ##
0D76: 0C      	        .db 00001100b   ;   ##
              	        ;184
0D77: 0C      	        .db 00001100b   ;   ##
0D78: 18      	        .db 00011000b   ;  ##
0D79: 31      	        .db 00110001b   ; ##   #
0D7A: 23      	        .db 00100011b   ; #   ##
0D7B: 06      	        .db 00000110b   ;    ##
0D7C: 0C      	        .db 00001100b   ;   ##
              	        ;185
0D7D: 0C      	        .db 00001100b   ;   ##
0D7E: 06      	        .db 00000110b   ;    ##
0D7F: 23      	        .db 00100011b   ; #   ##
0D80: 31      	        .db 00110001b   ; ##   #
0D81: 18      	        .db 00011000b   ;  ##
0D82: 0C      	        .db 00001100b   ;   ##
              	        ;186
0D83: 0C      	        .db 00001100b   ;   ##
0D84: 1E      	        .db 00011110b   ;  ####
0D85: 33      	        .db 00110011b   ; ##  ##
0D86: 33      	        .db 00110011b   ; ##  ##
0D87: 1E      	        .db 00011110b   ;  ####
0D88: 0C      	        .db 00001100b   ;   ##
              	        ;187
0D89: 33      	        .db 00110011b   ; ##  ##
0D8A: 33      	        .db 00110011b   ; ##  ##
0D8B: 0C      	        .db 00001100b   ;   ##
0D8C: 0C      	        .db 00001100b   ;   ##
0D8D: 33      	        .db 00110011b   ; ##  ##
0D8E: 33      	        .db 00110011b   ; ##  ##
              	        ;188
0D8F: 03      	        .db 00000011b   ;     ##
0D90: 03      	        .db 00000011b   ;     ##
0D91: 0C      	        .db 00001100b   ;   ##
0D92: 0C      	        .db 00001100b   ;   ##
0D93: 30      	        .db 00110000b   ; ##
0D94: 30      	        .db 00110000b   ; ##
              	        ;189
0D95: 30      	        .db 00110000b   ; ##
0D96: 30      	        .db 00110000b   ; ##
0D97: 0C      	        .db 00001100b   ;   ##
0D98: 0C      	        .db 00001100b   ;   ##
0D99: 03      	        .db 00000011b   ;     ##
0D9A: 03      	        .db 00000011b   ;     ##
              	        ;190
0D9B: 2A      	        .db 00101010b   ; # # #
0D9C: 14      	        .db 00010100b   ;  # #
0D9D: 2A      	        .db 00101010b   ; # # #
0D9E: 14      	        .db 00010100b   ;  # #
0D9F: 2A      	        .db 00101010b   ; # # #
0DA0: 00      	        .db 00000000b   ; 
              	        ;191
0DA1: 14      	        .db 00010100b   ;  # #
0DA2: 2A      	        .db 00101010b   ; # # #
0DA3: 14      	        .db 00010100b   ;  # #
0DA4: 2A      	        .db 00101010b   ; # # #
0DA5: 14      	        .db 00010100b   ;  # #
0DA6: 00      	        .db 00000000b   ; 
              	        ;192
0DA7: 00      	        .db 00000000b   ; 
0DA8: 1A      	        .db 00011010b   ;  ## #
0DA9: 24      	        .db 00100100b   ; #  #
0DAA: 24      	        .db 00100100b   ; #  #
0DAB: 1A      	        .db 00011010b   ;  ## #
0DAC: 00      	        .db 00000000b   ; 
              	        ;193
0DAD: 18      	        .db 00011000b   ;  ##
0DAE: 24      	        .db 00100100b   ; #  #
0DAF: 2C      	        .db 00101100b   ; # ##
0DB0: 22      	        .db 00100010b   ; #   #
0DB1: 2C      	        .db 00101100b   ; # ##
0DB2: 00      	        .db 00000000b   ; 
              	        ;194
0DB3: 00      	        .db 00000000b   ; 
0DB4: 22      	        .db 00100010b   ; #   #
0DB5: 1C      	        .db 00011100b   ;  ###
0DB6: 22      	        .db 00100010b   ; #   #
0DB7: 1C      	        .db 00011100b   ;  ###
0DB8: 00      	        .db 00000000b   ; 
              	        ;195
0DB9: 1C      	        .db 00011100b   ;  ###
0DBA: 30      	        .db 00110000b   ; ##
0DBB: 1C      	        .db 00011100b   ;  ###
0DBC: 22      	        .db 00100010b   ; #   #
0DBD: 1C      	        .db 00011100b   ;  ### 
0DBE: 00      	        .db 00000000b   ; 
              	        ;196
0DBF: 0E      	        .db 00001110b   ;   ### 
0DC0: 30      	        .db 00110000b   ; ##
0DC1: 3C      	        .db 00111100b   ; ####
0DC2: 30      	        .db 00110000b   ; ##
0DC3: 0E      	        .db 00001110b   ;   ###
0DC4: 00      	        .db 00000000b   ; 
              	        ;197
0DC5: 1C      	        .db 00011100b   ;  ###
0DC6: 22      	        .db 00100010b   ; #   #
0DC7: 3E      	        .db 00111110b   ; #####
0DC8: 22      	        .db 00100010b   ; #   #
0DC9: 1C      	        .db 00011100b   ;  ###
0DCA: 00      	        .db 00000000b   ; 
              	        ;198
0DCB: 20      	        .db 00100000b   ; #
0DCC: 10      	        .db 00010000b   ;  #
0DCD: 08      	        .db 00001000b   ;   #
0DCE: 14      	        .db 00010100b   ;  # #
0DCF: 22      	        .db 00100010b   ; #   # 
0DD0: 00      	        .db 00000000b   ; 
              	        ;199
0DD1: 24      	        .db 00100100b   ; #  #
0DD2: 24      	        .db 00100100b   ; #  #
0DD3: 38      	        .db 00111000b   ; ###
0DD4: 20      	        .db 00100000b   ; #
0DD5: 20      	        .db 00100000b   ; # 
0DD6: 00      	        .db 00000000b   ; 
              	        ;200
0DD7: 00      	        .db 00000000b   ; 
0DD8: 3E      	        .db 00111110b   ; #####
0DD9: 14      	        .db 00010100b   ;  # #
0DDA: 14      	        .db 00010100b   ;  # #
0DDB: 24      	        .db 00100100b   ; #  #
0DDC: 00      	        .db 00000000b   ; 
              	        ;201
0DDD: 00      	        .db 00000000b   ; 
0DDE: 1E      	        .db 00011110b   ;  ####
0DDF: 34      	        .db 00110100b   ; ## #
0DE0: 34      	        .db 00110100b   ; ## #
0DE1: 18      	        .db 00011000b   ;  ##
0DE2: 00      	        .db 00000000b   ; 
              	        ;202
0DE3: 06      	        .db 00000110b   ;    ##
0DE4: 1C      	        .db 00011100b   ;  ###
0DE5: 36      	        .db 00110110b   ; ## ##
0DE6: 1C      	        .db 00011100b   ;  ###
0DE7: 30      	        .db 00110000b   ; ##
0DE8: 00      	        .db 00000000b   ; 
              	        ;203
0DE9: 06      	        .db 00000110b   ;    ##
0DEA: 04      	        .db 00000100b   ;    #
0DEB: 36      	        .db 00110110b   ; ## ##
0DEC: 1C      	        .db 00011100b   ;  ###
0DED: 30      	        .db 00110000b   ; ##
0DEE: 00      	        .db 00000000b   ; 
              	        ;204
0DEF: 32      	        .db 00110010b   ; ##  #
0DF0: 1C      	        .db 00011100b   ;  ###
0DF1: 0C      	        .db 00001100b   ;   ##
0DF2: 16      	        .db 00010110b   ;  # ##
0DF3: 22      	        .db 00100010b   ; #   #
0DF4: 00      	        .db 00000000b   ; 
              	        ;205
0DF5: 00      	        .db 00000000b   ; 
0DF6: 14      	        .db 00010100b   ;  # #
0DF7: 22      	        .db 00100010b   ; #   #
0DF8: 2A      	        .db 00101010b   ; # # #
0DF9: 1C      	        .db 00011100b   ;  ###
0DFA: 00      	        .db 00000000b   ; 
              	        ;206
0DFB: 3E      	        .db 00111110b   ; #####
0DFC: 12      	        .db 00010010b   ;  #  #
0DFD: 08      	        .db 00001000b   ;   #
0DFE: 12      	        .db 00010010b   ;  #  #
0DFF: 3E      	        .db 00111110b   ; #####
0E00: 00      	        .db 00000000b   ; 
              	        ;207
0E01: 1C      	        .db 00011100b   ;  ###
0E02: 22      	        .db 00100010b   ; #   #
0E03: 22      	        .db 00100010b   ; #   #
0E04: 14      	        .db 00010100b   ;  # #
0E05: 36      	        .db 00110110b   ; ## ##
0E06: 00      	        .db 00000000b   ; 
              	        ;208
0E07: 1C      	        .db 00011100b   ;  ###
0E08: 1C      	        .db 00011100b   ;  ###
0E09: 0A      	        .db 00001010b   ;   # #
0E0A: 1C      	        .db 00011100b   ;  ###
0E0B: 28      	        .db 00101000b   ; # #
0E0C: 08      	        .db 00001000b   ;   #
              	        ;209
0E0D: 1C      	        .db 00011100b   ;  ###
0E0E: 1C      	        .db 00011100b   ;  ###
0E0F: 28      	        .db 00101000b   ; # #
0E10: 1C      	        .db 00011100b   ;  ###
0E11: 0A      	        .db 00001010b   ;   # #
0E12: 08      	        .db 00001000b   ;   #
              	        ;210
0E13: 1C      	        .db 00011100b   ;  ###
0E14: 1C      	        .db 00011100b   ;  ###
0E15: 2A      	        .db 00101010b   ; # # #
0E16: 1C      	        .db 00011100b   ;  ###
0E17: 08      	        .db 00001000b   ;   # 
0E18: 08      	        .db 00001000b   ;   #
              	        ;211
0E19: 1C      	        .db 00011100b   ;  ###
0E1A: 1C      	        .db 00011100b   ;  ###
0E1B: 08      	        .db 00001000b   ;   # 
0E1C: 1C      	        .db 00011100b   ;  ###
0E1D: 2A      	        .db 00101010b   ; # # #
0E1E: 08      	        .db 00001000b   ;   #
              	        ;212
0E1F: 14      	        .db 00010100b   ;  # # 
0E20: 00      	        .db 00000000b   ; 
0E21: 14      	        .db 00010100b   ;  # # 
0E22: 14      	        .db 00010100b   ;  # # 
0E23: 1C      	        .db 00011100b   ;  ###
0E24: 00      	        .db 00000000b   ; 
              	        ;213
0E25: 14      	        .db 00010100b   ;  # # 
0E26: 00      	        .db 00000000b   ; 
0E27: 1C      	        .db 00011100b   ;  ###
0E28: 14      	        .db 00010100b   ;  # # 
0E29: 1C      	        .db 00011100b   ;  ###
0E2A: 00      	        .db 00000000b   ; 
              	        ;214
0E2B: 14      	        .db 00010100b   ;  # # 
0E2C: 00      	        .db 00000000b   ; 
0E2D: 1C      	        .db 00011100b   ;  ###
0E2E: 14      	        .db 00010100b   ;  # # 
0E2F: 1E      	        .db 00011110b   ;  ####
0E30: 00      	        .db 00000000b   ; 
              	        ;215
0E31: 14      	        .db 00010100b   ;  # # 
0E32: 00      	        .db 00000000b   ; 
0E33: 1C      	        .db 00011100b   ;  ###
0E34: 14      	        .db 00010100b   ;  # # 
0E35: 14      	        .db 00010100b   ;  # # 
0E36: 00      	        .db 00000000b   ; 
              	        ;216
0E37: 28      	        .db 00101000b   ; # #
0E38: 2C      	        .db 00101100b   ; # ## 
0E39: 3E      	        .db 00111110b   ; ##### 
0E3A: 0C      	        .db 00001100b   ;   ## 
0E3B: 08      	        .db 00001000b   ;   #
0E3C: 00      	        .db 00000000b   ; 
              	        ;217
0E3D: 0A      	        .db 00001010b   ;   # #
0E3E: 1A      	        .db 00011010b   ;  ## #
0E3F: 3E      	        .db 00111110b   ; #####
0E40: 18      	        .db 00011000b   ;  ## 
0E41: 08      	        .db 00001000b   ;   #
0E42: 00      	        .db 00000000b   ; 
              	        ;218
0E43: 08      	        .db 00001000b   ;   #
0E44: 1C      	        .db 00011100b   ;  ###
0E45: 08      	        .db 00001000b   ;   #
0E46: 00      	        .db 00000000b   ;  
0E47: 1C      	        .db 00011100b   ;  ###
0E48: 00      	        .db 00000000b   ;
              	        ;219
0E49: 08      	        .db 00001000b   ;   #
0E4A: 00      	        .db 00000000b   ; 
0E4B: 3E      	        .db 00111110b   ; #####
0E4C: 00      	        .db 00000000b   ;
0E4D: 08      	        .db 00001000b   ;   #
0E4E: 00      	        .db 00000000b   ;
              	        ;220
0E4F: 04      	        .db 00000100b   ;    #
0E50: 08      	        .db 00001000b   ;   # 
0E51: 10      	        .db 00010000b   ;  #
0E52: 08      	        .db 00001000b   ;   # 
0E53: 1C      	        .db 00011100b   ;  ###
0E54: 00      	        .db 00000000b   ; 
              	        ;221
0E55: 10      	        .db 00010000b   ;  #
0E56: 08      	        .db 00001000b   ;   # 
0E57: 04      	        .db 00000100b   ;    #
0E58: 08      	        .db 00001000b   ;   # 
0E59: 1C      	        .db 00011100b   ;  ###
0E5A: 00      	        .db 00000000b   ; 
              	        ;222
0E5B: 1C      	        .db 00011100b   ;  ###
0E5C: 00      	        .db 00000000b   ; 
0E5D: 1C      	        .db 00011100b   ;  ###
0E5E: 00      	        .db 00000000b   ; 
0E5F: 1C      	        .db 00011100b   ;  ###
0E60: 00      	        .db 00000000b   ; 
              	        ;223
0E61: 06      	        .db 00000110b   ;    ## 
0E62: 04      	        .db 00000100b   ;    # 
0E63: 34      	        .db 00110100b   ; ## #
0E64: 14      	        .db 00010100b   ;  # # 
0E65: 08      	        .db 00001000b   ;   # 
0E66: 00      	        .db 00000000b   ; 
              	        ;224
0E67: 1E      	        .db 00011110b   ;  #### 
0E68: 0E      	        .db 00001110b   ;   ### 
0E69: 0E      	        .db 00001110b   ;   ### 
0E6A: 12      	        .db 00010010b   ;  #  #
0E6B: 20      	        .db 00100000b   ; # 
0E6C: 00      	        .db 00000000b   ; 
              	        ;225
0E6D: 20      	        .db 00100000b   ; #
0E6E: 12      	        .db 00010010b   ;  #  #
0E6F: 0E      	        .db 00001110b   ;   ###
0E70: 0E      	        .db 00001110b   ;   ###
0E71: 1E      	        .db 00011110b   ;  ####
0E72: 00      	        .db 00000000b   ; 
              	        ;226
0E73: 02      	        .db 00000010b   ;      #
0E74: 24      	        .db 00100100b   ;  #  #
0E75: 38      	        .db 00111000b   ;  ###
0E76: 38      	        .db 00111000b   ;  ###
0E77: 3C      	        .db 00111100b   ;  #### 
0E78: 00      	        .db 00000000b   ; 
              	        ;227
0E79: 3C      	        .db 00111100b   ; ####
0E7A: 38      	        .db 00111000b   ; ###
0E7B: 38      	        .db 00111000b   ; ###
0E7C: 24      	        .db 00100100b   ; #  # 
0E7D: 02      	        .db 00000010b   ;     #
0E7E: 00      	        .db 00000000b   ; 
              	        ;228
0E7F: 3E      	        .db 00111110b   ; #####
0E80: 22      	        .db 00100010b   ; #   #
0E81: 22      	        .db 00100010b   ; #   #
0E82: 22      	        .db 00100010b   ; #   #
0E83: 3E      	        .db 00111110b   ; #####
0E84: 00      	        .db 00000000b   ; 
              	        ;229
0E85: 3E      	        .db 00111110b   ; #####
0E86: 26      	        .db 00100110b   ; #  ##
0E87: 2A      	        .db 00101010b   ; # # #
0E88: 32      	        .db 00110010b   ; ##  #
0E89: 3E      	        .db 00111110b   ; #####
0E8A: 00      	        .db 00000000b   ; 
              	        ;230
0E8B: 08      	        .db 00001000b   ;   # 
0E8C: 12      	        .db 00010010b   ;  #  #
0E8D: 24      	        .db 00100100b   ; #  #
0E8E: 12      	        .db 00010010b   ;  #  #
0E8F: 08      	        .db 00001000b   ;   # 
0E90: 00      	        .db 00000000b   ; 
              	        ;231
0E91: 08      	        .db 00001000b   ;   # 
0E92: 24      	        .db 00100100b   ; #  #
0E93: 12      	        .db 00010010b   ;  #  #
0E94: 24      	        .db 00100100b   ; #  #
0E95: 08      	        .db 00001000b   ;   # 
0E96: 00      	        .db 00000000b   ; 
              	        ;232 TEC-1G
0E97: 1D      	        .db 00011101b   ;  ### #
0E98: 08      	        .db 00001000b   ;   #
0E99: 09      	        .db 00001001b   ;   #  #
0E9A: 08      	        .db 00001000b   ;   #
0E9B: 09      	        .db 00001001b   ;   #  #
0E9C: 00      	        .db 00000000b   ; 
              	        ;233 TEC-1G
0E9D: 37      	        .db 00110111b   ; ## ###
0E9E: 04      	        .db 00000100b   ;    #
0E9F: 34      	        .db 00110100b   ; ## #
0EA0: 04      	        .db 00000100b   ;    #
0EA1: 37      	        .db 00110111b   ; ## ###
0EA2: 00      	        .db 00000000b   ; 
              	        ;234 TEC-1G
0EA3: 00      	        .db 00000000b   ; 
0EA4: 01      	        .db 00000001b   ;      #
0EA5: 1C      	        .db 00011100b   ;  ###
0EA6: 00      	        .db 00000000b   ; 
0EA7: 00      	        .db 00000000b   ; 
0EA8: 00      	        .db 00000000b   ; 
              	        ;235 TEC-1G
0EA9: 2E      	        .db 00101110b   ; # ###
0EAA: 28      	        .db 00101000b   ; # #
0EAB: 2A      	        .db 00101010b   ; # # #
0EAC: 2A      	        .db 00101010b   ; # # #
0EAD: 2E      	        .db 00101110b   ; # ###
0EAE: 00      	        .db 00000000b   ; 
              	        ;236 Z80
0EAF: 1D      	        .db 00011101b   ;  ### #
0EB0: 05      	        .db 00000101b   ;    # #
0EB1: 09      	        .db 00001001b   ;   #  #
0EB2: 11      	        .db 00010001b   ;  #   #
0EB3: 1D      	        .db 00011101b   ;  ### #
0EB4: 00      	        .db 00000000b   ; 
              	        ;237 Z80
0EB5: 37      	        .db 00110111b   ; ## ###
0EB6: 15      	        .db 00010101b   ;  # # #
0EB7: 35      	        .db 00110101b   ; ## # #
0EB8: 15      	        .db 00010101b   ;  # # #
0EB9: 37      	        .db 00110111b   ; ## ###
0EBA: 00      	        .db 00000000b   ; 
              	        ;238 CPU
0EBB: 1D      	        .db 00011101b   ;  ### #
0EBC: 11      	        .db 00010001b   ;  #   #
0EBD: 11      	        .db 00010001b   ;  #   #
0EBE: 11      	        .db 00010001b   ;  #   #
0EBF: 1D      	        .db 00011101b   ;  ### #
0EC0: 00      	        .db 00000000b   ; 
              	        ;239 CPU
0EC1: 35      	        .db 00110101b   ; ## # #
0EC2: 15      	        .db 00010101b   ;  # # #
0EC3: 35      	        .db 00110101b   ; ## # #
0EC4: 05      	        .db 00000101b   ;    # #
0EC5: 07      	        .db 00000111b   ;    ###
0EC6: 00      	        .db 00000000b   ; 
              	        ;240
0EC7: 00      	        .db 00000000b   ; 
0EC8: 00      	        .db 00000000b   ; 
0EC9: 00      	        .db 00000000b   ; 
0ECA: 00      	        .db 00000000b   ; 
0ECB: 00      	        .db 00000000b   ; 
0ECC: 00      	        .db 00000000b   ; 
              	        ;241
0ECD: 00      	        .db 00000000b   ; 
0ECE: 00      	        .db 00000000b   ; 
0ECF: 00      	        .db 00000000b   ; 
0ED0: 00      	        .db 00000000b   ; 
0ED1: 00      	        .db 00000000b   ; 
0ED2: 00      	        .db 00000000b   ; 
              	        ;242
0ED3: 00      	        .db 00000000b   ; 
0ED4: 00      	        .db 00000000b   ; 
0ED5: 00      	        .db 00000000b   ; 
0ED6: 00      	        .db 00000000b   ; 
0ED7: 00      	        .db 00000000b   ; 
0ED8: 00      	        .db 00000000b   ; 
              	        ;243
0ED9: 00      	        .db 00000000b   ; 
0EDA: 00      	        .db 00000000b   ; 
0EDB: 00      	        .db 00000000b   ; 
0EDC: 00      	        .db 00000000b   ; 
0EDD: 00      	        .db 00000000b   ; 
0EDE: 00      	        .db 00000000b   ; 
              	        ;244
0EDF: 00      	        .db 00000000b   ; 
0EE0: 00      	        .db 00000000b   ; 
0EE1: 00      	        .db 00000000b   ; 
0EE2: 00      	        .db 00000000b   ; 
0EE3: 00      	        .db 00000000b   ; 
0EE4: 00      	        .db 00000000b   ; 
              	        ;245
0EE5: 00      	        .db 00000000b   ; 
0EE6: 00      	        .db 00000000b   ; 
0EE7: 00      	        .db 00000000b   ; 
0EE8: 00      	        .db 00000000b   ; 
0EE9: 00      	        .db 00000000b   ; 
0EEA: 00      	        .db 00000000b   ; 
              	        ;246
0EEB: 00      	        .db 00000000b   ; 
0EEC: 00      	        .db 00000000b   ; 
0EED: 00      	        .db 00000000b   ; 
0EEE: 00      	        .db 00000000b   ; 
0EEF: 00      	        .db 00000000b   ; 
0EF0: 00      	        .db 00000000b   ; 
              	        ;247
0EF1: 00      	        .db 00000000b   ; 
0EF2: 00      	        .db 00000000b   ; 
0EF3: 00      	        .db 00000000b   ; 
0EF4: 00      	        .db 00000000b   ; 
0EF5: 00      	        .db 00000000b   ; 
0EF6: 00      	        .db 00000000b   ; 
              	        ;248
0EF7: 00      	        .db 00000000b   ; 
0EF8: 00      	        .db 00000000b   ; 
0EF9: 00      	        .db 00000000b   ; 
0EFA: 00      	        .db 00000000b   ; 
0EFB: 00      	        .db 00000000b   ; 
0EFC: 00      	        .db 00000000b   ; 
              	        ;249
0EFD: 00      	        .db 00000000b   ; 
0EFE: 00      	        .db 00000000b   ; 
0EFF: 00      	        .db 00000000b   ; 
0F00: 00      	        .db 00000000b   ; 
0F01: 00      	        .db 00000000b   ; 
0F02: 00      	        .db 00000000b   ; 
              	        ;250
0F03: 00      	        .db 00000000b   ; 
0F04: 00      	        .db 00000000b   ; 
0F05: 00      	        .db 00000000b   ; 
0F06: 00      	        .db 00000000b   ; 
0F07: 00      	        .db 00000000b   ; 
0F08: 00      	        .db 00000000b   ; 
              	        ;251
0F09: 00      	        .db 00000000b   ; 
0F0A: 00      	        .db 00000000b   ; 
0F0B: 00      	        .db 00000000b   ; 
0F0C: 00      	        .db 00000000b   ; 
0F0D: 00      	        .db 00000000b   ; 
0F0E: 00      	        .db 00000000b   ; 
              	        ;252
0F0F: 00      	        .db 00000000b   ; 
0F10: 00      	        .db 00000000b   ; 
0F11: 00      	        .db 00000000b   ; 
0F12: 00      	        .db 00000000b   ; 
0F13: 00      	        .db 00000000b   ; 
0F14: 00      	        .db 00000000b   ; 
              	        ;253
0F15: 00      	        .db 00000000b   ; 
0F16: 00      	        .db 00000000b   ; 
0F17: 00      	        .db 00000000b   ; 
0F18: 00      	        .db 00000000b   ; 
0F19: 00      	        .db 00000000b   ; 
0F1A: 00      	        .db 00000000b   ; 
              	        ;254
0F1B: 00      	        .db 00000000b   ; 
0F1C: 00      	        .db 00000000b   ; 
0F1D: 00      	        .db 00000000b   ; 
0F1E: 00      	        .db 00000000b   ; 
0F1F: 00      	        .db 00000000b   ; 
0F20: 00      	        .db 00000000b   ; 
              	        ;255
0F21: 00      	        .db 00000000b   ; 
0F22: 00      	        .db 00000000b   ; 
0F23: 00      	        .db 00000000b   ; 
0F24: 00      	        .db 00000000b   ; 
0F25: 00      	        .db 00000000b   ; 
0F26: 00      	        .db 00000000b   ; 
              	        ;256
0F27: 00      	        .db 00000000b   ; 
0F28: 00      	        .db 00000000b   ; 
0F29: 00      	        .db 00000000b   ; 
0F2A: 00      	        .db 00000000b   ; 
0F2B: 00      	        .db 00000000b   ; 
0F2C: 01      	        .db 00000001b   ;      #
              	#include "SERIAL.asm"
              	; Inicializa SIO/2 Serial 115200
0F2D:         	initSerial:
0F2D: 218A0F  	    LD    HL,TXDATA
0F30: 229AFB  	    LD    (PUTCH),HL ;USE THE BITBANG SERIAL TRANSMIT
0F33: 219D0F  	    LD    HL,RXDATA
0F36: 229CFB  	    LD    (GETCH),HL  ;USE THE BITBANG SERIAL RECEIVE
              	
              	
              	    ;	Initialise SIO/2 A - Onboard USB
0F39: 3E04    		LD	A,$04
0F3B: D302    		OUT	(SIOA_C),A
0F3D: 3EC4    		LD	A,$C4
0F3F: D302    		OUT	(SIOA_C),A
              	
0F41: 3E03    		LD	A,$03
0F43: D302    		OUT	(SIOA_C),A
0F45: 3EE1    		LD	A,$E1
0F47: D302    		OUT	(SIOA_C),A
              	
0F49: 3E05    		LD	A,$05
0F4B: D302    		OUT	(SIOA_C),A
0F4D: 3E68    		LD	A, $68
0F4F: D302    		OUT	(SIOA_C),A
              	
              	    ; Initialise SIO/2 B - Printer (P2 conector)
0F51: 3E04    		LD	A,$04
0F53: D303    		OUT	(SIOB_C),A
0F55: 3EC4    		LD	A,$C4
0F57: D303    		OUT	(SIOB_C),A
              	
0F59: 3E03    		LD	A,$03
0F5B: D303    		OUT	(SIOB_C),A
0F5D: 3EE1    		LD	A,$E1
0F5F: D303    		OUT	(SIOB_C),A
              	
0F61: 3E05    		LD	A,$05
0F63: D303    		OUT	(SIOB_C),A
0F65: 3E68    		LD	A, $68
0F67: D303    		OUT	(SIOB_C),A
              	
              	
              	    ; Print wellcome serial
0F69: 21B41F  	    LD HL, WELLCOME
0F6C: CD7C0F  	    CALL SNDSTR
              	
0F6F: C9      		RET
              	
              	
              	
              	;-----------------------------------
              	; OUTPUT A CHARACTER TO THE TERMINAL
              	;-----------------------------------       
0F70: DD2A9AFB	OUTCH:  LD   IX,(PUTCH)
0F74: DDE9    	       JP   (IX)
              	;------------------------------------
              	; INPUT A CHARACTER FROM THE TERMINAL
              	;------------------------------------
0F76: DD2A9CFB	INCH:  LD   IX,(GETCH)
0F7A: DDE9    	      JP   (IX)
              	
              	
              		
              	
              	;-----------------------------------------
              	; SEND AN ASCII STRING OUT THE SERIAL PORT
              	;-----------------------------------------
              	; 
              	; SENDS A ZERO TERMINATED STRING OR 
              	; 128 CHARACTERS MAX. OUT THE SERIAL PORT
              	;
              	;      ENTRY : HL = POINTER TO 00H TERMINATED STRING
              	;      EXIT  : NONE
              	;
              	;       MODIFIES : A,B,C
              	;          
0F7C: 0680    	SNDSTR: LD    B,128         ;128 CHARS MAX
0F7E: 7E      	SDMSG1: LD    A,(HL)        ;GET THE CHAR
0F7F: FE00    	       CP    00H          ;ZERO TERMINATOR?
0F81: 2806    	       JR    Z,SDMSG2      ;FOUND A ZERO TERMINATOR, EXIT  
0F83: CD700F  	       CALL  OUTCH         ;TRANSMIT THE CHAR
0F86: 23      	       INC   HL
0F87: 10F5    	       DJNZ  SDMSG1        ;128 CHARS MAX!    
0F89: C9      	SDMSG2: RET
              	
              	
              	;------------------------
              	; SERIAL A TRANSMIT ROUTINE
              	;------------------------
              	;TRANSMIT BYTE SERIALLY ON DOUT
              	;
              	; ENTRY : A = BYTE TO TRANSMIT
              	;  EXIT : NO REGISTERS MODIFIED
              	;
0F8A:         	TXDATA:		
0F8A: F5      			PUSH	AF		; Store character
0F8B: CD940F  	conoutA1:	CALL	CKSIOA		; See if SIO channel A is finished transmitting
0F8E: 28FB    			JR	Z,conoutA1	; Loop until SIO flag signals ready
0F90: F1      			POP	AF		; RETrieve character
0F91: D300    			OUT	(SIOA_D),A	; OUTput the character
0F93: C9      			RET
              	
              	
              	;------------------------------------------------------------------------------
              	; I/O status check routine
              	; Use the "primaryIO" flag to determine which port to check.
              	;------------------------------------------------------------------------------
0F94:         	CKSIOA
0F94: 97      			SUB	A
0F95: D302    			OUT 	(SIOA_C),A
0F97: DB02    			IN   	A,(SIOA_C)	; Status byte D2=TX Buff Empty, D0=RX char ready	
0F99: 0F      			RRCA			; Rotates RX status into Carry Flag,	
0F9A: CB4F    			BIT  	1,A		; Set Zero flag if still transmitting character	
0F9C: C9      	        RET
              	
              	    
              	;-----------------------
              	; SERIAL A RECEIVE ROUTINE
              	;-----------------------
              	;RECEIVE SERIAL BYTE FROM DIN
              	;
              	; ENTRY : NONE
              	;  EXIT : A= RECEIVED BYTE IF CARRY CLEAR
              	;
              	; REGISTERS MODIFIED A AND F
              	;
0F9D:         	RXDATA:	
0F9D:         	waitForChar:
              	        ; Check if there is a char in channel A
0F9D: 97      			SUB	A
0F9E: D302    			OUT 	(SIOA_C),A
0FA0: DB02    			IN   	A,(SIOA_C)	; Status byte D2=TX Buff Empty, D0=RX char ready	
0FA2: 0F      			RRCA			; Rotates RX status into Carry Flag,	
0FA3: 30F8    			JR	NC, waitForChar
0FA5: DB00    			IN	A,(SIOA_D)
0FA7: B7      			OR A ; clear carry
0FA8: C9      			RET
              	
              	
              	
              	;======================= Serial B ========================
              	;------------------------
              	; SERIAL B TRANSMIT ROUTINE
              	;------------------------
              	;TRANSMIT BYTE SERIALLY ON DOUT
              	;
              	; ENTRY : A = BYTE TO TRANSMIT
              	;  EXIT : NO REGISTERS MODIFIED
              	;
0FA9:         	TXDATA_B:		
0FA9: F5      			PUSH	AF		; Store character
0FAA: CDB30F  	conoutB1:	CALL	CKSIOB		; See if SIO channel A is finished transmitting
0FAD: 28FB    			JR	Z,conoutB1	; Loop until SIO flag signals ready
0FAF: F1      			POP	AF		; RETrieve character
0FB0: D301    			OUT	(SIOB_D),A	; OUTput the character
0FB2: C9      			RET
              	
              	
              	;------------------------------------------------------------------------------
              	; I/O status check routine
              	; Use the "primaryIO" flag to determine which port to check.
              	;------------------------------------------------------------------------------
0FB3:         	CKSIOB
0FB3: 97      			SUB	A
0FB4: D303    			OUT 	(SIOB_C),A
0FB6: DB03    			IN   	A,(SIOB_C)	; Status byte D2=TX Buff Empty, D0=RX char ready	
0FB8: 0F      			RRCA			; Rotates RX status into Carry Flag,	
0FB9: CB4F    			BIT  	1,A		; Set Zero flag if still transmitting character	
0FBB: C9      	        RET
              	
              	    
              	;-----------------------
              	; SERIAL B RECEIVE ROUTINE
              	;-----------------------
              	;RECEIVE SERIAL BYTE FROM DIN
              	;
              	; ENTRY : NONE
              	;  EXIT : A= RECEIVED BYTE IF CARRY CLEAR
              	;
              	; REGISTERS MODIFIED A AND F
              	;
0FBC:         	RXDATA_B:	
0FBC:         	waitForCharB:
              	        ; Check if there is a char in channel A
0FBC: 97      			SUB	A
0FBD: D303    			OUT 	(SIOB_C),A
0FBF: DB03    			IN   	A,(SIOB_C)	; Status byte D2=TX Buff Empty, D0=RX char ready	
0FC1: 0F      			RRCA			; Rotates RX status into Carry Flag,	
0FC2: 30F8    			JR	NC, waitForCharB
0FC4: DB01    			IN	A,(SIOB_D)
0FC6: B7      			OR A ; clear carry
0FC7: C9      			RET
              	
              	#include "COMANDOS.asm"
              	
              	; -------- Constantes gerais --------
000D:         	CR          EQU  0DH
000A:         	LF          EQU  0AH
0008:         	BkS          EQU  08H
007F:         	DEL         EQU  7FH
001B:         	ESC         EQU  1BH
0020:         	SPACE       EQU  20H
0000:         	NUL         EQU  00H
              	
              	
              	
              	; ============================================================
              	;  PARSE_CMD  -  Analisa LINEBUF e despacha comando
              	; ============================================================
0FC8:         	PARSE_CMD:
0FC8: 21A0FB  	            LD   HL, LINEBUF
0FCB: CDD512  	            CALL SKIP_SPACES
              	            ; Verifica linha vazia
0FCE: 7E      	            LD   A, (HL)
0FCF: FE0D    	            CP   CR
0FD1: C8      	            RET  Z
0FD2: FE00    	            CP   NUL
0FD4: C8      	            RET  Z
              	
              	            ; Copia token do comando para comparação (uppercase)
0FD5: CD4113  	            CALL UPCASE_TOKEN        ; HL aponta após token, DE=token
              	
              	            ; Compara com cada comando conhecido
0FD8: 211110  	            LD   HL, CMD_TABLE
0FDB:         	CMD_SCAN:
0FDB: 7E      	            LD   A, (HL)
0FDC: FE00    	            CP   NUL
0FDE: CA0A10  	            JP   Z, CMD_UNKNOWN
              	            ; Compara string
0FE1: E5      	            PUSH HL
0FE2: 11F0FB  	            LD   DE, HEXBUF          ; token gravado aqui por UPCASE_TOKEN
0FE5: CD6613  	            CALL STRCMP
0FE8: E1      	            POP  HL
0FE9: 280B    	            JR   Z, CMD_DISPATCH
              	            ; Avança para próxima entrada da tabela
              	            ; Formato: [str NUL] [addr 2 bytes]
0FEB:         	SKIP_ENTRY:
0FEB: 7E      	            LD   A, (HL)
0FEC: 23      	            INC  HL
0FED: FE00    	            CP   NUL
0FEF: 20FA    	            JR   NZ, SKIP_ENTRY
0FF1: 23      	            INC  HL                  ; pula high byte do endereço
0FF2: 23      	            INC  HL                  ; pula low  byte do endereço
0FF3: C3DB0F  	            JP   CMD_SCAN
              	
0FF6:         	CMD_DISPATCH:
              	            ; Pula string do nome para chegar ao endereço
0FF6: 7E      	            LD   A, (HL)
0FF7: 23      	            INC  HL
0FF8: FE00    	            CP   NUL
0FFA: 20FA    	            JR   NZ, CMD_DISPATCH
              	            ; (HL) = low byte do handler, (HL+1) = high byte
0FFC: 7E      	            LD   A, (HL)
0FFD: 23      	            INC  HL
0FFE: 66      	            LD   H, (HL)
0FFF: 6F      	            LD   L, A
              	            ; HL = endereço do handler; HL aponta para resto da linha
              	            ; Precisamos salvar o ponteiro de argumento
              	            ; Reposiciona ponteiro de argumento
1000: 11A0FB  	            LD   DE, LINEBUF		 ; Inicio o buffer
1003: CDCE12  	            CALL SKIP_COMMAND_DE	 ; pula comando e DE aponta para o primeiro espaço
1006: CDDC12  	            CALL SKIP_SPACES_DE      ; DE aponta para args
1009: E9      	            JP   (HL)                ; chama handler
              	
100A:         	CMD_UNKNOWN:
100A: 219B13  	            LD   HL, MSG_UNKNOWN
100D: CD8403  	            CALL PUTS
1010: C9      	            RET
              	
              	; -------- Tabela de comandos --------
1011:         	CMD_TABLE:
1011: 434C5300	            DB   "CLS",  NUL
1015: BC10    	            DW   CLS_CMD
1017: 44554D50	            DB   "DUMP", NUL
101B: 00      	
101C: C210    	            DW   DUMP_CMD
101E: 57524954	            DB   "WRITE", NUL
1022: 4500    	
1024: 0411    	            DW   LOAD_CMD
1026: 45444954	            DB   "EDIT", NUL
102A: 00      	
102B: 5811    	            DW   EDIT_CMD
102D: 4F555400	            DB   "OUT",  NUL
1031: AD11    	            DW   OUT_CMD
1033: 494E00  	            DB   "IN",   NUL
1036: CB11    	            DW   IN_CMD
1038: 4A554D50	            DB   "JUMP",    NUL
103C: 00      	
103D: E111    	            DW   GO_CMD
103F: 43414C4C	            DB   "CALL",    NUL
1043: 00      	
1044: EE11    	            DW   CALL_CMD
1046: 4800    	            DB   "H",    NUL
1048: FF11    	            DW   HELP_CMD
104A: 3F00    	            DB   "?",    NUL
104C: FF11    	            DW   HELP_CMD
104E: 49484558	            DB   "IHEX",    NUL
1052: 00      	
1053: B110    	            DW   LOAD_HEX_CMD
1055: 4932434C	            DB   "I2CLIST",    NUL
1059: 49535400	
105D: 2D18    	            DW   I2CLIST
105F: 44495200	            DB   "DIR",    NUL
1063: E318    	            DW   FS_DIR
1065: 45584543	            DB   "EXEC",    NUL
1069: 00      	
106A: C91A    	            DW   FS_EXEC
106C: 53415645	            DB   "SAVE",    NUL
1070: 00      	
1071: 031A    	            DW   FS_SAVE
1073: 44454C00	            DB   "DEL",    NUL
1077: FA1A    	            DW   FS_ERASE
1079: 464F524D	            DB   "FORMAT",    NUL
107D: 415400  	
1080: 591B    	            DW   FS_FORMAT
1082: 4C4F4144	            DB   "LOAD",    NUL
1086: 00      	
1087: 6219    	            DW   FS_LOAD_CMD
1089: 42415349	            DB   "BASIC",    NUL
108D: 4300    	
108F: 0060    	            DW   COLD
1091: 57424153	            DB   "WBASIC",    NUL
1095: 494300  	
1098: 0360    	            DW   WARM
109A: 413A00  	            DB   "A:",    NUL
109D: A510    	            DW   CHANGE_DRIVE_A
109F: 423A00  	            DB   "B:",    NUL
10A2: AB10    	            DW   CHANGE_DRIVE_B
              	
10A4: 00      	            DB   NUL                 ; fim da tabela
              	
              	
              	; ============================================================
              	;  CHANGE_DRIVE_A  -  Altera drive para device A - EEDRIVE_A
              	; ============================================================
10A5:         	CHANGE_DRIVE_A:
10A5: 3EA0    	    LD A, EEDRIVE_A
10A7: 32FDFB  	    LD (I2CA_BLOCK), A
10AA: C9      	    RET
              	
              	; ============================================================
              	;  CHANGE_DRIVE_B  -  Altera drive para device B - EEDRIVE_B
              	; ============================================================
10AB:         	CHANGE_DRIVE_B:
10AB: 3EAE    	    LD A, EEDRIVE_B
10AD: 32FDFB  	    LD (I2CA_BLOCK), A
10B0: C9      	    RET
              	
              	; ============================================================
              	;  LOAD_HEX_CMD  -  Carrega intel hex pela porta serial
              	; ============================================================
10B1:         	LOAD_HEX_CMD;
10B1: CD5115  	    CALL loadInit
10B4: C9      	    RET
              	
              	; ============================================================
              	;  CALL_8000  - Atalho - Call 8000H
              	; ============================================================
10B5:         	CALL_8000:
10B5: 114F02  	    LD DE, MAIN_LOOP ; endereço de retorno do CALL
10B8: D5      	    PUSH DE
10B9: C30080  	    JP  $8000
              	
              	
              	; ============================================================
              	;  CLS_CMD  -  Limpa tela via sequência ANSI
              	; ============================================================
10BC:         	CLS_CMD:
10BC: 3E0C    	            LD A, 0CH ; FF
10BE: CDDF06  	            CALL sendCharToLCD
10C1: C9      	            RET
              	
              	; ============================================================
              	;  DUMP_CMD  -  Dump hex+ASCII
              	;  Sintaxe: DUMP xxxx
              	; ============================================================
10C2:         	DUMP_CMD:
              	            ; DE aponta para argumentos
10C2: CD3613  	            CALL PARSE_HEX16_DE      ; HL = endereço
10C5: 3836    	            JR   C, DUMP_BAD_ADDR
10C7: 22F6FB  	            LD   (ADDR_TMP), HL
              	
10CA: 0608    	            LD   B, 8               ; 8 linhas de 5 bytes
              	
10CC:         	DUMP_LINE:
10CC: C5      	            PUSH BC
              	            ; Exibe endereço
10CD: 2AF6FB  	            LD   HL, (ADDR_TMP)
10D0: CD8D13  	            CALL PRINT_HEX16
10D3: 3E3A    	            LD   A, ':'
10D5: CD7803  	            CALL PUTCHAR
10D8: 3E20    	            LD   A, SPACE
10DA: CD7803  	            CALL PUTCHAR
              	
              	            ; Exibe 16 bytes hex
10DD: 2AF6FB  	            LD   HL, (ADDR_TMP)
10E0: 0E05    	            LD   C, 5
10E2:         	DUMP_HEX:
10E2: 7E      	            LD   A, (HL)
10E3: CD7213  	            CALL PRINT_HEX8
10E6: 3E20    	            LD   A, SPACE
10E8: CD7803  	            CALL PUTCHAR
10EB: 23      	            INC  HL
10EC: 0D      	            DEC  C
10ED: 20F3    	            JR   NZ, DUMP_HEX
              	
              	            ;CALL CRLF
              	            ; Avança endereço base
10EF: 2AF6FB  	            LD   HL, (ADDR_TMP)
10F2: 110500  	            LD   DE, 5
10F5: 19      	            ADD  HL, DE
10F6: 22F6FB  	            LD   (ADDR_TMP), HL
10F9: C1      	            POP  BC
10FA: 10D0    	            DJNZ DUMP_LINE
10FC: C9      	            RET
              	
10FD:         	DUMP_BAD_ADDR:
10FD: 21BC13  	            LD   HL, MSG_BAD_ADDR
1100: CD8403  	            CALL PUTS
1103: C9      	            RET
              	
              	; ============================================================
              	;  LOAD_CMD  -  Carrega bytes hex em endereço
              	;  Sintaxe: LOAD xxxx
              	;  Digitar pares hex separados por espaço; linha vazia encerra
              	; ============================================================
1104:         	LOAD_CMD:
1104: CD3613  	            CALL PARSE_HEX16_DE
1107: 3848    	            JR   C, LOAD_BAD
1109: 22F6FB  	            LD   (ADDR_TMP), HL
110C: 21E613  	            LD   HL, MSG_LOAD_HINT
110F: CD8403  	            CALL PUTS
              	
1112:         	LOAD_LOOP:
              	            ; Exibe endereço atual
1112: 2AF6FB  	            LD   HL, (ADDR_TMP)
1115: CD8D13  	            CALL PRINT_HEX16
1118: 3E3A    	            LD   A, ':'
111A: CD7803  	            CALL PUTCHAR
111D: 3E20    	            LD   A, SPACE
111F: CD7803  	            CALL PUTCHAR
              	
1122: CD7712  	            CALL GETLINE             ; Lê linha
1125: 21A0FB  	            LD   HL, LINEBUF
1128: CDD512  	            CALL SKIP_SPACES
              	
              	            ; Linha vazia = fim
112B: 7E      	            LD   A, (HL)
112C: FE0D    	            CP   CR
112E: C8      	            RET  Z
112F: FE00    	            CP   NUL
1131: C8      	            RET  Z
              	
              	            ; Processa pares hex na linha
1132:         	LOAD_BYTE:
1132: CD0413  	            CALL PARSE_HEX8_HL       ; A = byte, HL avança
1135: 3818    	            JR   C, LOAD_NEXT_LINE
              	            ; Grava byte
1137: ED5BF6FB	            LD   DE, (ADDR_TMP)
113B: 12      	            LD   (DE), A
113C: 13      	            INC  DE
113D: ED53F6FB	            LD   (ADDR_TMP), DE
1141: CDE312  	            CALL SKIP_SPACES_HL
1144: 7E      	            LD   A, (HL)
1145: FE0D    	            CP   CR
1147: 28C9    	            JR   Z, LOAD_LOOP
1149: FE00    	            CP   NUL
114B: 28C5    	            JR   Z, LOAD_LOOP
114D: 18E3    	            JR   LOAD_BYTE
              	
114F:         	LOAD_NEXT_LINE:
114F: 18C1    	            JR   LOAD_LOOP
              	
1151:         	LOAD_BAD:
1151: 21BC13  	            LD   HL, MSG_BAD_ADDR
1154: CD8403  	            CALL PUTS
1157: C9      	            RET
              	
              	; ============================================================
              	;  EDIT_CMD  -  Edita memória byte a byte
              	;  Sintaxe: EDIT xxxx
              	;  Exibe: XXXX: AA  _  (digitar novo valor ou Enter p/ manter)
              	;  '.' encerra
              	; ============================================================
1158:         	EDIT_CMD:
1158: CD3613  	            CALL PARSE_HEX16_DE
115B: 3849    	            JR   C, EDIT_BAD
115D: 22F6FB  	            LD   (ADDR_TMP), HL
              	
1160:         	EDIT_LOOP:
1160: 2AF6FB  	            LD   HL, (ADDR_TMP)
1163: CD8D13  	            CALL PRINT_HEX16
1166: 3E3A    	            LD   A, ':'
1168: CD7803  	            CALL PUTCHAR
116B: 3E20    	            LD   A, SPACE
116D: CD7803  	            CALL PUTCHAR
1170: 7E      	            LD   A, (HL)             ; Valor atual
1171: CD7213  	            CALL PRINT_HEX8
1174: 3E20    	            LD   A, SPACE
1176: CD7803  	            CALL PUTCHAR
1179: 3E20    	            LD   A, SPACE
117B: CD7803  	            CALL PUTCHAR
              	
              	            ; Lê até 3 chars (2 hex + CR)
117E: CD7712  	            CALL GETLINE
1181: 21A0FB  	            LD   HL, LINEBUF
1184: CDD512  	            CALL SKIP_SPACES
              	
1187: 7E      	            LD   A, (HL)
1188: FE2E    	            CP   '.'                 ; '.' = sair
118A: C8      	            RET  Z
118B: FE0D    	            CP   CR
118D: 280E    	            JR   Z, EDIT_KEEP       ; Enter = mantém byte
118F: FE00    	            CP   NUL
1191: 280A    	            JR   Z, EDIT_KEEP
              	
              	            ; Tenta parsear novo byte
1193: CD0413  	            CALL PARSE_HEX8_HL
1196: 38C8    	            JR   C, EDIT_LOOP       ; Hex inválido: repete
              	
              	            ; Grava novo byte
1198: ED5BF6FB	            LD   DE, (ADDR_TMP)
119C: 12      	            LD   (DE), A
              	
119D:         	EDIT_KEEP:
119D: 2AF6FB  	            LD   HL, (ADDR_TMP)
11A0: 23      	            INC  HL
11A1: 22F6FB  	            LD   (ADDR_TMP), HL
11A4: 18BA    	            JR   EDIT_LOOP
              	
11A6:         	EDIT_BAD:
11A6: 21BC13  	            LD   HL, MSG_BAD_ADDR
11A9: CD8403  	            CALL PUTS
11AC: C9      	            RET
              	
              	; ============================================================
              	;  OUT_CMD  -  Escreve byte em porta de I/O
              	;  Sintaxe: OUT pp dd   (porta pp, dado dd, ambos em hex)
              	; ============================================================
11AD:         	OUT_CMD:
              	            ; DE → argumentos
11AD: CD1D13  	            CALL PARSE_HEX8_DE       ; A = número da porta
11B0: 3812    	            JR   C, OUT_BAD
11B2: 4F      	            LD   C, A                ; C = porta
              	
11B3: CDDC12  	            CALL SKIP_SPACES_DE
11B6: CD1D13  	            CALL PARSE_HEX8_DE       ; A = dado
11B9: 3809    	            JR   C, OUT_BAD
              	
              	            ; OUT (C), A
11BB: ED79    	            OUT  (C), A
11BD: 21E213  	            LD   HL, MSG_OK
11C0: CD8403  	            CALL PUTS
11C3: C9      	            RET
              	
11C4:         	OUT_BAD:
11C4: 21D013  	            LD   HL, MSG_SYNTAX
11C7: CD8403  	            CALL PUTS
11CA: C9      	            RET
              	
              	; ============================================================
              	;  IN_CMD  -  Lê byte de porta de I/O
              	;  Sintaxe: IN pp
              	; ============================================================
11CB:         	IN_CMD:
11CB: CD1D13  	            CALL PARSE_HEX8_DE
11CE: 380A    	            JR   C, IN_BAD
11D0: 4F      	            LD   C, A
11D1: ED78    	            IN   A, (C)
11D3: CD7213  	            CALL PRINT_HEX8
11D6: CD9403  	            CALL CRLF
11D9: C9      	            RET
              	
11DA:         	IN_BAD:
11DA: 21D013  	            LD   HL, MSG_SYNTAX
11DD: CD8403  	            CALL PUTS
11E0: C9      	            RET
              	
              	; ============================================================
              	;  GO_CMD  -  Executa código a partir de endereço
              	;  Sintaxe: G xxxx
              	; ============================================================
11E1:         	GO_CMD:
11E1: CD3613  	            CALL PARSE_HEX16_DE
11E4: 3801    	            JR   C, GO_BAD
11E6: E9      	            JP   (HL)                ; Salta para endereço
              	
11E7:         	GO_BAD:
11E7: 21BC13  	            LD   HL, MSG_BAD_ADDR
11EA: CD8403  	            CALL PUTS
11ED: C9      	            RET
              	
              	
              	; ============================================================
              	;  CALL_CMD  -  Executa código a partir de endereço
              	;  Sintaxe: CALL xxxx
              	; ============================================================
11EE:         	CALL_CMD:
11EE: CD3613  	            CALL PARSE_HEX16_DE
11F1: 3805    	            JR   C, CALL_BAD
11F3: 114F02  	            LD DE, MAIN_LOOP ; endereço de retorno do CALL
11F6: D5      	            PUSH DE
11F7: E9      	            JP   (HL)                ; Salta para endereço
              	
11F8:         	CALL_BAD:
11F8: 21BC13  	            LD   HL, MSG_BAD_ADDR
11FB: CD8403  	            CALL PUTS
11FE: C9      	            RET
              	
              	
              	; ============================================================
              	;  HELP_CMD  -  Exibe ajuda
              	; ============================================================
11FF:         	HELP_CMD:
11FF: 111E14  	            LD   DE, MSG_HELP_L0
1202: CD4F07  	            CALL sendStringToLCD
              	
1205: 112814  	            LD   DE, MSG_HELP_L1
1208: CD4F07  	            CALL sendStringToLCD
              	
120B: 112F14  	            LD   DE, MSG_HELP_L2
120E: CD4F07  	            CALL sendStringToLCD
              	
1211: 113414  	            LD   DE, MSG_HELP_L3
1214: CD4F07  	            CALL sendStringToLCD
              	
1217: 113F14  	            LD   DE, MSG_HELP_L4
121A: CD4F07  	            CALL sendStringToLCD
              	
121D: 114B14  	            LD   DE, MSG_HELP_L5
1220: CD4F07  	            CALL sendStringToLCD
              	
1223: 115614  	            LD   DE, MSG_HELP_L6
1226: CD4F07  	            CALL sendStringToLCD
              	
1229: 116114  	            LD   DE, MSG_HELP_L7
122C: CD4F07  	            CALL sendStringToLCD
              	
122F: 116914  	            LD   DE, MSG_HELP_L8
1232: CD4F07  	            CALL sendStringToLCD
              	
1235: 117414  	            LD   DE, MSG_HELP_L9
1238: CD4F07  	            CALL sendStringToLCD
              	
123B: 117F14  	            LD   DE, MSG_HELP_L10
123E: CD4F07  	            CALL sendStringToLCD
              	
1241: 118C14  	            LD   DE, MSG_HELP_L11
1244: CD4F07  	            CALL sendStringToLCD
              	
1247: 11A014  	            LD   DE, MSG_HELP_L12
124A: CD4F07  	            CALL sendStringToLCD
              	
124D: 11B514  	            LD   DE, MSG_HELP_L13
1250: CD4F07  	            CALL sendStringToLCD
              	
1253: 11C714  	            LD   DE, MSG_HELP_L14
1256: CD4F07  	            CALL sendStringToLCD
              	
1259: 11D914  	            LD   DE, MSG_HELP_L15
125C: CD4F07  	            CALL sendStringToLCD
              	
125F: 11EB14  	            LD   DE, MSG_HELP_L16
1262: CD4F07  	            CALL sendStringToLCD
              	
1265: 11FE14  	            LD   DE, MSG_HELP_L17
1268: CD4F07  	            CALL sendStringToLCD
              	
126B: 111615  	            LD   DE, MSG_HELP_L18
126E: CD4F07  	            CALL sendStringToLCD
1271: C9      	            RET
              	
              	
1272:         	LCD_SCROLL:
1272: CD7803  	    CALL PUTCHAR
1275: 1805    	    JR GETLINE_LOOP
              	
              	
              	; --- GETLINE: Lê linha para LINEBUF; eco local ---
              	;     Termina em CR. Suporta BS/DEL para apagar.
1277:         	GETLINE:
1277: 21A0FB  	            LD   HL, LINEBUF
127A: 064F    	            LD   B, 79               ; Máx 79 chars + NUL
127C:         	GETLINE_LOOP:
127C: CDAA02  	            CALL CONIN
127F: FE0D    	            CP   CR
1281: 2845    	            JR   Z, GETLINE_DONE
1283: FEF8    	            CP   $F8    ; ignora scroll up - GLCD
1285: 28EB    	            JR   Z, LCD_SCROLL
1287: FEF7    	            CP   $F7    ; ignora scroll down - GLCD
1289: 28E7    	            JR   Z, LCD_SCROLL
128B: FE0A    	            CP   LF
128D: 28ED    	            JR   Z, GETLINE_LOOP    ; Ignora LF
128F: FE08    	            CP   BkS
1291: 281D    	            JR   Z, GETLINE_BS
1293: FE7F    	            CP   DEL
1295: 2819    	            JR   Z, GETLINE_BS
1297: FEFA    	            CP   $FA ; AltGr
1299: CA7E15  	            JP   Z, CALL_IHEX
129C: FEF9    	            CP   $F9 ; LUZ
129E: CAB510  	            JP   Z, CALL_8000
12A1: 4F      	            LD   C, A
12A2: 78      	            LD   A, B
12A3: FE00    	            CP   0
12A5: 28D5    	            JR   Z, GETLINE_LOOP    ; Buffer cheio
12A7: 79      	            LD   A, C
12A8: 77      	            LD   (HL), A
12A9: 23      	            INC  HL
12AA: 05      	            DEC  B
12AB: CD7803  	            CALL PUTCHAR             ; Eco
12AE: 18CC    	            JR   GETLINE_LOOP
12B0:         	GETLINE_BS:
12B0: 78      	            LD   A, B
12B1: FE4F    	            CP   79
12B3: 28C7    	            JR   Z, GETLINE_LOOP    ; Início: ignora BS
12B5: 2B      	            DEC  HL
12B6: 04      	            INC  B
12B7: 3E08    	            LD   A, BkS
12B9: CD7803  	            CALL PUTCHAR
12BC: 3E20    	            LD   A, SPACE
12BE: CD7803  	            CALL PUTCHAR
12C1: 3E08    	            LD   A, BkS
12C3: CD7803  	            CALL PUTCHAR
12C6: 18B4    	            JR   GETLINE_LOOP
12C8:         	GETLINE_DONE:
12C8: 3600    	            LD   (HL), NUL           ; Termina string
12CA: CD9403  	            CALL CRLF
12CD: C9      	            RET
              	
              	; ============================================================
              	;  SUBROTINAS DE PARSE
              	; ============================================================
              	; --- SKIP_COMMAND_DE: Avança DE até o proximo espaço ---
12CE:         	SKIP_COMMAND_DE:
12CE: 1A      				LD A, (DE)
12CF: FE20    				CP SPACE
12D1: C8      				RET Z
12D2: 13      				INC DE
12D3: 18F9    				JR SKIP_COMMAND_DE
              	
              	
              	; --- SKIP_SPACES: Avança HL sobre espaços ---
12D5:         	SKIP_SPACES:
12D5: 7E      	            LD   A, (HL)
12D6: FE20    	            CP   SPACE
12D8: C0      	            RET  NZ
12D9: 23      	            INC  HL
12DA: 18F9    	            JR   SKIP_SPACES
              	
              	; --- SKIP_SPACES_DE: Avança DE sobre espaços ---
12DC:         	SKIP_SPACES_DE:
12DC: 1A      	            LD   A, (DE)
12DD: FE20    	            CP   SPACE
12DF: C0      	            RET  NZ
12E0: 13      	            INC  DE
12E1: 18F9    	            JR   SKIP_SPACES_DE
              	
              	; --- SKIP_SPACES_HL: Avança HL sobre espaços ---
12E3:         	SKIP_SPACES_HL:
12E3: 7E      	            LD   A, (HL)
12E4: FE20    	            CP   SPACE
12E6: C0      	            RET  NZ
12E7: 23      	            INC  HL
12E8: 18F9    	            JR   SKIP_SPACES_HL
              	
              	; --- IS_HEX: testa se A é dígito hex; retorna dígito em A (0-15), CY se inválido ---
12EA:         	IS_HEX:
12EA: FE30    	            CP   '0'
12EC: 3814    	            JR   C, IS_HEX_BAD
12EE: FE3A    	            CP   '9'+1
12F0: 380D    	            JR   C, IS_HEX_DIG      ; '0'-'9'
12F2: E6DF    	            AND  0DFH               ; Uppercase
12F4: FE41    	            CP   'A'
12F6: 380A    	            JR   C, IS_HEX_BAD
12F8: FE47    	            CP   'F'+1
12FA: 3006    	            JR   NC, IS_HEX_BAD
12FC: D637    	            SUB  'A'-10             ; 'A'→10 ... 'F'→15
12FE: C9      	            RET
12FF:         	IS_HEX_DIG:
12FF: D630    	            SUB  '0'
1301: C9      	            RET
1302:         	IS_HEX_BAD:
1302: 37      	            SCF
1303: C9      	            RET
              	
              	; --- PARSE_HEX8_HL: parseia 2 dígitos hex em (HL), resultado em A; HL avança 2 ---
              	;     Carry = erro
1304:         	PARSE_HEX8_HL:
1304: 7E      	            LD   A, (HL)
1305: CDEA12  	            CALL IS_HEX
1308: D8      	            RET  C
1309: 0F      	            RRCA
130A: 0F      	            RRCA
130B: 0F      	            RRCA
130C: 0F      	            RRCA
130D: E6F0    	            AND  0F0H
130F: 47      	            LD   B, A
1310: 23      	            INC  HL
1311: 7E      	            LD   A, (HL)
1312: CDEA12  	            CALL IS_HEX
1315: 3803    	            JR   C, PHX8_ERR
1317: B0      	            OR   B
1318: 23      	            INC  HL
1319: C9      	            RET
131A:         	PHX8_ERR:
131A: 2B      	            DEC  HL
131B: 37      	            SCF
131C: C9      	            RET
              	
              	; --- PARSE_HEX8_DE: igual mas com DE ---
131D:         	PARSE_HEX8_DE:
131D: 1A      	            LD   A, (DE)
131E: CDEA12  	            CALL IS_HEX
1321: D8      	            RET  C
1322: 0F      	            RRCA
1323: 0F      	            RRCA
1324: 0F      	            RRCA
1325: 0F      	            RRCA
1326: E6F0    	            AND  0F0H
1328: 47      	            LD   B, A
1329: 13      	            INC  DE
132A: 1A      	            LD   A, (DE)
132B: CDEA12  	            CALL IS_HEX
132E: 3803    	            JR   C, PHX8D_ERR
1330: B0      	            OR   B
1331: 13      	            INC  DE
1332: C9      	            RET
1333:         	PHX8D_ERR:
1333: 1B      	            DEC  DE
1334: 37      	            SCF
1335: C9      	            RET
              	
              	; --- PARSE_HEX16_DE: parseia 4 dígitos hex em (DE), resultado em HL; DE avança 4 ---
1336:         	PARSE_HEX16_DE:
1336: CD1D13  	            CALL PARSE_HEX8_DE
1339: D8      	            RET  C
133A: 67      	            LD   H, A
133B: CD1D13  	            CALL PARSE_HEX8_DE
133E: D8      	            RET  C
133F: 6F      	            LD   L, A
1340: C9      	            RET
              	
              	; --- UPCASE_TOKEN: copia token de (HL) em maiúscula para HEXBUF; HL avança após token ---
1341:         	UPCASE_TOKEN:
1341: 11F0FB  	            LD   DE, HEXBUF
1344: 060A    	            LD   B, 10
1346:         	UPCASE_LOOP:
1346: 7E      	            LD   A, (HL)
1347: FE20    	            CP   SPACE
1349: 2817    	            JR   Z, UPCASE_DONE
134B: FE0D    	            CP   CR
134D: 2813    	            JR   Z, UPCASE_DONE
134F: FE00    	            CP   NUL
1351: 280F    	            JR   Z, UPCASE_DONE
1353: FE61    	            CP   'a'
1355: 3806    	            JR   C, UPCASE_STORE
1357: FE7B    	            CP   'z'+1
1359: 3002    	            JR   NC, UPCASE_STORE
135B: E6DF    	            AND  0DFH               ; Converte para maiúscula
135D:         	UPCASE_STORE:
135D: 12      	            LD   (DE), A
135E: 23      	            INC  HL
135F: 13      	            INC  DE
1360: 10E4    	            DJNZ UPCASE_LOOP
1362:         	UPCASE_DONE:
1362: 3E00    	            LD   A, NUL
1364: 12      	            LD   (DE), A
1365: C9      	            RET
              	
              	; --- STRCMP: compara (HL) com (DE), Z=1 se iguais ---
1366:         	STRCMP:
1366: 7E      	            LD   A, (HL)
1367: 47      	            LD   B, A
1368: 1A      	            LD   A, (DE)
1369: B8      	            CP   B
136A: C0      	            RET  NZ
136B: FE00    	            CP   NUL
136D: C8      	            RET  Z
136E: 23      	            INC  HL
136F: 13      	            INC  DE
1370: 18F4    	            JR   STRCMP
              	
              	; ============================================================
              	;  SUBROTINAS DE SAÍDA HEX
              	; ============================================================
              	
              	; --- PRINT_HEX8: Imprime byte em A como 2 dígitos hex ---
1372:         	PRINT_HEX8:
1372: F5      	            PUSH AF
1373: 0F      	            RRCA
1374: 0F      	            RRCA
1375: 0F      	            RRCA
1376: 0F      	            RRCA
1377: CD7F13  	            CALL PRINT_NIBBLE
137A: F1      	            POP  AF
137B: CD7F13  	            CALL PRINT_NIBBLE
137E: C9      	            RET
              	
137F:         	PRINT_NIBBLE:
137F: E60F    	            AND  0FH
1381: C630    	            ADD  A, '0'
1383: FE3A    	            CP   '9'+1
1385: 3802    	            JR   C, PN_DONE
1387: C607    	            ADD  A, 07H              ; 'A'-'9'-1
1389:         	PN_DONE:
1389: CD7803  	            CALL PUTCHAR
138C: C9      	            RET
              	
              	; --- PRINT_HEX16: Imprime HL como 4 dígitos hex ---
138D:         	PRINT_HEX16:
138D: 7C      	            LD   A, H
138E: CD7213  	            CALL PRINT_HEX8
1391: 7D      	            LD   A, L
1392: CD7213  	            CALL PRINT_HEX8
1395: C9      	            RET
              	
              	; ============================================================
              	;  STRINGS
              	; ============================================================
              	
1396:         	MSG_PROMPT:
1396: 0D0A3E20	            DB   CR, LF, "> ", NUL
139A: 00      	
              	
139B:         	MSG_UNKNOWN:
139B: 436F6D61	            DB   "Comando desconhecido. Digite H.", CR, NUL
139F: 6E646F20	
13A3: 64657363	
13A7: 6F6E6865	
13AB: 6369646F	
13AF: 2E204469	
13B3: 67697465	
13B7: 20482E0D	
13BB: 00      	
              	
13BC:         	MSG_BAD_ADDR:
13BC: 456E6465	            DB   "Endereco invalido.", CR, NUL
13C0: 7265636F	
13C4: 20696E76	
13C8: 616C6964	
13CC: 6F2E0D00	
              	
13D0:         	MSG_SYNTAX:
13D0: 4572726F	            DB   "Erro de sintaxe.", CR, NUL
13D4: 20646520	
13D8: 73696E74	
13DC: 6178652E	
13E0: 0D00    	
              	
13E2:         	MSG_OK:
13E2: 4F4B0D00	            DB   "OK", CR, NUL
              	
13E6:         	MSG_LOAD_HINT:
13E6: 44696769	            DB   "Digite bytes hex por linha. Linha vazia para encerrar.", CR, NUL
13EA: 74652062	
13EE: 79746573	
13F2: 20686578	
13F6: 20706F72	
13FA: 206C696E	
13FE: 68612E20	
1402: 4C696E68	
1406: 61207661	
140A: 7A696120	
140E: 70617261	
1412: 20656E63	
1416: 65727261	
141A: 722E0D00	
              	
141E: 436F6D61	MSG_HELP_L0:    DB   "Comandos:", CR
1422: 6E646F73	
1426: 3A0D    	
1428: 2048202F	MSG_HELP_L1:    DB   " H / ?", CR
142C: 203F0D  	
142F: 20434C53	MSG_HELP_L2:    DB   " CLS", CR
1433: 0D      	
1434: 2044554D	MSG_HELP_L3:    DB   " DUMP xxxx", CR
1438: 50207878	
143C: 78780D  	
143F: 20575249	MSG_HELP_L4:    DB   " WRITE xxxx", CR
1443: 54452078	
1447: 7878780D	
144B: 20454449	MSG_HELP_L5:    DB   " EDIT xxxx", CR
144F: 54207878	
1453: 78780D  	
1456: 204F5554	MSG_HELP_L6:    DB   " OUT pp dd", CR
145A: 20707020	
145E: 64640D  	
1461: 20494E20	MSG_HELP_L7:    DB   " IN  pp", CR
1465: 2070700D	
1469: 204A554D	MSG_HELP_L8:    DB   " JUMP xxxx", CR
146D: 50207878	
1471: 78780D  	
1474: 2043414C	MSG_HELP_L9:    DB   " CALL xxxx", CR
1478: 4C207878	
147C: 78780D  	
147F: 202E2028	MSG_HELP_L10:   DB   " . (no EDIT)", CR
1483: 6E6F2045	
1487: 44495429	
148B: 0D      	
148C: 20494845	MSG_HELP_L11:   DB   " IHEX - Load Serial", CR
1490: 58202D20	
1494: 4C6F6164	
1498: 20536572	
149C: 69616C0D	
14A0: 20493243	MSG_HELP_L12:   DB   " I2CLIST - List Devs", CR
14A4: 4C495354	
14A8: 202D204C	
14AC: 69737420	
14B0: 44657673	
14B4: 0D      	
14B5: 20444952	MSG_HELP_L13:   DB   " DIR - List files", CR
14B9: 202D204C	
14BD: 69737420	
14C1: 66696C65	
14C5: 730D    	
14C7: 20455845	MSG_HELP_L14:   DB   " EXEC - Exec file", CR
14CB: 43202D20	
14CF: 45786563	
14D3: 2066696C	
14D7: 650D    	
14D9: 20534156	MSG_HELP_L15:   DB   " SAVE - Save file", CR
14DD: 45202D20	
14E1: 53617665	
14E5: 2066696C	
14E9: 650D    	
14EB: 2044454C	MSG_HELP_L16:   DB   " DEL - Delete file", CR
14EF: 202D2044	
14F3: 656C6574	
14F7: 65206669	
14FB: 6C650D  	
14FE: 20464F52	MSG_HELP_L17:   DB   " FORMAT - Format eeprom", CR
1502: 4D415420	
1506: 2D20466F	
150A: 726D6174	
150E: 20656570	
1512: 726F6D0D	
1516: 204C4F41	MSG_HELP_L18:   DB   " LOAD - Load file", CR
151A: 44202D20	
151E: 4C6F6164	
1522: 2066696C	
1526: 650D    	
1528: 20424153	MSG_HELP_L19:   DB   " BASIC - Cold basic", CR
152C: 4943202D	
1530: 20436F6C	
1534: 64206261	
1538: 7369630D	
153C: 20574241	MSG_HELP_L20:   DB   " WBASIC - Warm basic", CR
1540: 53494320	
1544: 2D205761	
1548: 726D2062	
154C: 61736963	
1550: 0D      	
              	#include "IHEX.asm"
              	
              	
1551:         	loadInit:
1551: 3EFF    	    LD A, $FF
1553: 32F8FB  	    LD (LOAD_FIRST_FLAG), A
              	
1556: 211517  	    LD HL, MSG_LOAD_HELP
1559: CDB616  	    CALL SERIAL_A_PRINT_STRING
              	
155C: 111717  	    LD DE, MSG_LOAD_HELP_LCD
155F: CD4F07  	    CALL sendStringToLCD
              	
1562:         	loopHexLoad:
1562: CD9D0F  	    CALL RXDATA
              	
1565: FE3A    	    CP   ':'	; ":"?
1567: 20F9    		JR   NZ, loopHexLoad ; Aguarda :
              	
              	    ; Só inicializa o flag se for a primeira linha do carregamento
1569: 3AF8FB  		LD   A, (LOAD_FIRST_FLAG)
156C: FEFF    		CP   $FF                    ; $FF = virgem / sessão nova
156E: 2005    		JR   NZ, monitor_do_load    ; já está no meio de um carregamento
1570: 3E01    		LD   A, $01
1572: 32F8FB  		LD   (LOAD_FIRST_FLAG), A   ; sinaliza: próximo LOAD é o primeiro
              	
1575:         	monitor_do_load:
1575: CD8615  		CALL    LOAD
1578: CDBF16  		CALL SERIAL_A_TXCRLF
157B: C36215  	    JP loopHexLoad
              	
              	
157E:         	CALL_IHEX:
157E: 214F02  		LD HL, MAIN_LOOP
1581: E5      		PUSH HL
1582: CD5115  		CALL loadInit
1585: C9      		RET
              	
              	;------------------------------------------------------------------------------
              	; LOAD Intel Hex format file from the console.
              	; [Intel Hex Format is:
              	; 1) Colon (Frame 0)
              	; 2) Record Length Field (Frames 1 and 2)
              	; 3) Load Address Field (Frames 3,4,5,6)
              	; 4) Record Type Field (Frames 7 and 8)
              	; 5) Data Field (Frames 9 to 9+2*(Record Length)-1
              	; 6) Checksum Field - Sum of all byte values from Record Length to and 
              	;   including Checksum Field = 0 ]
              	;------------------------------------------------------------------------------	
1586:         	LOAD:
1586: 1E00    			LD   E,0	        ; Zera checksum
1588: CD6416  			CALL GET2	        ; Record Length -> D
158B: 57      			LD   D,A
158C: CD6416  			CALL GET2	        ; Endereco High -> H
158F: 67      			LD   H,A
1590: CD6416  			CALL GET2	        ; Endereco Low -> L
1593: 6F      			LD   L,A
1594: CD6416  			CALL GET2	        ; Record Type -> A
1597: FE01    			CP   $01	        ; EOF record?
1599: 2009    			JR   NZ,LOAD2	    ; Nao: processa dados
              	
              			; --- Record tipo 01: EOF ---
159B: CD6416  			CALL GET2	        ; Consome checksum do EOF
159E: 7B      			LD   A,E
159F: A7      			AND  A
15A0: 2839    			JR   Z,LOAD00       ; Checksum OK: imprime resumo
15A2: 1829    			JR   LOADERR        ; Checksum falhou
              	
              			; --- Record tipo 00: Dados ---
15A4:         	LOAD2:
              			; Salva endereco inicial apenas na primeira linha
15A4: 3AF8FB  			LD   A, (LOAD_FIRST_FLAG)
15A7: FE01    			CP   $01                    ; e a primeira linha?
15A9: 2008    			JR   NZ, LOAD2_SKIP
15AB: 3E00    			LD   A, $00
15AD: 32F8FB  			LD   (LOAD_FIRST_FLAG), A   ; limpa flag
15B0: 22F9FB  			LD   (LOAD_START_ADDR), HL  ; salva endereco inicial
              	
15B3:         	LOAD2_SKIP:
15B3: 7A      			LD   A,D	        ; Contador de bytes da linha
15B4: A7      			AND  A
15B5: 280D    			JR   Z,LOAD3
              	
15B7: CD6416  			CALL GET2	        ; Le proximo byte
15BA: 77      			LD   (HL),A	        ; Grava na memoria
15BB: 23      			INC  HL
15BC: 3E2E    			LD   A,'.'
15BE: CD700F  			CALL OUTCH
15C1: 15      			DEC  D
15C2: 18EF    			JR   LOAD2_SKIP     ; (continua pelo loop sem re-checar o flag)
              	
15C4:         	LOAD3:
15C4: 22FBFB  			LD   (LOAD_END_ADDR), HL    ; Atualiza endereco final (apos ultimo byte)
15C7: CD6416  			CALL GET2	                ; Consome checksum da linha
15CA: 7B      			LD   A,E
15CB: A7      			AND  A
15CC: C8      			RET  Z                      ; Checksum OK: volta pro monitor
              	
15CD:         	LOADERR:
15CD: 21CA16  			LD   HL,CKSUMERR
15D0: CDB616  			CALL SERIAL_A_PRINT_STRING
              	
              	        ;LCD
15D3: 11CA16  	        LD   DE, CKSUMERR
15D6: CD4F07  	        CALL sendStringToLCD
              	
15D9: E1      	        POP HL
              	
15DA: C9      			RET
              	
15DB:         	LOAD00:
              			; --- Imprime resumo do carregamento ---
15DB: 21DB16  			LD   HL, LDETXT
15DE: CDB616  			CALL SERIAL_A_PRINT_STRING
              	
15E1: 21FA16  			LD   HL, msg_load_start
15E4: CDB616  			CALL SERIAL_A_PRINT_STRING
15E7: 2AF9FB  			LD   HL, (LOAD_START_ADDR)
15EA: CD8E16  			CALL SERIAL_A_PRINT_HL_HEX
15ED: CDBF16  			CALL SERIAL_A_TXCRLF
              	
15F0: 210317  			LD   HL, msg_load_end
15F3: CDB616  			CALL SERIAL_A_PRINT_STRING
15F6: 2AFBFB  			LD   HL, (LOAD_END_ADDR)
15F9: 2B      			DEC  HL                     ; aponta para o ultimo byte gravado
15FA: CD8E16  			CALL SERIAL_A_PRINT_HL_HEX
15FD: CDBF16  			CALL SERIAL_A_TXCRLF
              	
1600: 210C17  			LD   HL, msg_load_total
1603: CDB616  			CALL SERIAL_A_PRINT_STRING
1606: ED5BF9FB			LD   DE, (LOAD_START_ADDR)
160A: 2AFBFB  			LD   HL, (LOAD_END_ADDR)
160D: B7      			OR   A                      ; limpa carry flag
160E: ED52    			SBC  HL, DE                 ; HL = total de bytes
1610: CD8E16  			CALL SERIAL_A_PRINT_HL_HEX
1613: CDBF16  			CALL SERIAL_A_TXCRLF
              	
              	        ; Mostra status no lcd
1616: 11F416  	        LD   DE, LDETXTLCD
1619: CD4F07  	        CALL sendStringToLCD
              	
161C: 11FA16  	        LD   DE, msg_load_start
161F: 3E00    	        LD   A, 0
1621: CD4F07  			CALL sendStringToLCD
1624: 2AF9FB  			LD   HL, (LOAD_START_ADDR)
1627: CD9307  			CALL sendHLToLCD
162A: CD9403  			CALL CRLF
              	
162D: 110317  			LD   DE, msg_load_end
1630: 3E00    	        LD   A, 0
1632: CD4F07  			CALL sendStringToLCD
1635: 2AFBFB  			LD   HL, (LOAD_END_ADDR)
1638: 2B      			DEC  HL                     ; aponta para o ultimo byte gravado
1639: CD9307  			CALL sendHLToLCD
163C: CD9403  			CALL CRLF
              	
163F: 110C17  			LD   DE, msg_load_total
1642: 3E00    	        LD   A, 0
1644: CD4F07  			CALL sendStringToLCD
1647: ED5BF9FB			LD   DE, (LOAD_START_ADDR)
164B: 2AFBFB  			LD   HL, (LOAD_END_ADDR)
164E: B7      			OR   A                      ; limpa carry flag
164F: ED52    			SBC  HL, DE                 ; HL = total de bytes
1651: CD9307  			CALL sendHLToLCD
              	
1654: CD9403  	        CALL CRLF
              	
1657: E1      	        POP HL 
1658: C9      			RET
              	
              	
              	
              	
              	;------------------------------------------------------------------------------
              	; Get a character from the console, must be $20-$7F to be valid (no control characters)
              	; <Ctrl-c> and <SPACE> breaks with the Zero Flag set
              	;------------------------------------------------------------------------------	
1659: CD760F  	GETCHR_S:	CALL INCH	; RX a Character
165C: FE03    			CP   $03	; <ctrl-c> User break?
165E: C8      			RET  Z			
165F: FE20    			CP   $20	; <space> or better?
1661: 38F6    			JR   C,GETCHR_S	; Do it again until we get something usable
1663: C9      			RET
              	
              	;------------------------------------------------------------------------------
              	; Gets two ASCII characters from the console (assuming them to be HEX 0-9 A-F)
              	; Moves them into B and C, converts them into a byte value in A and updates a
              	; Checksum value in E
              	;------------------------------------------------------------------------------
1664: CD5916  	GET2:   CALL GETCHR_S	; Get us a valid character to work with
1667: 47      			LD   B,A	; Load it in B
1668: CD5916  			CALL GETCHR_S	; Get us another character
166B: 4F      			LD   C,A	; load it in C
166C: CD7516  			CALL BCTOA	; Convert ASCII to byte
166F: 4F      			LD   C,A	; Build the checksum
1670: 7B      			LD   A,E
1671: 91      			SUB  C		; The checksum should always equal zero when checked
1672: 5F      			LD   E,A	; Save the checksum back where it came from
1673: 79      			LD   A,C	; Retrieve the byte and go back
1674: C9      			RET
              	
              	;------------------------------------------------------------------------------
              	; Convert ASCII characters in B C registers to a byte value in A
              	;------------------------------------------------------------------------------
1675: 78      	BCTOA		LD   A,B	; Move the hi order byte to A
1676: D630    			SUB  $30	; Take it down from Ascii
1678: FE0A    			CP   $0A	; Are we in the 0-9 range here?
167A: 3802    			JR   C,BCTOA1	; If so, get the next nybble
167C: D607    			SUB  $07	; But if A-F, take it down some more
167E: 07      	BCTOA1		RLCA		; Rotate the nybble from low to high
167F: 07      			RLCA		; One bit at a time
1680: 07      			RLCA		; Until we
1681: 07      			RLCA		; Get there with it
1682: 47      			LD   B,A	; Save the converted high nybble
1683: 79      			LD   A,C	; Now get the low order byte
1684: D630    			SUB  $30	; Convert it down from Ascii
1686: FE0A    			CP   $0A	; 0-9 at this point?
1688: 3802    			JR   C,BCTOA2	; Good enough then, but
168A: D607    			SUB  $07	; Take off 7 more if it's A-F
168C: 80      	BCTOA2		ADD  A,B	; Add in the high order nybble
168D: C9      			RET
              	
              	;------------------------------------------------------------------------------
              	; Imprime HL como 4 digitos hexadecimais
              	; Ex: HL=$80FF -> imprime "80FF"
              	;------------------------------------------------------------------------------
168E:         	SERIAL_A_PRINT_HL_HEX:
168E: 7C      			LD   A, H
168F: CD9716  			CALL SERIAL_A_PRINT_A_HEX
1692: 7D      			LD   A, L
1693: CD9716  			CALL SERIAL_A_PRINT_A_HEX
1696: C9      			RET
              	
              	
              	;------------------------------------------------------------------------------
              	; Imprime byte em A como 2 digitos hexadecimais
              	;------------------------------------------------------------------------------
1697:         	SERIAL_A_PRINT_A_HEX:
1697: F5      			PUSH AF
1698: 0F      			RRCA
1699: 0F      			RRCA
169A: 0F      			RRCA
169B: 0F      			RRCA
169C: CDA416  			CALL SERIAL_A_PRINT_NIBBLE
169F: F1      			POP  AF
16A0: CDA416  			CALL SERIAL_A_PRINT_NIBBLE
16A3: C9      			RET
              	
16A4:         	SERIAL_A_PRINT_NIBBLE:
16A4: E60F    			AND  $0F
16A6: FE0A    			CP   $0A
16A8: 3806    			JR   C, SERIAL_A_PRINT_NIBBLE_09
16AA: C637    			ADD  A, $37             ; A-F  ('A'=41h, 41h-0Ah=37h)
16AC: CD700F  			CALL OUTCH
16AF: C9      			RET
16B0:         	SERIAL_A_PRINT_NIBBLE_09:
16B0: C630    			ADD  A, $30             ; 0-9
16B2: CD700F  			CALL OUTCH
16B5: C9      			RET
              	
              	
              	;------------------------------------------------------------------------------
              	; Print string of characters to Serial A until byte=$00, WITH CR, LF
              	;------------------------------------------------------------------------------
16B6:         	SERIAL_A_PRINT_STRING:
16B6: 7E      	        LD   A,(HL)	; Get character
16B7: B7      			OR   A		; Is it $00 ?
16B8: C8      			RET  Z		; Then RETurn on terminator
16B9: CD700F  			CALL OUTCH	; Print it
16BC: 23      			INC  HL		; Next Character
16BD: 18F7    			JR   SERIAL_A_PRINT_STRING	; Continue until $00
              	
16BF: 3E0D    	SERIAL_A_TXCRLF:	LD   A,$0D	; 
16C1: CD700F  			CALL OUTCH	; Print character 
16C4: 3E0A    			LD   A,$0A	; 
16C6: CD700F  			CALL OUTCH	; Print character
16C9: C9      			RET
              	
              	
              	
16CA:         	CKSUMERR:
16CA: 43686563			.db	"Checksum error"
16CE: 6B73756D	
16D2: 20657272	
16D6: 6F72    	
16D8: 0D0A00  			.db	CR, LF,$00
              	
16DB:         	LDETXT:
16DB: 43617272			.db	"Carregamento completo."
16DF: 6567616D	
16E3: 656E746F	
16E7: 20636F6D	
16EB: 706C6574	
16EF: 6F2E    	
16F1: 0D0A00  			.db	CR, LF, $00
              	
16F4:         	LDETXTLCD:
16F4: 4F4B2E2E			.db	"OK..."
16F8: 2E      	
16F9: 0D      			.db	CR
              	
              	
16FA:         	msg_load_start:
16FA: 496E6963			.db	"Inicio: "
16FE: 696F3A20	
1702: 00      			.db	$00
              	
1703:         	msg_load_end:
1703: 46696D3A			.db	"Fim:    "
1707: 20202020	
170B: 00      			.db	$00
              	
170C:         	msg_load_total:
170C: 546F7461			.db	"Total:  "
1710: 6C3A2020	
1714: 00      			.db	$00
              	
1715: 0D0A    	MSG_LOAD_HELP:          .db	CR, LF
1717: 41677561	MSG_LOAD_HELP_LCD:		.db	"Aguardando envio...", CR, LF
171B: 7264616E	
171F: 646F2065	
1723: 6E76696F	
1727: 2E2E2E0D	
172B: 0A      	
172C: 3A6E6E6E			                .db	":nnnnnn...  - Load Intel-Hex file record", CR, LF, $00
1730: 6E6E6E2E	
1734: 2E2E2020	
1738: 2D204C6F	
173C: 61642049	
1740: 6E74656C	
1744: 2D486578	
1748: 2066696C	
174C: 65207265	
1750: 636F7264	
1754: 0D0A00  	
              	#include "I2C.asm"
              	; **********************************************************************
              	; I2C support functions
              	
              	; I2C bus open device
              	;   On entry: A = Device address (bit zero is read flag)
              	;             SCL = unknown, SDA = unknown
              	;   On exit:  If successfully A = 0 and Z flagged
              	;             If unsuccessfully A = Error and NZ flagged
              	;             BC DE HL IX IY preserved
1757: F5      	I2C_Open:   PUSH AF
1758: CDCB17  	            CALL I2C_Start      ;Output start condition
175B: F1      	            POP  AF
175C: 1803    	            JR   I2C_Write      ;Write data byte
              	
              	
              	; I2C bus close device
              	;   On entry: SCL = unknown, SDA = unknown
              	;   On exit:  If successfully A=0 and Z flagged
              	;             If unsuccessfully A=Error and NZ flagged
              	;             SCL = hi, SDA = hi
              	;             BC DE HL IX IY preserved
175E: C3D617  	I2C_Close:  JP   I2C_Stop       ;Output stop condition
              	
              	
              	; **********************************************************************
              	; **********************************************************************
              	; I2C bus master driver
              	; **********************************************************************
              	; **********************************************************************
              	
              	; Functions provided are:
              	;     I2C_Start
              	;     I2C_Stop
              	;     I2C_Read
              	;     I2C_Write
              	;
              	; This code has delays between all I/O operations to ensure it works
              	; with the slowest I2C devices
              	;
              	; I2C transfer sequence
              	;   +-------+  +---------+  +---------+     +---------+  +-------+
              	;   | Start |  | Address |  | Data    | ... | Data    |  | Stop  |
              	;   |       |  | frame   |  | frame 1 |     | frame N |  |       |
              	;   +-------+  +---------+  +---------+     +---------+  +-------+
              	;
              	;
              	; Start condition                     Stop condition
              	; Output by master device             Output by master device
              	;       ----+                                      +----
              	; SDA       |                         SDA          |
              	;           +-------                        -------+
              	;       -------+                                +-------
              	; SCL          |                      SCL       |
              	;              +----                        ----+
              	;
              	;
              	; Address frame
              	; Clock and data output from master device
              	; Receiving device outputs acknowledge 
              	;        +-----+-----+-----+-----+-----+-----+-----+-----+     +---+
              	; SDA    | A 7 | A 6 | A 5 | A 4 | A 3 | A 2 | A 1 | R/W | ACK |   |
              	;     ---+-----+-----+-----+-----+-----+-----+-----+-----+-----+   +---
              	;          +-+   +-+   +-+   +-+   +-+   +-+   +-+   +-+   +-+
              	; SCL      | |   | |   | |   | |   | |   | |   | |   | |   | |
              	;     -----+ +---+ +---+ +---+ +---+ +---+ +---+ +---+ +---+ +---------
              	;
              	;
              	; Data frame 
              	; Clock output by master device
              	; Data output by transmitting device
              	; Receiving device outputs acknowledge 
              	;        +-----+-----+-----+-----+-----+-----+-----+-----+     +---+
              	; SDA    | D 7 | D 6 | D 5 | D 4 | D 3 | D 2 | D 1 | D 0 | ACK |   |
              	;     ---+-----+-----+-----+-----+-----+-----+-----+-----+-----+   +---
              	;          +-+   +-+   +-+   +-+   +-+   +-+   +-+   +-+   +-+
              	; SCL      | |   | |   | |   | |   | |   | |   | |   | |   | |
              	;     -----+ +---+ +---+ +---+ +---+ +---+ +---+ +---+ +---+ +---------
              	;
              	
              	
              	; **********************************************************************
              	; I2C constants
              	
              	
              	; I2C bus master interface
              	; The default device option is for SC126 or compatible
              	
0021:         	I2C_PORT:   .EQU $21           ;Host I2C port address
0007:         	I2C_SDA_WR: .EQU 7              ;Host I2C write SDA bit number
0007:         	I2C_SDA_RD: .EQU 7              ;Host I2C read SDA bit number
0000:         	I2C_SCL_WR: .EQU 0              ;Host I2C write SCL bit number
0000:         	I2C_SCL_RD: .EQU 0              ;Host I2C read SCL bit number 
0081:         	I2C_QUIES:  .EQU 0b10000001     ;Host I2C output port quiescent value
              	
              	
              	; I2C support constants
0000:         	ERR_NONE:   .EQU 0              ;Error = None
0001:         	ERR_JAM:    .EQU 1              ;Error = Bus jammed [not used]
0002:         	ERR_NOACK:  .EQU 2              ;Error = No ackonowledge
0003:         	ERR_TOUT:   .EQU 3              ;Error = Timeout
              	
              	
              	; **********************************************************************
              	; Hardware dependent I2C bus functions
              	
              	
              	; I2C bus transmit frame (address or data)
              	;   On entry: A = Data byte, or
              	;                 Address byte (bit zero is read flag)
              	;             SCL = low, SDA = low
              	;   On exit:  If successful A=0 and Z flagged
              	;                SCL = lo, SDA = lo
              	;             If unsuccessful A=Error and NZ flagged
              	;                SCL = high, SDA = high, I2C closed
              	;             BC DE HL IX IY preserved
1761: C5      	I2C_Write:  PUSH BC             ;Preserve registers
1762: D5      	            PUSH DE
1763: 57      	            LD   D,A            ;Store byte to be written
1764: 0608    	            LD   B,8            ;8 data bits, bit 7 first
1766: CB12    	I2C_WriteWr_Loop:   RL   D              ;Test M.S.Bit
1768: 3805    	            JR   C,I2C_WriteBit_Hi      ;High, so skip
176A: CDFD17  	            CALL I2C_SDA_LO     ;SDA low   (SCL lo, SDA = data bit)
176D: 1803    	            JR   I2C_WriteBit_Clk
176F: CDF617  	I2C_WriteBit_Hi:    CALL I2C_SDA_HI     ;SDA high  (SCL lo, SDA = data bit)
1772: CDE817  	I2C_WriteBit_Clk:   CALL I2C_SCL_HI     ;SCL high  (SCL hi, SDA = data bit)
1775: CDEF17  	            CALL I2C_SCL_LO     ;SCL low   (SCL lo, SDA = data bit)
1778: 10EC    	            DJNZ I2C_WriteWr_Loop
              	; Test for acknowledge from slave (receiver)
              	; On arriving here, SCL = lo, SDA = data bit
177A: CDF617  	            CALL I2C_SDA_HI     ;SDA high  (SCL lo, SDA hi/ack)
177D: CDE817  	            CALL I2C_SCL_HI     ;SCL high  (SCL hi, SDA hi/ack)
1780: CD0E18  	            CALL I2C_RdPort     ;Read SDA input
1783: 47      	            LD   B,A
1784: CDEF17  	            CALL I2C_SCL_LO     ;SCL low   (SCL lo, SDA = hi)
1787: CB78    	            BIT  I2C_SDA_RD,B
1789: 2004    	            JR   NZ,I2C_WriteNoAck      ;Skip if no acknowledge
178B: D1      	            POP  DE             ;Restore registers
178C: C1      	            POP  BC
178D: AF      	            XOR  A              ;Return success A=0 and Z flagged
178E: C9      	            RET
              	; I2C STOP required as no acknowledge
              	; On arriving here, SCL = lo, SDA = hi
178F: CDFD17  	I2C_WriteNoAck:     CALL I2C_SDA_LO     ;SDA low   (SCL lo, SDA = lo)
1792: CDE817  	            CALL I2C_SCL_HI     ;SCL high  (SCL hi, SDA = lo)
1795: CDF617  	            CALL I2C_SDA_HI     ;SDA low   (SCL hi, SDA = hi)
1798: D1      	            POP  DE             ;Restore registers
1799: C1      	            POP  BC
179A: 3E02    	            LD   A,ERR_NOACK    ;Return error = No Acknowledge
179C: B7      	            OR   A              ;  and NZ flagged
179D: C9      	            RET
              	
              	
              	; I2C bus receive frame (data)
              	;   On entry: A = Acknowledge flag
              	;               If A != 0 the read is acknowledged
              	;             SCL low, SDA low
              	;   On exit:  If successful A = data byte and Z flagged
              	;               SCL = low, SDA = low
              	;             If unsuccessul* A = Error and NZ flagged
              	;               SCL = low, SDA = low
              	;             BC DE HL IX IY preserved
              	; *This function always returns successful
179E: C5      	I2C_Read:   PUSH BC             ;Preserve registers
179F: D5      	            PUSH DE
17A0: 5F      	            LD   E,A            ;Store acknowledge flag
17A1: 0608    	            LD   B,8            ;8 data bits, 7 first
17A3: CDF617  	            CALL I2C_SDA_HI     ;SDA high  (SCL lo, SDA hi/input)
17A6: CDE817  	I2C_ReadRd_Loop:   CALL I2C_SCL_HI     ;SCL high  (SCL hi, SDA hi/input)
17A9: CD0E18  	            CALL I2C_RdPort     ;Read SDA input bit
17AC: 37      	            SCF                 ;Set carry flag
17AD: CB7F    	            BIT  I2C_SDA_RD,A   ;SDA input high?
17AF: 2001    	            JR   NZ, I2C_ReadRotate     ;Yes, skip with carry flag set
17B1: 3F      	            CCF                 ;Clear carry flag
17B2: CB12    	I2C_ReadRotate:    RL   D              ;Rotate result into D
17B4: CDEF17  	            CALL I2C_SCL_LO     ;SCL low   (SCL lo, SDA hi/input)
17B7: 10ED    	            DJNZ  I2C_ReadRd_Loop       ;Repeat for all 8 bits
              	; Acknowledge input byte
              	; On arriving here, SCL = lo, SDA = hi/input
17B9: 7B      	            LD   A,E            ;Get acknowledge flag
17BA: B7      	            OR   A              ;A = 0? (indicates no acknowledge)
17BB: 2803    	            JR   Z, I2C_ReadNoAck       ;Yes, so skip acknowledge
17BD: CDFD17  	            CALL I2C_SDA_LO     ;SDA low   (SCL lo, SDA lo)
17C0: CDE817  	I2C_ReadNoAck:     CALL I2C_SCL_HI     ;SCL hi    (SCL hi, SDA lo)
17C3: CDEF17  	            CALL I2C_SCL_LO     ;SCL low   (SCL lo, SDA lo)
17C6: 7A      	            LD   A,D            ;Get data byte received
17C7: D1      	            POP  DE             ;Restore registers
17C8: C1      	            POP  BC
17C9: BF      	            CP   A              ;Return success Z flagged
17CA: C9      	            RET
              	
              	
              	; I2C bus start
              	;   On entry: SCL = unknown, SDA = unknown
              	;   On exit:  SCL = low, SDA = low
              	;             A = 0 and Z flagged as we always succeed
              	;             BC DE HL IX IY preserved
              	; First ensure SDA and SCL are high
17CB: CDE417  	I2C_Start:  CALL I2C_INIT       ;Initialise I2C control port
              	;           CALL I2C_SCL_HI     ;SCL high  (SCL hi, SDA ??)
              	;           CALL I2C_SDA_HI     ;SDA high  (SCL hi, SDA hi)
              	; Generate I2C start condition
17CE: CDFD17  	            CALL I2C_SDA_LO     ;SDA low   (SCL hi, SDA lo)
17D1: CDEF17  	            CALL I2C_SCL_LO     ;SCL low   (SCL lo, SDA lo)
17D4: AF      	            XOR  A              ;Return success A=0 and Z flagged
17D5: C9      	            RET
              	
              	
              	; I2C bus stop 
              	;   On entry: SCL = unknown, SDA = unknown
              	;   On exit:  SCL = high, SDA = high
              	;             A = 0 and Z flagged as we always succeed
              	;             BC DE HL IX IY preserved
              	; First ensure SDA and SCL are low
17D6: CDFD17  	I2C_Stop:   CALL I2C_SDA_LO     ;SDA low   (SCL hi, SDA lo)
17D9: CDEF17  	            CALL I2C_SCL_LO     ;SCL low   (SCL lo, SDA lo)
              	; Generate stop condition
17DC: CDE817  	            CALL I2C_SCL_HI     ;SCL high  (SCL hi, SDA lo)
17DF: CDF617  	            CALL I2C_SDA_HI     ;SDA low   (SCL hi, SDA hi)
17E2: AF      	            XOR  A              ;Return success A=0 and Z flagged
17E3: C9      	            RET
              	
              	
              	; **********************************************************************
              	; I2C bus simple I/O functions
              	;   On entry: No parameters required
              	;   On exit:  BC DE HL IX IY preserved
              	
17E4: 3E81    	I2C_INIT:   LD   A,I2C_QUIES    ;I2C control port quiescent value
17E6: 181A    	            JR   I2C_WrPort
              	
17E8: 3AFEFB  	I2C_SCL_HI: LD   A,(I2C_RAMCPY)
17EB: CBC7    	            SET  I2C_SCL_WR,A
17ED: 1813    	            JR   I2C_WrPort
              	
17EF: 3AFEFB  	I2C_SCL_LO: LD   A,(I2C_RAMCPY)
17F2: CB87    	            RES  I2C_SCL_WR,A
17F4: 180C    	            JR   I2C_WrPort
              	
17F6: 3AFEFB  	I2C_SDA_HI: LD   A,(I2C_RAMCPY)
17F9: CBFF    	            SET  I2C_SDA_WR,A
17FB: 1805    	            JR   I2C_WrPort
              	
17FD: 3AFEFB  	I2C_SDA_LO: LD   A,(I2C_RAMCPY)
1800: CBBF    	            RES  I2C_SDA_WR,A
              	
1802: C5      	I2C_WrPort: PUSH BC             ;Preserve registers
1803: 0600    	            LD   B,0            ;Set up BC for 16-bit
1805: 0E21    	            LD   C,I2C_PORT     ;  I/O address of I2C port
1807: ED79    	            OUT  (C),A          ;Write A to I2C I/O port
1809: 32FEFB  	            LD   (I2C_RAMCPY),A ;Write A to RAM copy
180C: C1      	            POP  BC             ;Restore registers
180D: C9      	            RET
              	
180E: C5      	I2C_RdPort: PUSH BC             ;Preserve registers
180F: 0600    	            LD   B,0            ;Set up BC for 16-bit
1811: 0E21    	            LD   C,I2C_PORT     ;  I/O address of I2C port
1813: ED78    	            IN   A,(C)          ;Read A from I/O port
1815: C1      	            POP  BC             ;Restore registers
1816: C9      	            RET
              	
              	
              	
              	
              	
              	
              	
              	
              	
              	
              	
              	
              	
1817: 49324320	I2C_LIST_MSG:    .DB "I2C device found at:",CR,0
181B: 64657669	
181F: 63652066	
1823: 6F756E64	
1827: 2061743A	
182B: 0D00    	
              	
              	
              	
              	
              	
              	
              	
              	
              	
              	
              	
              	
              	
              	
              	
              	
              	
              	
              	
              	
              	
              	
              	
              	
              	
              	
              	
              	
              	
              	
              	
              	
              	
              	
              	
              	
              	;==============================================================================
              	;==============================================================================
              	;==============================================================================
              	;===================       FUNCTIONS    =======================================
              	;==============================================================================
              	;==============================================================================
              	
              	
              	
              	
              	; **********************************************************************
              	; List devices found on the I2C bus
              	;
              	; Test each I2C device address and reports any that acknowledge
              	
182D: 211718  	I2CLIST:    LD   HL, I2C_LIST_MSG        ;Address of message string
              	            ;XOR A ; A = character to stop printing.
1830: CD8403  	            CALL PUTS         ;Output string
1833: 1600    	            LD   D,0            ;First I2C device address to test
1835: D5      	LISTLOOP:      PUSH DE             ;Preserve DE
1836: 7A      	            LD   A,D            ;Get device address to be tested
1837: CD5218  	            CALL LISTTEST          ;Test if device is present
183A: D1      	            POP  DE             ;Restore DE
183B: 2009    	            JR   NZ,LISTNEXT       ;Skip if no acknowledge
183D: 7A      	            LD   A,D            ;Get address of device tested
183E: CDCA18  	            CALL HexOut         ;Output as two character hex 
1841: 3E20    	            LD A, ' '; space
1843: CD7803  	            CALL PUTCHAR       ;Output space character
1846: 14      	LISTNEXT:      INC  D              ;Get next write address
1847: 14      	            INC  D
1848: 7A      	            LD   A,D            ;Address of next device to test
1849: B7      	            OR   A              ;Have we tested all addresses?
184A: 20E9    	            JR   NZ,LISTLOOP       ;No, so loop again
184C: 3E0D    	            LD A, CR; enter
184E: CD7803  	            CALL PUTCHAR       ;Output space character
1851: C9      	            RET
              	
              	; Test if device at I2C address A acknowledges
              	;   On entry: A = I2C device address (8-bit, bit 0 = lo for write)
              	;   On exit:  Z flagged if device acknowledges
              	;             NZ flagged if devices does not acknowledge
1852: CD5717  	LISTTEST:      CALL I2C_Open       ;Open I2C device for write
1855: C0      	            RET  NZ             ;Abort if failed to open
1856: CD5E17  	            CALL I2C_Close      ;Close I2C device 
1859: AF      	            XOR  A              ;Return with Z flagged
185A: C9      	            RET
              	
              	
              	
              	
              	; Copy a block from I2C memory to CPU memory
              	;   On entry: DE = First address in I2C memory
              	;             HL = First address in CPU memory
              	;             BC = Number of bytes to be copied
              	;             SCL = unknown, SDA = unknown
              	;   On exit:  If successfully A = 0 and Z flagged
              	;             If unsuccessfully A = Error and NZ flagged
              	;             IX IY preserved
185B: C5      	I2C_MemRd:  PUSH BC
185C: 011027  	            LD   BC,TIMEOUT     ;Timeout loop counter
185F:         	I2C_MemRdRepeat:    
185F: 3AFDFB  	            LD   A, (I2CA_BLOCK)   ;I2C address to write to
1862: CD5717  	            CALL I2C_Open       ;Open for write
1865: 280A    	            JR   Z,I2C_MemRdReady       ;If open okay then skip on
1867: 0B      	            DEC  BC
1868: 78      	            LD   A,B
1869: B1      	            OR   C              ;Timeout?
186A: 20F3    	            JR   NZ,I2C_MemRdRepeat     ;No, so go try again
186C: C1      	            POP  BC
186D: 3E03    	            LD   A,ERR_TOUT     ;Error code
186F: B7      	            OR   A              ;Error, so NZ flagged
1870: C9      	            RET                 ;Return with error
              	; Device opened okay
1871: C1      	I2C_MemRdReady:     POP  BC             ;Restore byte counter
1872: 7A      	            LD   A,D            ;Address (hi) in I2C memory
1873: CD6117  	            CALL I2C_Write      ;Write address
1876: 7B      	            LD   A,E            ;Address (lo) in I2C memory
1877: CD6117  	            CALL I2C_Write      ;Write address
187A: 3AFDFB  	            LD   A, (I2CA_BLOCK) ;I2C device to be read from
187D: 3C      	            INC  A              ; Device read equal DeviceId+1
187E: CD5717  	            CALL I2C_Open       ;Open for read
1881: C0      	            RET  NZ             ;Abort if error
1882: 0B      	I2C_MemRdRead:      DEC  BC             ;Decrement byte counter
1883: 78      	            LD   A,B
1884: B1      	            OR   C              ;Last byte to be read?
1885: CD9E17  	            CALL I2C_Read       ;Read byte with no ack on last byte
1888: 77      	            LD   (HL),A         ;Write byte in CPU memory
1889: 23      	            INC  HL             ;Increment CPU memory pointer
188A: 78      	            LD   A,B
188B: B1      	            OR   C              ;Finished?
188C: 20F4    	            JR   NZ,I2C_MemRdRead       ;No, so go read next byte
188E: CDD617  	            CALL I2C_Stop       ;Generate I2C stop
1891: AF      	            XOR  A              ;Return with success (Z flagged)
1892: C9      	            RET
              	
              	
              	; Copy a block from CPU memory to I2C memory
              	;   On entry: DE = First address in I2C memory
              	;             HL = First address in CPU memory
              	;             BC = Number of bytes to be copied
              	;             SCL = unknown, SDA = unknown
              	;   On exit:  If successfully A = 0 and Z flagged
              	;             If unsuccessfully A = Error and NZ flagged
              	;             IX IY preserved
              	; The 24LC64 requires blocks of data to be written in 64 byte (or less)
              	; pages.
1893: C5      	I2C_MemWr:  PUSH BC
1894: 011027  	            LD   BC,TIMEOUT     ;Timeout loop counter
1897:         	I2C_MemWrRepeat:    
1897: 3AFDFB  	            LD   A, (I2CA_BLOCK)   ;I2C address to write to
189A: CD5717  	            CALL I2C_Open       ;Open for write
189D: 280A    	            JR   Z,I2C_MemWrReady       ;If open okay then skip on
189F: 0B      	            DEC  BC
18A0: 78      	            LD   A,B
18A1: B1      	            OR   C              ;Timeout?
18A2: 20F3    	            JR   NZ,I2C_MemWrRepeat     ;No, so go try again
18A4: C1      	            POP  BC
18A5: 3E03    	            LD   A,ERR_TOUT     ;Error code
18A7: B7      	            OR   A              ;Error, so NZ flagged
18A8: C9      	            RET                 ;Return with error
              	; Device opened okay
18A9: C1      	I2C_MemWrReady:     POP  BC             ;Restore byte counter
18AA: 7A      	I2C_MemWrBlock:     LD   A,D            ;Address (hi) in I2C memory
18AB: CD6117  	            CALL I2C_Write      ;Write address
18AE: 7B      	            LD   A,E            ;Address (lo) in I2C memory
18AF: CD6117  	            CALL I2C_Write      ;Write address
18B2: 7E      	I2C_MemWrWrite:     LD   A,(HL)         ;Get data byte from CPU memory
18B3: CD6117  	            CALL I2C_Write      ;Read byte from I2C memory
18B6: 23      	            INC  HL             ;Increment CPU memory pointer
18B7: 13      	            INC  DE             ;Increment I2C memory pointer
18B8: 0B      	            DEC  BC             ;Decrement byte counter
18B9: 78      	            LD   A,B
18BA: B1      	            OR   C              ;Finished?
18BB: 2805    	            JR   Z,I2C_MemWrStore       ;Yes, so go store this page
18BD: 7B      	            LD   A,E            ;Get address in I2C memory (lo byte)
18BE: E63F    	            AND  63             ;64 byte page boundary?
18C0: 20F0    	            JR   NZ,I2C_MemWrWrite      ;No, so go write another byte
18C2: CDD617  	I2C_MemWrStore:     CALL I2C_Stop       ;Generate I2C stop
18C5: 78      	            LD   A,B
18C6: B1      	            OR   C              ;Finished?
18C7: 20CA    	            JR   NZ,I2C_MemWr   ;No, so go write some more
18C9: C9      	            RET   
              	
              	
              	; Hex byte output to console
              	;   On entry: A = Byte to be output in hex
              	;   On exit:  BC DE HL IX IY preserved
18CA: F5      	HexOut:     PUSH AF             ;Preserve byte to be output
18CB: 1F      	            RRA                 ;Shift top nibble to
18CC: 1F      	            RRA                 ;  botom four bits..
18CD: 1F      	            RRA
18CE: 1F      	            RRA
18CF: E60F    	            AND  $0F           ;Mask off unwanted bits
18D1: CDD718  	            CALL HexOutHex           ;Output hi nibble
18D4: F1      	            POP  AF             ;Restore byte to be output
18D5: E60F    	            AND  $0F           ;Mask off unwanted bits
              	; Output nibble as ascii character
18D7: FE0A    	HexOutHex:       CP   $0A           ;Nibble > 10 ?
18D9: 3802    	            JR   C,HexOutSkip        ;No, so skip
18DB: C607    	            ADD  A,7            ;Yes, so add 7
18DD: C630    	HexOutSkip:      ADD  A,$30         ;Add ASCII '0'
18DF: CD7803  	            CALL CONOUT       ;Write character
18E2: C9      	            RET
              	#include "FS.asm"
              	
              	; --- Constantes ---
00A5:         	FS_SIG:     .EQU $A5
0000:         	FS_PG_BMP:  .EQU $00
0001:         	FS_PG_DIR:  .EQU $01
0002:         	FS_PG_DATA: .EQU $02        ; primeira pagina de dados
0008:         	FS_MAXFILES:.EQU 8
0020:         	FS_ENTRY_SZ:.EQU 32
0008:         	FS_NAME_SZ: .EQU 8
00FF:         	FS_DATAPG:  .EQU 255        ; bytes uteis por pagina
              	
00FF:         	FS_FLAG_FREE: .EQU $FF
0001:         	FS_FLAG_USED: .EQU $01
              	
              	; Offsets na entrada
0000:         	FS_O_NAME:  .EQU 0
0008:         	FS_O_FSTPG: .EQU 8
0009:         	FS_O_SIZEH: .EQU 9
000A:         	FS_O_SIZEL: .EQU 10
000B:         	FS_O_RADRH: .EQU 11
000C:         	FS_O_RADRL: .EQU 12
000D:         	FS_O_FLAGS: .EQU 13
              	
              	
              	
              	; **********************************************************************
              	; FS_DIR
              	; **********************************************************************
18E3:         	FS_DIR:
18E3: CD9403  	    CALL CRLF
18E6: 21661F  	    LD HL, str_dir_hdr
18E9: CD8403  	    CALL PUTS
18EC: AF      	    XOR A
18ED: 3202FC  	    LD (FS_CUR), A
18F0: 0608    	    LD B, FS_MAXFILES
18F2: 0E00    	    LD C, 0
18F4:         	FS_DIR_LOOP:
18F4: C5      	    PUSH BC
18F5: CDEA1B  	    CALL FS_RD_ENTRY
18F8: C2391E  	    JP NZ, FS_ERR_I2C_POP
18FB: 3A10FC  	    LD A, (FS_WRKBUF + FS_O_FLAGS)
18FE: FE01    	    CP FS_FLAG_USED
1900: 2041    	    JR NZ, FS_DIR_SKIP
1902: 2103FC  	    LD HL, FS_WRKBUF + FS_O_NAME
1905: 0608    	    LD B, FS_NAME_SZ
1907:         	FS_DIR_NM:
1907: 7E      	    LD A, (HL)
1908: B7      	    OR A
1909: 2806    	    JR Z, FS_DIR_PAD
190B: CF      	    RST $08
190C: 23      	    INC HL
190D: 10F8    	    DJNZ FS_DIR_NM
190F: 1806    	    JR FS_DIR_AFT
1911:         	FS_DIR_PAD:
1911: 3E20    	    LD A, ' '
1913: CF      	    RST $08
1914: 23      	    INC HL
1915: 10FA    	    DJNZ FS_DIR_PAD
1917:         	FS_DIR_AFT:
1917: 3E20    	    LD A, ' '
1919: CF      	    RST $08
191A: 3A0CFC  	    LD A, (FS_WRKBUF + FS_O_SIZEH)
191D: CDCA18  	    CALL HexOut
1920: 3A0DFC  	    LD A, (FS_WRKBUF + FS_O_SIZEL)
1923: CDCA18  	    CALL HexOut
1926: 3E20    	    LD A, ' '
1928: CF      	    RST $08
1929: 3A0EFC  	    LD A, (FS_WRKBUF + FS_O_RADRH)
192C: CDCA18  	    CALL HexOut
192F: 3A0FFC  	    LD A, (FS_WRKBUF + FS_O_RADRL)
1932: CDCA18  	    CALL HexOut
1935: 3E20    	    LD A, ' '
1937: CF      	    RST $08
1938: 3A0BFC  	    LD A, (FS_WRKBUF + FS_O_FSTPG)
193B: CDCA18  	    CALL HexOut
193E: C1      	    POP BC
193F: 0C      	    INC C
1940: C34419  	    JP FS_DIR_INC
1943:         	FS_DIR_SKIP:
1943: C1      	    POP BC
1944:         	FS_DIR_INC:
1944: 3A02FC  	    LD A, (FS_CUR)
1947: 3C      	    INC A
1948: 3202FC  	    LD (FS_CUR), A
194B: 10A7    	    DJNZ FS_DIR_LOOP
194D: 79      	    LD A, C
194E: B7      	    OR A
194F: 2007    	    JR NZ, FS_DIR_CNT
1951: 21561E  	    LD HL, str_empty
1954: CD8403  	    CALL PUTS
1957: C9      	    RET
1958:         	FS_DIR_CNT:
1958: CDCA18  	    CALL HexOut
195B: 215F1E  	    LD HL, str_nfiles
195E: CD8403  	    CALL PUTS
1961: C9      	    RET
              	
              	; **********************************************************************
              	; FS_LOAD_CMD
              	; **********************************************************************
1962:         	FS_LOAD_CMD:
1962: CDCE1B  	    CALL FS_COPY_NAME_FROM_BUFFER
1965: DA4F1E  	    JP C, FS_ABORT
1968: CD9403  	    CALL CRLF
196B: CDF41D  	    CALL FS_FIND_NAME
196E: CA7819  	    JP Z, FS_LOAD_DO
1971: 21B41E  	    LD HL, str_notfound
1974: CD8403  	    CALL PUTS
1977: C9      	    RET
              	
1978:         	FS_LOAD_DO:
1978: CD9719  	    CALL FS_DO_LOAD
197B: C2321E  	    JP NZ, FS_ERR_I2C
197E: 21331F  	    LD HL, str_loadat
1981: CD8403  	    CALL PUTS
1984: 3A0EFC  	    LD A, (FS_WRKBUF + FS_O_RADRH)
1987: CDCA18  	    CALL HexOut
198A: 3A0FFC  	    LD A, (FS_WRKBUF + FS_O_RADRL)
198D: CDCA18  	    CALL HexOut
1990: 3E68    	    LD A, 'h'
1992: CF      	    RST $08
1993: CD9403  	    CALL CRLF
1996: C9      	    RET
              	
              	; FS_DO_LOAD - carrega arquivo (FS_WRKBUF preenchido)
              	;   On exit: Z=OK  NZ=erro
1997:         	FS_DO_LOAD:
1997: 3A0EFC  	    LD A, (FS_WRKBUF + FS_O_RADRH)
199A: 67      	    LD H, A
199B: 3A0FFC  	    LD A, (FS_WRKBUF + FS_O_RADRL)
199E: 6F      	    LD L, A
199F: 2230FC  	    LD (FS_TMPRAM), HL      ; destino RAM
19A2: 3A0CFC  	    LD A, (FS_WRKBUF + FS_O_SIZEH)
19A5: 67      	    LD H, A
19A6: 3A0DFC  	    LD A, (FS_WRKBUF + FS_O_SIZEL)
19A9: 6F      	    LD L, A
19AA: 222EFC  	    LD (FS_TMPSZ), HL       ; bytes restantes
19AD: 3A0BFC  	    LD A, (FS_WRKBUF + FS_O_FSTPG)
19B0: 3232FC  	    LD (FS_CURPG), A
              	
19B3:         	FS_DL_PG:
19B3: 3A32FC  	    LD A, (FS_CURPG)
19B6: B7      	    OR A
19B7: 2848    	    JR Z, FS_DL_DONE
              	
              	    ; Le byte 0 (next page)
19B9: 57      	    LD D, A
19BA: 1E00    	    LD E, 0
19BC: 212DFC  	    LD HL, FS_TMP1
19BF: 010100  	    LD BC, 1
19C2: CD5B18  	    CALL I2C_MemRd
19C5: C0      	    RET NZ
              	
              	    ; min(FS_TMPSZ, 255) bytes a ler
19C6: 2A2EFC  	    LD HL, (FS_TMPSZ)
19C9: 7C      	    LD A, H
19CA: B7      	    OR A
19CB: 2005    	    JR NZ, FS_DL_255
19CD: 7D      	    LD A, L
19CE: FEFF    	    CP FS_DATAPG
19D0: 3805    	    JR C, FS_DL_LT
19D2:         	FS_DL_255:
19D2: 01FF00  	    LD BC, FS_DATAPG
19D5: 1803    	    JR FS_DL_RD
19D7:         	FS_DL_LT:
19D7: 0600    	    LD B, 0
19D9: 4D      	    LD C, L
              	
19DA:         	FS_DL_RD:
              	    ; BC=bytes, DE=pag*256+1, HL=destino
19DA: C5      	    PUSH BC
19DB: 3A32FC  	    LD A, (FS_CURPG)
19DE: 57      	    LD D, A
19DF: 1E01    	    LD E, 1
19E1: 2A30FC  	    LD HL, (FS_TMPRAM)
19E4: CD5B18  	    CALL I2C_MemRd
19E7: C1      	    POP BC
19E8: C0      	    RET NZ
              	
              	    ; Atualiza ponteiros
19E9: 2A30FC  	    LD HL, (FS_TMPRAM)
19EC: 09      	    ADD HL, BC
19ED: 2230FC  	    LD (FS_TMPRAM), HL
19F0: 2A2EFC  	    LD HL, (FS_TMPSZ)
19F3: B7      	    OR A                    ; limpa carry
19F4: ED42    	    SBC HL, BC
19F6: 222EFC  	    LD (FS_TMPSZ), HL
              	
              	    ; Proxima pagina
19F9: 3A2DFC  	    LD A, (FS_TMP1)
19FC: 3232FC  	    LD (FS_CURPG), A
19FF: 18B2    	    JR FS_DL_PG
              	
1A01:         	FS_DL_DONE:
1A01: AF      	    XOR A
1A02: C9      	    RET
              	
              	
              	; **********************************************************************
              	; FS_SAVE
              	; 
              	; save name xxxx xxxx
              	; Comando Nome End.Ram Tamanho
              	; **********************************************************************
1A03:         	FS_SAVE:
1A03: CDCE1B  	    CALL FS_COPY_NAME_FROM_BUFFER
1A06: DA4F1E  	    JP C, FS_ABORT
              	    
              	    ; pega endereço inicial XXXX
1A09: CDDC12  	    CALL SKIP_SPACES_DE
1A0C: CD3613  	    CALL PARSE_HEX16_DE
1A0F: DA4F1E  	    JP C, FS_ABORT
1A12: 2230FC  	    LD (FS_TMPRAM), HL
              	    ; pega tamanho XXXX
1A15: CDDC12  	    CALL SKIP_SPACES_DE
1A18: CD3613  	    CALL PARSE_HEX16_DE
1A1B: DA4F1E  	    JP C, FS_ABORT
1A1E: 7C      	    LD A, H
1A1F: B5      	    OR L
1A20: CA4F1E  	    JP Z, FS_ABORT
1A23: 222EFC  	    LD (FS_TMPSZ), HL
1A26: CD9403  	    CALL CRLF
              	
              	    ; Nome ja existe?
1A29: CDF41D  	    CALL FS_FIND_NAME
1A2C: CA381A  	    JP Z, FS_SV_OVERW
1A2F: CD201C  	    CALL FS_FIND_FREE
1A32: C2411E  	    JP NZ, FS_ERR_FULL
1A35: C3451A  	    JP FS_SV_DO
              	
1A38:         	FS_SV_OVERW:
1A38: 3A0BFC  	    LD A, (FS_WRKBUF + FS_O_FSTPG)
1A3B: B7      	    OR A
1A3C: CA451A  	    JP Z, FS_SV_DO
1A3F: CD141D  	    CALL FS_FREE_CHAIN
1A42: C2321E  	    JP NZ, FS_ERR_I2C
              	
1A45:         	FS_SV_DO:
1A45: 3A02FC  	    LD A, (FS_CUR)
1A48: 3233FC  	    LD (FS_SLOTBK), A
              	
              	    ; Zera e monta FS_WRKBUF
1A4B: 2103FC  	    LD HL, FS_WRKBUF
1A4E: 0620    	    LD B, FS_ENTRY_SZ
1A50: AF      	    XOR A
1A51:         	FS_SV_CLR:
1A51: 77      	    LD (HL), A
1A52: 23      	    INC HL
1A53: 10FC    	    DJNZ FS_SV_CLR
              	
1A55: 2123FC  	    LD HL, FS_NAMBUF
1A58: DD2103FC	    LD IX, FS_WRKBUF
1A5C: 0608    	    LD B, FS_NAME_SZ
1A5E:         	FS_SV_NM:
1A5E: 7E      	    LD A, (HL)
1A5F: DD7700  	    LD (IX+0), A
1A62: DD23    	    INC IX
1A64: 23      	    INC HL
1A65: 10F7    	    DJNZ FS_SV_NM
              	
1A67: 2A2EFC  	    LD HL, (FS_TMPSZ)
1A6A: 7C      	    LD A, H
1A6B: 320CFC  	    LD (FS_WRKBUF + FS_O_SIZEH), A
1A6E: 7D      	    LD A, L
1A6F: 320DFC  	    LD (FS_WRKBUF + FS_O_SIZEL), A
1A72: 2A30FC  	    LD HL, (FS_TMPRAM)
1A75: 7C      	    LD A, H
1A76: 320EFC  	    LD (FS_WRKBUF + FS_O_RADRH), A
1A79: 7D      	    LD A, L
1A7A: 320FFC  	    LD (FS_WRKBUF + FS_O_RADRL), A
1A7D: 3E01    	    LD A, FS_FLAG_USED
1A7F: 3210FC  	    LD (FS_WRKBUF + FS_O_FLAGS), A
              	
              	    ; Aloca primeira pagina
1A82: CD4B1C  	    CALL FS_ALLOC_PG
1A85: CA481E  	    JP Z, FS_ERR_NOSPACE
1A88: 320BFC  	    LD (FS_WRKBUF + FS_O_FSTPG), A
1A8B: 3232FC  	    LD (FS_CURPG), A
              	
1A8E:         	FS_SV_LOOP:
1A8E: 3A32FC  	    LD A, (FS_CURPG)
1A91: CD631D  	    CALL FS_WRITE_PG
1A94: C2321E  	    JP NZ, FS_ERR_I2C
1A97: 2A2EFC  	    LD HL, (FS_TMPSZ)
1A9A: 7C      	    LD A, H
1A9B: B5      	    OR L
1A9C: CAB61A  	    JP Z, FS_SV_DONE
              	    ; Aloca proxima pagina
1A9F: CD4B1C  	    CALL FS_ALLOC_PG
1AA2: CA481E  	    JP Z, FS_ERR_NOSPACE
1AA5: 47      	    LD B, A                 ; B = proxima pagina
1AA6: 3A32FC  	    LD A, (FS_CURPG)
1AA9: CDDD1D  	    CALL FS_SET_NEXT        ; byte 0 da pagina A = B
1AAC: C2321E  	    JP NZ, FS_ERR_I2C
1AAF: 78      	    LD A, B
1AB0: 3232FC  	    LD (FS_CURPG), A
1AB3: C38E1A  	    JP FS_SV_LOOP
              	
1AB6:         	FS_SV_DONE:
1AB6: 3A33FC  	    LD A, (FS_SLOTBK)
1AB9: 3202FC  	    LD (FS_CUR), A
1ABC: CD051C  	    CALL FS_WR_ENTRY
1ABF: C2321E  	    JP NZ, FS_ERR_I2C
1AC2: 21D41E  	    LD HL, str_saved
1AC5: CD8403  	    CALL PUTS
1AC8: C9      	    RET
              	
              	
              	; **********************************************************************
              	; FS_EXEC
              	; **********************************************************************
1AC9:         	FS_EXEC:
1AC9: CDCE1B  	    CALL FS_COPY_NAME_FROM_BUFFER
1ACC: DA4F1E  	    JP C, FS_ABORT
1ACF: CD9403  	    CALL CRLF
1AD2: CDF41D  	    CALL FS_FIND_NAME
1AD5: CADF1A  	    JP Z, FS_EX_DO
1AD8: 21B41E  	    LD HL, str_notfound
1ADB: CD8403  	    CALL PUTS
1ADE: C9      	    RET
1ADF:         	FS_EX_DO:
1ADF: 3A0EFC  	    LD A, (FS_WRKBUF + FS_O_RADRH)
1AE2: 67      	    LD H, A
1AE3: 3A0FFC  	    LD A, (FS_WRKBUF + FS_O_RADRL)
1AE6: 6F      	    LD L, A
1AE7: E5      	    PUSH HL
1AE8: CD9719  	    CALL FS_DO_LOAD
1AEB: C2F61A  	    JP NZ, FS_EX_ERR
1AEE: 21C51E  	    LD HL, str_running
1AF1: CD8403  	    CALL PUTS
1AF4: E1      	    POP HL
1AF5: E9      	    JP (HL)
1AF6:         	FS_EX_ERR:
1AF6: E1      	    POP HL
1AF7: C3321E  	    JP FS_ERR_I2C
              	
              	
              	
              	; **********************************************************************
              	; FS_ERASE
              	; **********************************************************************
1AFA:         	FS_ERASE:
1AFA: CDCE1B  	    CALL FS_COPY_NAME_FROM_BUFFER
1AFD: DA4F1E  	    JP C, FS_ABORT
1B00: CD9403  	    CALL CRLF
1B03: CDF41D  	    CALL FS_FIND_NAME
1B06: CA101B  	    JP Z, FS_ER_FOUND
1B09: 21B41E  	    LD HL, str_notfound
1B0C: CD8403  	    CALL PUTS
1B0F: C9      	    RET
1B10:         	FS_ER_FOUND:
1B10: 2123FC  	    LD HL, FS_NAMBUF
1B13: 0608    	    LD B, FS_NAME_SZ
1B15:         	FS_ER_NM:
1B15: 7E      	    LD A, (HL)
1B16: B7      	    OR A
1B17: CA1E1B  	    JP Z, FS_ER_CFM
1B1A: CF      	    RST $08
1B1B: 23      	    INC HL
1B1C: 10F7    	    DJNZ FS_ER_NM
1B1E:         	FS_ER_CFM:
1B1E: 21E41E  	    LD HL, str_sure
1B21: CD8403  	    CALL PUTS
1B24: D7      	    RST $10
1B25: CF      	    RST $08
1B26: E65F    	    AND $5F
1B28: FE53    	    CP 'S'
1B2A: C24F1E  	    JP NZ, FS_ABORT
1B2D: CD9403  	    CALL CRLF
1B30: 3A0BFC  	    LD A, (FS_WRKBUF + FS_O_FSTPG)
1B33: B7      	    OR A
1B34: CA3D1B  	    JP Z, FS_ER_DIR
1B37: CD141D  	    CALL FS_FREE_CHAIN
1B3A: C2321E  	    JP NZ, FS_ERR_I2C
1B3D:         	FS_ER_DIR:
1B3D: 2103FC  	    LD HL, FS_WRKBUF
1B40: 0620    	    LD B, FS_ENTRY_SZ
1B42: AF      	    XOR A
1B43:         	FS_ER_CLR:
1B43: 77      	    LD (HL), A
1B44: 23      	    INC HL
1B45: 10FC    	    DJNZ FS_ER_CLR
1B47: 3EFF    	    LD A, FS_FLAG_FREE
1B49: 3210FC  	    LD (FS_WRKBUF + FS_O_FLAGS), A
1B4C: CD051C  	    CALL FS_WR_ENTRY
1B4F: C2321E  	    JP NZ, FS_ERR_I2C
1B52: 21FA1E  	    LD HL, str_erased
1B55: CD8403  	    CALL PUTS
1B58: C9      	    RET
              	
              	
              	
              	; **********************************************************************
              	; FS_FORMAT
              	; **********************************************************************
1B59:         	FS_FORMAT:
1B59: 21041F  	    LD HL, str_fmt_ask
1B5C: CD8403  	    CALL PUTS
1B5F: D7      	    RST $10
1B60: CF      	    RST $08
1B61: E65F    	    AND $5F
1B63: FE53    	    CP 'S'
1B65: C0      	    RET NZ
1B66: CD9403  	    CALL CRLF
1B69: 21221F  	    LD HL, str_wait
1B6C: CD8403  	    CALL PUTS
              	
              	    ; Pagina 0: assinatura + bitmap
              	    ; Pags 0,1 ocupadas (bits 0,1 do byte 1 = 0): byte1 = 11111100 = $FC
1B6F: 2136FC  	    LD HL, PG_BUF
1B72: 36A5    	    LD (HL), FS_SIG
1B74: 23      	    INC HL
1B75: 36FC    	    LD (HL), $FC
1B77: 23      	    INC HL
1B78: 060E    	    LD B, 14                ; bytes 2..15 = $FF
1B7A:         	FS_FMT_1:
1B7A: 36FF    	    LD (HL), $FF
1B7C: 23      	    INC HL
1B7D: 10FB    	    DJNZ FS_FMT_1
1B7F: 06F0    	    LD B, 240               ; bytes 16..255 = $FF
1B81:         	FS_FMT_2:
1B81: 36FF    	    LD (HL), $FF
1B83: 23      	    INC HL
1B84: 10FB    	    DJNZ FS_FMT_2
              	
1B86: 110000  	    LD DE, $0000
1B89: 2136FC  	    LD HL, PG_BUF
1B8C: 010001  	    LD BC, 256
1B8F: CD9318  	    CALL I2C_MemWr
1B92: C2321E  	    JP NZ, FS_ERR_I2C
              	
              	    ; Pagina 1: diretorio todo $FF (entradas livres)
1B95: 2136FC  	    LD HL, PG_BUF
1B98: 0600    	    LD B, 0                 ; 256 iteracoes (B=0: DJNZ decrementa para 255, depois 0 = 256 total)
1B9A:         	FS_FMT_3:
1B9A: 36FF    	    LD (HL), $FF
1B9C: 23      	    INC HL
1B9D: 10FB    	    DJNZ FS_FMT_3
              	
1B9F: 110001  	    LD DE, $0100
1BA2: 2136FC  	    LD HL, PG_BUF
1BA5: 010001  	    LD BC, 256
1BA8: CD9318  	    CALL I2C_MemWr
1BAB: C2321E  	    JP NZ, FS_ERR_I2C
1BAE: 212E1F  	    LD HL, str_ok
1BB1: CD8403  	    CALL PUTS
1BB4: C9      	    RET
              	
              	
              	; **********************************************************************
              	; FS_CHK_SIG - Z=formatada NZ=nao
              	; **********************************************************************
1BB5:         	FS_CHK_SIG:
1BB5: C5      	    PUSH BC
1BB6: D5      	    PUSH DE
1BB7: E5      	    PUSH HL
1BB8: 110000  	    LD DE, $0000
1BBB: 212DFC  	    LD HL, FS_TMP1
1BBE: 010100  	    LD BC, 1
1BC1: CD5B18  	    CALL I2C_MemRd
1BC4: E1      	    POP HL
1BC5: D1      	    POP DE
1BC6: C1      	    POP BC
1BC7: C0      	    RET NZ
1BC8: 3A2DFC  	    LD A, (FS_TMP1)
1BCB: FEA5    	    CP FS_SIG
1BCD: C9      	    RET
              	
              	
              	
              	
              	
              	
              	
              	
              	
              	
              	
              	
              	
              	
              	
              	
              	
              	
              	
              	
              	
              	
              	
              	
              	; **********************************************************************
              	; FUNCOES INTERNAS
              	; **********************************************************************
              	
              	; Preenche FS_NAMBUF com NUL, depois copia buffer em DE até NUL(0) ou SPACE
              	; Nome não pode ter espaços e Diego != diego
1BCE:         	FS_COPY_NAME_FROM_BUFFER:
1BCE: 0609    	    LD B, FS_NAME_SZ + 1
1BD0: 2123FC  	    LD HL, FS_NAMBUF
1BD3: AF      	    XOR A
1BD4:         	FS_CLEAR_NUL:
1BD4: 77      	    LD (HL), A
1BD5: 23      	    INC HL
1BD6: 10FC    	    djnz FS_CLEAR_NUL
              	
1BD8: 0609    	    LD B, FS_NAME_SZ + 1
1BDA: 2123FC  	    LD HL, FS_NAMBUF
1BDD:         	FS_COPY_NAME_FROM_BUFFER_LOOP:
1BDD: 1A      	    LD A, (DE)
1BDE: FE00    	    CP NUL
1BE0: C8      	    RET Z
1BE1: FE20    	    CP SPACE
1BE3: C8      	    RET Z
1BE4: 77      	    LD (HL), A
1BE5: 23      	    INC HL
1BE6: 13      	    INC DE
1BE7: 10F4    	    djnz FS_COPY_NAME_FROM_BUFFER_LOOP
1BE9: C9      	    RET
              	
              	; FS_RD_ENTRY: Le entrada FS_CUR → FS_WRKBUF
              	;   EEPROM addr = $0100 + FS_CUR*32
              	;   On exit: Z=OK  NZ=erro
1BEA:         	FS_RD_ENTRY:
1BEA: C5      	    PUSH BC
1BEB: D5      	    PUSH DE
1BEC: E5      	    PUSH HL
1BED: 3A02FC  	    LD A, (FS_CUR)
1BF0: 07      	    RLCA
1BF1: 07      	    RLCA
1BF2: 07      	    RLCA
1BF3: 07      	    RLCA
1BF4: 07      	    RLCA                    ; A = FS_CUR * 32
1BF5: 5F      	    LD E, A
1BF6: 1601    	    LD D, $01
1BF8: 2103FC  	    LD HL, FS_WRKBUF
1BFB: 012000  	    LD BC, FS_ENTRY_SZ
1BFE: CD5B18  	    CALL I2C_MemRd
1C01: E1      	    POP HL
1C02: D1      	    POP DE
1C03: C1      	    POP BC
1C04: C9      	    RET
              	
              	
              	; FS_WR_ENTRY: Grava FS_WRKBUF → EEPROM posicao FS_CUR
              	;   On exit: Z=OK  NZ=erro
1C05:         	FS_WR_ENTRY:
1C05: C5      	    PUSH BC
1C06: D5      	    PUSH DE
1C07: E5      	    PUSH HL
1C08: 3A02FC  	    LD A, (FS_CUR)
1C0B: 07      	    RLCA
1C0C: 07      	    RLCA
1C0D: 07      	    RLCA
1C0E: 07      	    RLCA
1C0F: 07      	    RLCA
1C10: 5F      	    LD E, A
1C11: 1601    	    LD D, $01
1C13: 2103FC  	    LD HL, FS_WRKBUF
1C16: 012000  	    LD BC, FS_ENTRY_SZ
1C19: CD9318  	    CALL I2C_MemWr
1C1C: E1      	    POP HL
1C1D: D1      	    POP DE
1C1E: C1      	    POP BC
1C1F: C9      	    RET
              	
              	
              	; FS_FIND_FREE: Acha slot livre no diretorio
              	;   On exit: Z=encontrado (FS_CUR=idx)  NZ=cheio
1C20:         	FS_FIND_FREE:
1C20: AF      	    XOR A
1C21: 3202FC  	    LD (FS_CUR), A
1C24: 0608    	    LD B, FS_MAXFILES
1C26:         	FS_FF_LP:
1C26: C5      	    PUSH BC
1C27: CDEA1B  	    CALL FS_RD_ENTRY
1C2A: C2461C  	    JP NZ, FS_FF_ERR
1C2D: 3A10FC  	    LD A, (FS_WRKBUF + FS_O_FLAGS)
1C30: FEFF    	    CP FS_FLAG_FREE
1C32: CA431C  	    JP Z, FS_FF_FOUND
1C35: 3A02FC  	    LD A, (FS_CUR)
1C38: 3C      	    INC A
1C39: 3202FC  	    LD (FS_CUR), A
1C3C: C1      	    POP BC
1C3D: 10E7    	    DJNZ FS_FF_LP
1C3F: 3E01    	    LD A, 1
1C41: B7      	    OR A
1C42: C9      	    RET
1C43:         	FS_FF_FOUND:
1C43: C1      	    POP BC
1C44: AF      	    XOR A
1C45: C9      	    RET
1C46:         	FS_FF_ERR:
1C46: C1      	    POP BC
1C47: 3E03    	    LD A, ERR_TOUT
1C49: B7      	    OR A
1C4A: C9      	    RET
              	
              	
              	
              	; FS_ALLOC_PG: Aloca primeira pagina livre (>=2) no bitmap
              	;   Registradores: B=pagina, C=bit_index, D=byte_bitmap, E=byte_index, HL=ptr
              	;   On exit: A=pagina (NZ=ok)   A=0 (Z=sem espaco)
1C4B:         	FS_ALLOC_PG:
              	    ; Le os 16 bytes do bitmap para PG_BUF
1C4B: 110100  	    LD DE, $0001
1C4E: 2136FC  	    LD HL, PG_BUF
1C51: 011000  	    LD BC, 16
1C54: CD5B18  	    CALL I2C_MemRd
1C57: C0      	    RET NZ
              	
1C58: 0602    	    LD B, 2                 ; B = pagina corrente
              	
1C5A:         	FS_AP_LOOP:
1C5A: 78      	    LD A, B
1C5B: E607    	    AND $07
1C5D: 4F      	    LD C, A                 ; C = bit_index
              	
1C5E: 78      	    LD A, B
1C5F: CB3F    	    SRL A
1C61: CB3F    	    SRL A
1C63: CB3F    	    SRL A
1C65: 5F      	    LD E, A                 ; E = byte_index
              	
1C66: 2136FC  	    LD HL, PG_BUF
1C69: 1600    	    LD D, 0
1C6B: 19      	    ADD HL, DE
1C6C: 56      	    LD D, (HL)              ; D = byte do bitmap
              	
1C6D: 3E01    	    LD A, 1
1C6F:         	FS_AP_TBIT:
1C6F: 0D      	    DEC C
1C70: FA761C  	    JP M, FS_AP_TBIT_DONE
1C73: 07      	    RLCA
1C74: 18F9    	    JR FS_AP_TBIT
1C76:         	FS_AP_TBIT_DONE:
1C76: A2      	    AND D                   ; 0=ocupado, !=0=livre
1C77: 2008    	    JR NZ, FS_AP_FOUND
              	
1C79: 04      	    INC B
1C7A: 78      	    LD A, B
1C7B: FE80    	    CP 128
1C7D: 38DB    	    JR C, FS_AP_LOOP
1C7F: AF      	    XOR A                   ; Z = sem espaco
1C80: C9      	    RET
              	
1C81:         	FS_AP_FOUND:
              	    ; B = pagina livre. Salva bit_index e byte_index.
1C81: 78      	    LD A, B
1C82: E607    	    AND $07
1C84: 3235FC  	    LD (FS_BMPADDR+1), A    ; bit_index
              	
1C87: 78      	    LD A, B
1C88: CB3F    	    SRL A
1C8A: CB3F    	    SRL A
1C8C: CB3F    	    SRL A
1C8E: 5F      	    LD E, A                 ; E = byte_index
              	
              	    ; HL = PG_BUF + byte_index
1C8F: 2136FC  	    LD HL, PG_BUF
1C92: 1600    	    LD D, 0
1C94: 19      	    ADD HL, DE
              	
              	    ; Mascara = ~(1 << bit_index) para zerar o bit
1C95: 3A35FC  	    LD A, (FS_BMPADDR+1)
1C98: 4F      	    LD C, A
1C99: 3E01    	    LD A, 1
1C9B:         	FS_AP_MKSHL:
1C9B: 0D      	    DEC C
1C9C: FAA21C  	    JP M, FS_AP_MKINV
1C9F: 07      	    RLCA
1CA0: 18F9    	    JR FS_AP_MKSHL
1CA2:         	FS_AP_MKINV:
1CA2: 2F      	    CPL                     ; ~mascara
              	
1CA3: A6      	    AND (HL)
1CA4: 77      	    LD (HL), A              ; atualiza PG_BUF
              	
              	    ; Salva numero da pagina antes do LD BC,1 destruir B
1CA5: 78      	    LD A, B
1CA6: 3234FC  	    LD (FS_BMPADDR), A
              	
              	    ; Grava byte atualizado na EEPROM: addr = byte_index + 1
1CA9: 1600    	    LD D, 0
1CAB: 1C      	    INC E                   ; E = byte_index + 1
1CAC: 010100  	    LD BC, 1
1CAF: CD9318  	    CALL I2C_MemWr
1CB2: C0      	    RET NZ
              	
1CB3: 3A34FC  	    LD A, (FS_BMPADDR)      ; A = pagina alocada
1CB6: B7      	    OR A                    ; NZ = sucesso
1CB7: C9      	    RET
              	
              	; FS_FREE_PG: Libera pagina A no bitmap (seta bit = 1)
              	;   On exit: Z=OK  NZ=erro I2C
1CB8:         	FS_FREE_PG:
1CB8: C5      	    PUSH BC
1CB9: D5      	    PUSH DE
1CBA: E5      	    PUSH HL
1CBB: F5      	    PUSH AF                 ; salva numero da pagina
              	
              	    ; bit_index = pagina mod 8
1CBC: E607    	    AND $07
1CBE: 4F      	    LD C, A                 ; C = bit_index
              	
              	    ; byte_index = pagina / 8 → endereco EEPROM = byte_index + 1
1CBF: F1      	    POP AF
1CC0: F5      	    PUSH AF
1CC1: CB3F    	    SRL A
1CC3: CB3F    	    SRL A
1CC5: CB3F    	    SRL A                   ; A = byte_index
1CC7: 3C      	    INC A                   ; A = endereco EEPROM (1..16)
1CC8: 3234FC  	    LD (FS_BMPADDR), A      ; salva endereco
              	
              	    ; Le byte atual do bitmap
              	    ; ATENCAO: LD BC,1 vai sobrescrever C (bit_index)!
              	    ; Salva C na RAM antes.
1CCB: 79      	    LD A, C
1CCC: 3235FC  	    LD (FS_BMPADDR+1), A    ; salva bit_index em FS_BMPADDR+1
              	
1CCF: 3A34FC  	    LD A, (FS_BMPADDR)
1CD2: 5F      	    LD E, A
1CD3: 1600    	    LD D, 0
1CD5: 212DFC  	    LD HL, FS_TMP1
1CD8: 010100  	    LD BC, 1
1CDB: CD5B18  	    CALL I2C_MemRd
1CDE: C2071D  	    JP NZ, FS_FP_ERR
              	
              	    ; Recupera bit_index
1CE1: 3A35FC  	    LD A, (FS_BMPADDR+1)
1CE4: 4F      	    LD C, A                 ; C = bit_index restaurado
              	
              	    ; Constroi mascara = 1 << bit_index
1CE5: 3E01    	    LD A, 1
1CE7:         	FS_FP_SHL:
1CE7: 0D      	    DEC C
1CE8: FAEE1C  	    JP M, FS_FP_OR
1CEB: 07      	    RLCA
1CEC: 18F9    	    JR FS_FP_SHL
              	
1CEE:         	FS_FP_OR:
1CEE: 47      	    LD B, A
1CEF: 3A2DFC  	    LD A, (FS_TMP1)
1CF2: B0      	    OR B                    ; seta o bit (marca pagina como livre)
1CF3: 322DFC  	    LD (FS_TMP1), A
              	
              	    ; Grava
1CF6: 3A34FC  	    LD A, (FS_BMPADDR)
1CF9: 5F      	    LD E, A
1CFA: 1600    	    LD D, 0
1CFC: 212DFC  	    LD HL, FS_TMP1
1CFF: 010100  	    LD BC, 1
1D02: CD9318  	    CALL I2C_MemWr
1D05: 1808    	    JR FS_FP_DONE
              	
1D07:         	FS_FP_ERR:
1D07: F1      	    POP AF
1D08: E1      	    POP HL
1D09: D1      	    POP DE
1D0A: C1      	    POP BC
1D0B: 3E01    	    LD A, 1
1D0D: B7      	    OR A
1D0E: C9      	    RET
              	
1D0F:         	FS_FP_DONE:
1D0F: F1      	    POP AF
1D10: E1      	    POP HL
1D11: D1      	    POP DE
1D12: C1      	    POP BC
1D13: C9      	    RET
              	
              	; FS_FREE_CHAIN: Libera cadeia de paginas a partir da pagina A
              	;   On exit: Z=OK  NZ=erro
1D14:         	FS_FREE_CHAIN:
1D14: B7      	    OR A
1D15: C8      	    RET Z
              	
1D16:         	FS_FC_LP:
1D16: 3234FC  	    LD (FS_BMPADDR), A      ; salva pagina corrente
              	
              	    ; Primeiro le o next page (antes de liberar)
1D19: 57      	    LD D, A
1D1A: 1E00    	    LD E, 0
1D1C: 212DFC  	    LD HL, FS_TMP1
1D1F: 010100  	    LD BC, 1
1D22: CD5B18  	    CALL I2C_MemRd
1D25: 201C    	    JR NZ, FS_FC_ERR
              	
              	    ; Salva next page no stack (FS_FREE_PG vai usar FS_BMPADDR/+1)
1D27: 3A2DFC  	    LD A, (FS_TMP1)
1D2A: F5      	    PUSH AF                 ; [1] next page
              	
              	    ; Pequeno delay para o barramento I2C se estabilizar entre as operacoes
              	    ; Abre e fecha a EEPROM ate receber ACK (write cycle polling)
1D2B:         	FS_FC_WAIT:
1D2B: 3EAE    	    LD A, $AE
1D2D: CD5717  	    CALL I2C_Open
1D30: CD5E17  	    CALL I2C_Close
1D33: 20F6    	    JR NZ, FS_FC_WAIT       ; aguarda EEPROM pronta
              	
              	    ; Libera a pagina
1D35: 3A34FC  	    LD A, (FS_BMPADDR)
1D38: CDB81C  	    CALL FS_FREE_PG
1D3B: 2010    	    JR NZ, FS_FC_ERR2
              	
1D3D: F1      	    POP AF                  ; [1] A = next page
1D3E: B7      	    OR A
1D3F: 20D5    	    JR NZ, FS_FC_LP         ; continua na proxima pagina
              	
1D41: AF      	    XOR A
1D42: C9      	    RET
              	
1D43:         	FS_FC_ERR:
1D43: 21581D  	    LD HL, str_fc_err
1D46: CD8403  	    CALL PUTS
1D49: 3E01    	    LD A, 1
1D4B: B7      	    OR A
1D4C: C9      	    RET
1D4D:         	FS_FC_ERR2:
1D4D: F1      	    POP AF                  ; [1]
1D4E: 21581D  	    LD HL, str_fc_err
1D51: CD8403  	    CALL PUTS
1D54: 3E01    	    LD A, 1
1D56: B7      	    OR A
1D57: C9      	    RET
              	
1D58: 46432045	str_fc_err:  .TEXT "FC ERRO!"
1D5C: 52524F21	
1D60: 0D0A00  	             .DB CR, LF, 0
              	
              	
              	
              	; FS_WRITE_PG: Grava pagina A com dados de FS_TMPRAM
              	;   Grava min(FS_TMPSZ, 255) bytes. Atualiza FS_TMPRAM e FS_TMPSZ.
              	;   byte 0 da pagina = $00 (next=fim; FS_SET_NEXT corrige se necessario)
              	;   On exit: Z=OK  NZ=erro
              	;   Preserva: BC DE HL
1D63:         	FS_WRITE_PG:
1D63: C5      	    PUSH BC
1D64: D5      	    PUSH DE
1D65: E5      	    PUSH HL
1D66: F5      	    PUSH AF                 ; A = numero da pagina
              	
              	    ; Calcula quantos bytes gravar: min(FS_TMPSZ, 255)
1D67: 2A2EFC  	    LD HL, (FS_TMPSZ)
1D6A: 7C      	    LD A, H
1D6B: B7      	    OR A
1D6C: 2005    	    JR NZ, FS_WP_USE255     ; HL >= 256: usa 255
1D6E: 7D      	    LD A, L
1D6F: FEFF    	    CP FS_DATAPG            ; L < 255?
1D71: 3804    	    JR C, FS_WP_USELT       ; sim: usa L
1D73:         	FS_WP_USE255:
1D73: 0EFF    	    LD C, FS_DATAPG         ; C = 255
1D75: 1801    	    JR FS_WP_COPY
1D77:         	FS_WP_USELT:
1D77: 4D      	    LD C, L                 ; C = L (< 255)
              	
1D78:         	FS_WP_COPY:
              	    ; C = bytes a gravar (1..255). Salva em D para nao perder.
1D78: 51      	    LD D, C                 ; D = bytes a gravar
              	
              	    ; Monta PG_BUF[0..$FF]:
              	    ;   [0]    = $00 (next page, sera corrigido por FS_SET_NEXT)
              	    ;   [1..C] = dados da RAM
              	    ;   [C+1..$FF] = $FF (padding)
1D79: 2136FC  	    LD HL, PG_BUF
1D7C: 3600    	    LD (HL), $00            ; byte 0 = next = $00
1D7E: 23      	    INC HL                  ; HL = PG_BUF + 1
              	
              	    ; Copia D bytes de FS_TMPRAM para PG_BUF+1
              	    ; Usa IX como ponteiro de origem (LD BC,(nn) pode nao funcionar no zasm)
1D7F: DD2A30FC	    LD IX, (FS_TMPRAM)      ; IX = ponteiro RAM origem
1D83: 5A      	    LD E, D                 ; E = contador de copia
1D84:         	FS_WP_CPLOOP:
1D84: DD7E00  	    LD A, (IX+0)            ; le da RAM origem
1D87: 77      	    LD (HL), A              ; grava no PG_BUF
1D88: DD23    	    INC IX
1D8A: 23      	    INC HL
1D8B: 1D      	    DEC E
1D8C: 20F6    	    JR NZ, FS_WP_CPLOOP
              	
              	    ; Padding $FF ate completar 256 bytes (posicoes D+1 a 255)
              	    ; Bytes de padding = 255 - D
1D8E: 3EFF    	    LD A, FS_DATAPG         ; 255
1D90: 92      	    SUB D                   ; A = 255 - D (bytes de padding)
1D91: 2807    	    JR Z, FS_WP_NOPAD       ; sem padding (D=255, pagina cheia)
1D93: 5F      	    LD E, A
1D94:         	FS_WP_PADLOOP:
1D94: 36FF    	    LD (HL), $FF
1D96: 23      	    INC HL
1D97: 1D      	    DEC E
1D98: 20FA    	    JR NZ, FS_WP_PADLOOP
1D9A:         	FS_WP_NOPAD:
              	
              	    ; Grava PG_BUF inteiro (256 bytes) na EEPROM
              	    ; Endereco EEPROM = pagina * 256 (D = pagina, E = 0)
1D9A: F1      	    POP AF                  ; A = numero da pagina
1D9B: F5      	    PUSH AF
1D9C: 57      	    LD D, A
1D9D: 1E00    	    LD E, 0
1D9F: 2136FC  	    LD HL, PG_BUF
1DA2: 010001  	    LD BC, 256
1DA5: CD9318  	    CALL I2C_MemWr
1DA8: C2D51D  	    JP NZ, FS_WP_ERR
              	
              	    ; Atualiza FS_TMPRAM += D_bytes_gravados
1DAB: F1      	    POP AF                  ; A = pagina (descarta)
1DAC: E1      	    POP HL                  ; restaura HL original
1DAD: D1      	    POP DE                  ; restaura DE original
1DAE: C1      	    POP BC                  ; restaura BC original
              	
              	    ; Recalcula com D = bytes gravados
              	    ; D foi preservado? Nao — foi sobrescrito por LD D, A (pagina).
              	    ; Usamos FS_TMPSZ antes e depois para calcular o que foi gravado:
              	    ; bytes_gravados = min(TMPSZ_antes, 255)
              	    ; Mais simples: relemos FS_TMPSZ e FS_TMPRAM e atualizamos
              	    ; Mas D foi sobrescrito... precisamos salvar D antes do I2C_MemWr.
              	    ; SOLUCAO: salvar D (bytes) em FS_TMP1 antes de gravar.
              	    ; Para nao refatorar todo o fluxo acima, usamos um truque:
              	    ; bytes_gravados = FS_TMPSZ se < 255, ou 255 se >= 255.
              	    ; Recalcula de FS_TMPSZ:
1DAF: 2A2EFC  	    LD HL, (FS_TMPSZ)
1DB2: 7C      	    LD A, H
1DB3: B7      	    OR A
1DB4: 2005    	    JR NZ, FS_WP_UPD255
1DB6: 7D      	    LD A, L
1DB7: FEFF    	    CP FS_DATAPG
1DB9: 3805    	    JR C, FS_WP_UPDLT
1DBB:         	FS_WP_UPD255:
1DBB: 01FF00  	    LD BC, FS_DATAPG        ; bytes gravados = 255
1DBE: 1803    	    JR FS_WP_UPDATE
1DC0:         	FS_WP_UPDLT:
1DC0: 0600    	    LD B, 0
1DC2: 4D      	    LD C, L                 ; bytes gravados = L
              	
1DC3:         	FS_WP_UPDATE:
              	    ; FS_TMPRAM += BC
1DC3: 2A30FC  	    LD HL, (FS_TMPRAM)
1DC6: 09      	    ADD HL, BC
1DC7: 2230FC  	    LD (FS_TMPRAM), HL
              	    ; FS_TMPSZ -= BC
1DCA: 2A2EFC  	    LD HL, (FS_TMPSZ)
1DCD: B7      	    OR A                    ; limpa carry
1DCE: ED42    	    SBC HL, BC
1DD0: 222EFC  	    LD (FS_TMPSZ), HL
1DD3: AF      	    XOR A                   ; Z = sucesso
1DD4: C9      	    RET
              	
1DD5:         	FS_WP_ERR:
1DD5: F1      	    POP AF
1DD6: E1      	    POP HL
1DD7: D1      	    POP DE
1DD8: C1      	    POP BC
1DD9: 3E01    	    LD A, 1
1DDB: B7      	    OR A
1DDC: C9      	    RET
              	
              	; FS_SET_NEXT: Escreve byte 0 da pagina A com valor B
              	;   On exit: Z=OK  NZ=erro
1DDD:         	FS_SET_NEXT:
1DDD: C5      	    PUSH BC
1DDE: D5      	    PUSH DE
1DDF: E5      	    PUSH HL
1DE0: 57      	    LD D, A
1DE1: 1E00    	    LD E, 0
1DE3: 78      	    LD A, B
1DE4: 322DFC  	    LD (FS_TMP1), A
1DE7: 212DFC  	    LD HL, FS_TMP1
1DEA: 010100  	    LD BC, 1
1DED: CD9318  	    CALL I2C_MemWr
1DF0: E1      	    POP HL
1DF1: D1      	    POP DE
1DF2: C1      	    POP BC
1DF3: C9      	    RET
              	
              	
              	
              	; FS_FIND_NAME: Busca FS_NAMBUF no diretorio
              	;   On exit: Z=encontrado (FS_CUR=idx, FS_WRKBUF=entrada)
              	;            NZ=nao encontrado
1DF4:         	FS_FIND_NAME:
1DF4: AF      	    XOR A
1DF5: 3202FC  	    LD (FS_CUR), A
1DF8: 0608    	    LD B, FS_MAXFILES
1DFA:         	FS_FN_LP:
1DFA: C5      	    PUSH BC
1DFB: CDEA1B  	    CALL FS_RD_ENTRY
1DFE: C22D1E  	    JP NZ, FS_FN_ERR
1E01: 3A10FC  	    LD A, (FS_WRKBUF + FS_O_FLAGS)
1E04: FE01    	    CP FS_FLAG_USED
1E06: 2017    	    JR NZ, FS_FN_NXT
1E08: 2123FC  	    LD HL, FS_NAMBUF
1E0B: 1103FC  	    LD DE, FS_WRKBUF + FS_O_NAME
1E0E: 0E08    	    LD C, FS_NAME_SZ
1E10:         	FS_FN_CMP:
1E10: 7E      	    LD   A, (HL)
1E11: 47      	    LD   B, A
1E12: 1A      	    LD   A, (DE)
1E13: B8      	    CP   B
1E14: C21F1E  	    JP  NZ, FS_FN_NXT
1E17: 23      	    INC HL
1E18: 13      	    INC DE
1E19: 0D      	    DEC C
1E1A: 20F4    	    JR NZ, FS_FN_CMP
1E1C: C1      	    POP BC
1E1D: AF      	    XOR A
1E1E: C9      	    RET
1E1F:         	FS_FN_NXT:
1E1F: 3A02FC  	    LD A, (FS_CUR)
1E22: 3C      	    INC A
1E23: 3202FC  	    LD (FS_CUR), A
1E26: C1      	    POP BC
1E27: 10D1    	    DJNZ FS_FN_LP
1E29: 3E01    	    LD A, 1
1E2B: B7      	    OR A
1E2C: C9      	    RET
1E2D:         	FS_FN_ERR:
1E2D: C1      	    POP BC
1E2E: 3E03    	    LD A, ERR_TOUT
1E30: B7      	    OR A
1E31: C9      	    RET
              	
              	
              	; **********************************************************************
              	; Handlers de erro comuns
              	; **********************************************************************
1E32:         	FS_ERR_I2C:
1E32: 216C1E  	    LD HL, str_i2cerr
1E35: CD8403  	    CALL PUTS
1E38: C9      	    RET
1E39:         	FS_ERR_I2C_POP:
1E39: C1      	    POP BC
1E3A: 216C1E  	    LD HL, str_i2cerr
1E3D: CD8403  	    CALL PUTS
1E40: C9      	    RET
1E41:         	FS_ERR_FULL:
1E41: 21771E  	    LD HL, str_dirfull
1E44: CD8403  	    CALL PUTS
1E47: C9      	    RET
1E48:         	FS_ERR_NOSPACE:
1E48: 21911E  	    LD HL, str_nospace
1E4B: CD8403  	    CALL PUTS
1E4E: C9      	    RET
1E4F:         	FS_ABORT:
1E4F: 21A81E  	    LD HL, str_abort
1E52: CD8403  	    CALL PUTS
1E55: C9      	    RET
              	
              	
              	; **********************************************************************
              	; STRINGS
              	; **********************************************************************
1E56:         	str_empty:
1E56: 2876617A	    .TEXT "(vazio)"
1E5A: 696F29  	
1E5D: 0D00    	    .DB CR, 0
              	
1E5F:         	str_nfiles:
1E5F: 20617271	    .TEXT " arquivo(s)"
1E63: 7569766F	
1E67: 287329  	
1E6A: 0D00    	    .DB CR, 0
              	
1E6C:         	str_i2cerr:
1E6C: 4572726F	    .TEXT "Erro I2C!"
1E70: 20493243	
1E74: 21      	
1E75: 0D00    	    .DB CR, 0
              	
1E77:         	str_dirfull:
1E77: 44697265	    .TEXT "Diretorio cheio! (max 8)"
1E7B: 746F7269	
1E7F: 6F206368	
1E83: 65696F21	
1E87: 20286D61	
1E8B: 78203829	
1E8F: 0D00    	    .DB CR, 0
              	
1E91:         	str_nospace:
1E91: 53656D20	    .TEXT "Sem espaco na EEPROM!"
1E95: 65737061	
1E99: 636F206E	
1E9D: 61204545	
1EA1: 50524F4D	
1EA5: 21      	
1EA6: 0D00    	    .DB CR, 0
              	
1EA8:         	str_abort:
1EA8: 43616E63	    .TEXT "Cancelado."
1EAC: 656C6164	
1EB0: 6F2E    	
1EB2: 0D00    	    .DB CR, 0
              	
1EB4:         	str_notfound:
1EB4: 4E616F20	    .TEXT "Nao encontrado."
1EB8: 656E636F	
1EBC: 6E747261	
1EC0: 646F2E  	
1EC3: 0D00    	    .DB CR, 0
              	
1EC5:         	str_running:
1EC5: 45786563	    .TEXT "Executando..."
1EC9: 7574616E	
1ECD: 646F2E2E	
1ED1: 2E      	
1ED2: 0D00    	    .DB CR, 0
              	
1ED4:         	str_saved:
1ED4: 41727175	    .TEXT "Arquivo salvo!"
1ED8: 69766F20	
1EDC: 73616C76	
1EE0: 6F21    	
1EE2: 0D00    	    .DB CR, 0
              	
1EE4:         	str_sure:
1EE4: 202D2043	    .TEXT " - Confirmar (S/N)? "
1EE8: 6F6E6669	
1EEC: 726D6172	
1EF0: 2028532F	
1EF4: 4E293F20	
1EF8: 0D00    	    .DB CR, 0
              	
1EFA:         	str_erased:
1EFA: 41706167	    .TEXT "Apagado."
1EFE: 61646F2E	
1F02: 0D00    	    .DB CR, 0
              	
1F04:         	str_fmt_ask:
1F04: 466F726D	    .TEXT "Formatar? Apaga tudo. (S/N):"
1F08: 61746172	
1F0C: 3F204170	
1F10: 61676120	
1F14: 7475646F	
1F18: 2E202853	
1F1C: 2F4E293A	
1F20: 0D00    	    .DB CR, 0
1F22:         	str_wait:
1F22: 41677561	    .TEXT "Aguarde..."
1F26: 7264652E	
1F2A: 2E2E    	
1F2C: 0D00    	    .DB CR, 0
1F2E:         	str_ok:
1F2E: 4F4B2E  	    .TEXT "OK."
1F31: 0D00    	    .DB CR, 0
              	
1F33:         	str_loadat:
1F33: 43617272	    .TEXT "Carregado em: "
1F37: 65676164	
1F3B: 6F20656D	
1F3F: 3A20    	
1F41: 0D00    	    .DB CR, 0
              	
1F43:         	str_notfmt:
1F43: 45455052	    .TEXT "EEPROM nao formatada. Use FORMAT."
1F47: 4F4D206E	
1F4B: 616F2066	
1F4F: 6F726D61	
1F53: 74616461	
1F57: 2E205573	
1F5B: 6520464F	
1F5F: 524D4154	
1F63: 2E      	
1F64: 0D00    	    .DB CR, 0
              	
1F66:         	str_dir_hdr:
1F66: 4E414D45	    .TEXT "NAME-SIZE-LOAD-1aPAG"
1F6A: 2D53495A	
1F6E: 452D4C4F	
1F72: 41442D31	
1F76: 61504147	
1F7A: 0D00    	    .DB CR, 0
              	#include "API.asm"
              	
              	; Não altera nenhum registrador
1F7C:         	DELAY_500MS:
1F7C: D5      	    PUSH DE
1F7D: 11F401  	    LD DE, $01F4
1F80: CD7B02  	    CALL H_Delay
1F83: D1      	    POP DE
1F84: C9      	    RET
              	
1F85:         	SET_DEFAULT_SERIAL_A:
1F85: 218A0F  	    LD    HL,TXDATA
1F88: 229AFB  	    LD    (PUTCH),HL ;USE THE BITBANG SERIAL TRANSMIT
1F8B: 219D0F  	    LD    HL,RXDATA
1F8E: 229CFB  	    LD    (GETCH),HL  ;USE THE BITBANG SERIAL RECEIVE
1F91: C9      	    RET
              	
1F92:         	SET_DEFAULT_SERIAL_B:
1F92: 21A90F  	    LD    HL,TXDATA_B
1F95: 229AFB  	    LD    (PUTCH),HL ;USE THE BITBANG SERIAL TRANSMIT
1F98: 21BC0F  	    LD    HL,RXDATA_B
1F9B: 229CFB  	    LD    (GETCH),HL  ;USE THE BITBANG SERIAL RECEIVE
1F9E: C9      	    RET
              	
              	;------------------------------------------------------------------------------
              	; Pegar 2 caracteres ASCII (0-9 A-F) converte em um byte em A
              	;------------------------------------------------------------------------------
1F9F: CD5916  	SERIAL_GET_HEX_A:   CALL GETCHR_S	; Get us a valid character to work with
1FA2: 47      	    LD   B,A	; Load it in B
1FA3: CD5916  	    CALL GETCHR_S	; Get us another character
1FA6: 4F      	    LD   C,A	; load it in C
1FA7: CD7516  	    CALL BCTOA	; Convert ASCII to byte
1FAA: C9      	    RET
              	
              	;------------------------------------------------------------------------------
              	; Pegar 4 caracteres ASCII (0-9 A-F) converte em HL
              	;------------------------------------------------------------------------------
1FAB:         	SERIAL_GET_HEX_HL:
1FAB: CD9F1F  	    CALL SERIAL_GET_HEX_A	        ; Endereco High -> H
1FAE: 67      		LD   H,A
1FAF: CD9F1F  		CALL SERIAL_GET_HEX_A	        ; Endereco Low -> L
1FB2: 6F      		LD   L,A
1FB3: C9      	    RET
              	
              	
              	
1FB4: 0D0A5A38	WELLCOME: .db CR, LF, "Z80 Mini Iniciado", CR, LF, 00H
1FB8: 30204D69	
1FBC: 6E692049	
1FC0: 6E696369	
1FC4: 61646F0D	
1FC8: 0A00    	
1FCA: 5A383020	WELLCOME_LCD: .db "Z80 Mini - Monitor v1", CR, 00H
1FCE: 4D696E69	
1FD2: 202D204D	
1FD6: 6F6E6974	
1FDA: 6F722076	
1FDE: 310D00  	
              	
              	
              	#include "MSBASIC.asm"
              	;==================================================================================
              	; The updates to the original BASIC within this file are copyright Grant Searle
              	;
              	; You have permission to use this for NON COMMERCIAL USE ONLY
              	; If you wish to use it elsewhere, please include an acknowledgement to myself.
              	;
              	; http://searle.hostei.com/grant/index.html
              	;
              	; eMail: home.micros01@btinternet.com
              	;
              	; If the above don't work, please perform an Internet search to see if I have
              	; updated the web page hosting service.
              	;
              	;==================================================================================
              	
              	; GENERAL EQUATES
              	
0003:         	CTRLC   .EQU    03H             ; Control "C"
0007:         	CTRLG   .EQU    07H             ; Control "G"
0008:         	BKSP    .EQU    08H             ; Back space
000A:         	LF      .EQU    0AH             ; Line feed
000C:         	CS      .EQU    0CH             ; Clear screen
000D:         	CR      .EQU    0DH             ; Carriage return
000F:         	CTRLO   .EQU    0FH             ; Control "O"
0011:         	CTRLQ	.EQU	11H		        ; Control "Q"
0012:         	CTRLR   .EQU    12H             ; Control "R"
0013:         	CTRLS   .EQU    13H             ; Control "S"
0015:         	CTRLU   .EQU    15H             ; Control "U"
001B:         	ESC     .EQU    1BH             ; Escape
007F:         	DEL     .EQU    7FH             ; Delete
              	
              	
              	; BASIC WORK SPACE LOCATIONS
              	
8000:         	WRKSPC  .EQU    8000H             ; BASIC Work space |32768|
8003:         	USR     .EQU    WRKSPC+3H           ; "USR (x)" jump
8006:         	OUTSUB  .EQU    WRKSPC+6H           ; "OUT p,n"
8007:         	OTPORT  .EQU    WRKSPC+7H           ; Port (p)
8009:         	DIVSUP  .EQU    WRKSPC+9H           ; Division support routine
800A:         	DIV1    .EQU    WRKSPC+0AH           ; <- Values
800E:         	DIV2    .EQU    WRKSPC+0EH           ; <-   to
8012:         	DIV3    .EQU    WRKSPC+12H           ; <-   be
8015:         	DIV4    .EQU    WRKSPC+15H           ; <-inserted
8017:         	SEED    .EQU    WRKSPC+17H           ; Random number seed
803A:         	LSTRND  .EQU    WRKSPC+3AH           ; Last random number
803E:         	INPSUB  .EQU    WRKSPC+3EH           ; #INP (x)" Routine
803F:         	INPORT  .EQU    WRKSPC+3FH           ; PORT (x)
8041:         	NULLS   .EQU    WRKSPC+41H           ; Number of nulls
8042:         	LWIDTH  .EQU    WRKSPC+42H           ; Terminal width
8043:         	COMMAN  .EQU    WRKSPC+43H           ; Width for commas
8044:         	NULFLG  .EQU    WRKSPC+44H           ; Null after input byte flag
8045:         	CTLOFG  .EQU    WRKSPC+45H           ; Control "O" flag
8046:         	LINESC  .EQU    WRKSPC+46H           ; Lines counter
8048:         	LINESN  .EQU    WRKSPC+48H           ; Lines number
804A:         	CHKSUM  .EQU    WRKSPC+4AH           ; Array load/save check sum
804C:         	NMIFLG  .EQU    WRKSPC+4CH           ; Flag for NMI break routine
804D:         	BRKFLG  .EQU    WRKSPC+4DH           ; Break flag
804E:         	RINPUT  .EQU    WRKSPC+4EH           ; Input reflection
8051:         	POINT   .EQU    WRKSPC+51H           ; "POINT" reflection (unused)
8054:         	PSET    .EQU    WRKSPC+54H           ; "SET"   reflection
8057:         	RESET   .EQU    WRKSPC+57H           ; "RESET" reflection
805A:         	STRSPC  .EQU    WRKSPC+5AH           ; Bottom of string space
805C:         	LINEAT  .EQU    WRKSPC+5CH           ; Current line number
805E:         	BASTXT  .EQU    WRKSPC+5EH           ; Pointer to start of program
8061:         	BUFFER  .EQU    WRKSPC+61H           ; Input buffer
8066:         	STACK   .EQU    WRKSPC+66H           ; Initial stack
80AB:         	CURPOS  .EQU    WRKSPC+0ABH          ; Character position on line
80AC:         	LCRFLG  .EQU    WRKSPC+0ACH          ; Locate/Create flag
80AD:         	TYPE    .EQU    WRKSPC+0ADH          ; Data type flag
80AE:         	DATFLG  .EQU    WRKSPC+0AEH          ; Literal statement flag
80AF:         	LSTRAM  .EQU    WRKSPC+0AFH          ; Last available RAM
80B1:         	TMSTPT  .EQU    WRKSPC+0B1H          ; Temporary string pointer
80B3:         	TMSTPL  .EQU    WRKSPC+0B3H          ; Temporary string pool
80BF:         	TMPSTR  .EQU    WRKSPC+0BFH          ; Temporary string
80C3:         	STRBOT  .EQU    WRKSPC+0C3H          ; Bottom of string space
80C5:         	CUROPR  .EQU    WRKSPC+0C5H          ; Current operator in EVAL
80C7:         	LOOPST  .EQU    WRKSPC+0C7H          ; First statement of loop
80C9:         	DATLIN  .EQU    WRKSPC+0C9H          ; Line of current DATA item
80CB:         	FORFLG  .EQU    WRKSPC+0CBH          ; "FOR" loop flag
80CC:         	LSTBIN  .EQU    WRKSPC+0CCH          ; Last byte entered
80CD:         	READFG  .EQU    WRKSPC+0CDH          ; Read/Input flag
80CE:         	BRKLIN  .EQU    WRKSPC+0CEH          ; Line of break
80D0:         	NXTOPR  .EQU    WRKSPC+0D0H          ; Next operator in EVAL
80D2:         	ERRLIN  .EQU    WRKSPC+0D2H          ; Line of error
80D4:         	CONTAD  .EQU    WRKSPC+0D4H          ; Where to CONTinue
80D6:         	PROGND  .EQU    WRKSPC+0D6H          ; End of program
80D8:         	VAREND  .EQU    WRKSPC+0D8H          ; End of variables
80DA:         	ARREND  .EQU    WRKSPC+0DAH          ; End of arrays
80DC:         	NXTDAT  .EQU    WRKSPC+0DCH          ; Next data item
80DE:         	FNRGNM  .EQU    WRKSPC+0DEH          ; Name of FN argument
80E0:         	FNARG   .EQU    WRKSPC+0E0H          ; FN argument value
80E4:         	FPREG   .EQU    WRKSPC+0E4H          ; Floating point register
80E7:         	FPEXP   .EQU    FPREG+3         ; Floating point exponent
80E8:         	SGNRES  .EQU    WRKSPC+0E8H     ; Sign of result
80E9:         	PBUFF   .EQU    WRKSPC+0E9H     ; Number print buffer
80F6:         	MULVAL  .EQU    WRKSPC+0F6H     ; Multiplier
80F9:         	PROGST  .EQU    WRKSPC+0F9H     ; Start of program text area |33280 + 249 = 33529|
815D:         	STLOOK  .EQU    WRKSPC+15DH     ; Start of memory test
              	
              	; BASIC ERROR CODE VALUES
              	
0000:         	NF      .EQU    00H             ; NEXT without FOR
0002:         	SN      .EQU    02H             ; Syntax error
0004:         	RG      .EQU    04H             ; RETURN without GOSUB
0006:         	OD      .EQU    06H             ; Out of DATA
0008:         	FC      .EQU    08H             ; Function call error
000A:         	OV      .EQU    0AH             ; Overflow
000C:         	OM      .EQU    0CH             ; Out of memory
000E:         	UL      .EQU    0EH             ; Undefined line number
0010:         	BS      .EQU    10H             ; Bad subscript
0012:         	DD      .EQU    12H             ; Re-DIMensioned array
0014:         	DZ      .EQU    14H             ; Division by zero (/0)
0016:         	ID      .EQU    16H             ; Illegal direct
0018:         	TM      .EQU    18H             ; Type miss-match
001A:         	OS      .EQU    1AH             ; Out of string space
001C:         	LS      .EQU    1CH             ; String too long
001E:         	ST      .EQU    1EH             ; String formula too complex
0020:         	CN      .EQU    20H             ; Can't CONTinue
0022:         	UF      .EQU    22H             ; UnDEFined FN function
0024:         	MO      .EQU    24H             ; Missing operand
0026:         	HX      .EQU    26H             ; HEX error
0028:         	BN      .EQU    28H             ; BIN error
              	
              	        .ORG    $6000
              	
6000: C30660  	COLD:   JP      STARTB          ; Jump for cold start
6003: C3A460  	WARM:   JP      WARMST          ; Jump for warm start
6006:         	STARTB: 
6006: DD210000	        LD      IX,0            ; Flag cold start
600A: C31160  	        JP      CSTART          ; Jump to initialise
              	
600D: AE68    	        .WORD   DEINT           ; Get integer -32768 to 32767
600F: 2470    	        .WORD   ABPASS          ; Return integer in AB
              	
              	
6011: 210080  	CSTART: LD      HL,WRKSPC       ; Start of workspace RAM
6014: F9      	        LD      SP,HL           ; Set up a temporary stack
6015: C3437C  	        JP      INITST          ; Go to initialise
              	
6018: 11C562  	INIT:   LD      DE,INITAB       ; Initialise workspace
601B: 0663    	        LD      B,INITBE-INITAB+3; Bytes to copy
601D: 210080  	        LD      HL,WRKSPC       ; Into workspace RAM
6020: 1A      	COPY:   LD      A,(DE)          ; Get source
6021: 77      	        LD      (HL),A          ; To destination
6022: 23      	        INC     HL              ; Next destination
6023: 13      	        INC     DE              ; Next source
6024: 05      	        DEC     B               ; Count bytes
6025: C22060  	        JP      NZ,COPY         ; More to move
6028: F9      	        LD      SP,HL           ; Temporary stack
6029: CDC664  	        CALL    CLREG           ; Clear registers and stack
602C: CDA46A  	        CALL    PRNTCRLF        ; Output CRLF
602F: 32AA80  	        LD      (BUFFER+72+1),A ; Mark end of buffer
6032: 32F980  	        LD      (PROGST),A      ; Initialise program area
6035: 21CF60  	MSIZE:  LD      HL,MEMMSG       ; Point to message
6038: CD4271  	        CALL    PRS             ; Output "Memory size"
603B: CDE364  	        CALL    PROMPT          ; Get input with '?'
603E: CDFC67  	        CALL    GETCHR          ; Get next character
6041: B7      	        OR      A               ; Set flags
6042: C25A60  	        JP      NZ,TSTMEM       ; If number - Test if RAM there
6045: 215D81  	        LD      HL,STLOOK       ; Point to start of RAM
6048: 23      	MLOOP:  INC     HL              ; Next byte
6049: 7C      	        LD      A,H             ; Above address FFFF ?
604A: B5      	        OR      L
604B: CA6C60  	        JP      Z,SETTOP        ; Yes - 64K RAM
604E: 7E      	        LD      A,(HL)          ; Get contents
604F: 47      	        LD      B,A             ; Save it
6050: 2F      	        CPL                     ; Flip all bits
6051: 77      	        LD      (HL),A          ; Put it back
6052: BE      	        CP      (HL)            ; RAM there if same
6053: 70      	        LD      (HL),B          ; Restore old contents
6054: CA4860  	        JP      Z,MLOOP         ; If RAM - test next byte
6057: C36C60  	        JP      SETTOP          ; Top of RAM found
              	
605A: CDC868  	TSTMEM: CALL    ATOH            ; Get high memory into DE
605D: B7      	        OR      A               ; Set flags on last byte
605E: C29463  	        JP      NZ,SNERR        ; ?SN Error if bad character
6061: EB      	        EX      DE,HL           ; Address into HL
6062: 2B      	        DEC     HL              ; Back one byte
6063: 3ED9    	        LD      A,11011001B     ; Test byte
6065: 46      	        LD      B,(HL)          ; Get old contents
6066: 77      	        LD      (HL),A          ; Load test byte
6067: BE      	        CP      (HL)            ; RAM there if same
6068: 70      	        LD      (HL),B          ; Restore old contents
6069: C23560  	        JP      NZ,MSIZE        ; Ask again if no RAM
              	
606C: 2B      	SETTOP: DEC     HL              ; Back one byte
606D: 115C81  	        LD      DE,STLOOK-1     ; See if enough RAM
6070: CD5C66  	        CALL    CPDEHL          ; Compare DE with HL
6073: DA3560  	        JP      C,MSIZE         ; Ask again if not enough RAM
6076: 11CEFF  	        LD      DE,0-50         ; 50 Bytes string space
6079: 22AF80  	        LD      (LSTRAM),HL     ; Save last available RAM
607C: 19      	        ADD     HL,DE           ; Allocate string space
607D: 225A80  	        LD      (STRSPC),HL     ; Save string space
6080: CDA164  	        CALL    CLRPTR          ; Clear program area
6083: 2A5A80  	        LD      HL,(STRSPC)     ; Get end of memory
6086: 11EFFF  	        LD      DE,0-17         ; Offset for free bytes
6089: 19      	        ADD     HL,DE           ; Adjust HL
608A: 11F980  	        LD      DE,PROGST       ; Start of program text
608D: 7D      	        LD      A,L             ; Get LSB
608E: 93      	        SUB     E               ; Adjust it
608F: 6F      	        LD      L,A             ; Re-save
6090: 7C      	        LD      A,H             ; Get MSB
6091: 9A      	        SBC     A,D             ; Adjust it
6092: 67      	        LD      H,A             ; Re-save
6093: E5      	        PUSH    HL              ; Save bytes free
6094: 21BC60  	        LD      HL,SIGNON       ; Sign-on message
6097: CD4271  	        CALL    PRS             ; Output string
609A: E1      	        POP     HL              ; Get bytes free back
609B: CDE577  	        CALL    PRNTHL          ; Output amount of free memory
609E: 21AD60  	        LD      HL,BFREE        ; " Bytes free" message
60A1: CD4271  	        CALL    PRS             ; Output string
              	
60A4: 316680  	WARMST: LD      SP,STACK        ; Temporary stack
60A7: CDC664  	BRKRET: CALL    CLREG           ; Clear registers and stack
60AA: C3DF63  	        JP      PRNTOK          ; Go to get command line
              	
60AD: 20427974	BFREE:  .BYTE   " Bytes free",CR,LF,0,0
60B1: 65732066	
60B5: 7265650D	
60B9: 0A0000  	
              	
60BC: 5A383020	SIGNON: .BYTE "Z80 BASIC v4.7b",CR,CR,0,0
60C0: 42415349	
60C4: 43207634	
60C8: 2E37620D	
60CC: 0D0000  	
              	        ;.BYTE   "Z80 BASIC Ver 4.7b",CR,LF
              	        ;.BYTE   "Copyright ",40,"C",41
              	        ;.BYTE   " 1978 by Microsoft",CR,LF,0,0
              	
60CF: 4D656D6F	MEMMSG: .BYTE   "Memory top",0
60D3: 72792074	
60D7: 6F7000  	
              	
              	; FUNCTION ADDRESS TABLE (Quando precisa passar parametro?)
              	
60DA: 5A76    	FNCTAB: .WORD   SGN             ; $B6
60DC: 1E77    	        .WORD   INT             ; $B7
60DE: 7076    	        .WORD   ABS             ; $B8
60E0: 0380    	        .WORD   USR             ; $B9
60E2: 0270    	        .WORD   FRE             ; $BA
60E4: 8773    	        .WORD   INP             ; $BB
60E6: 3070    	        .WORD   POS             ; $BC
60E8: E478    	        .WORD   SQR             ; $BD
60EA: C379    	        .WORD   RND             ; $BE
60EC: FF74    	        .WORD   LOG             ; $BF
60EE: 3279    	        .WORD   EXP             ; $C0
60F0: 387A    	        .WORD   COS             ; $C1
60F2: 3E7A    	        .WORD   SIN             ; $C2
60F4: 9F7A    	        .WORD   TAN             ; $C3
60F6: B47A    	        .WORD   ATN             ; $C4
60F8: DB73    	        .WORD   PEEK            ; $C5
60FA: 1F7B    	        .WORD   DEEK            ; $C6
60FC: 5180    	        .WORD   POINT           ; $C7
60FE: B472    	        .WORD   LEN             ; $C8
6100: CC70    	        .WORD   STR             ; $C9
6102: 4E73    	        .WORD   VAL             ; $CA
6104: C372    	        .WORD   ASC             ; $CB
6106: D472    	        .WORD   CHR             ; $CC
6108: 417B    	        .WORD   HEX             ; $CD
610A: D47B    	        .WORD   BIN             ; $CE
610C: E472    	        .WORD   LEFT            ; $CF
610E: 1473    	        .WORD   RIGHT           ; $D0
6110: 1E73    	        .WORD   MID             ; $D1   
              	        
              	
              	; RESERVED WORD LIST
              	
6112: C54E44  	WORDS:  .BYTE   'E'+80H,"ND"            ; $80  WORDTB
6115: C64F52  	        .BYTE   'F'+80H,"OR"            ; $81
6118: CE455854	        .BYTE   'N'+80H,"EXT"           ; $82
611C: C4415441	        .BYTE   'D'+80H,"ATA"           ; $83
6120: C94E5055	        .BYTE   'I'+80H,"NPUT"          ; $84
6124: 54      	
6125: C4494D  	        .BYTE   'D'+80H,"IM"            ; $85
6128: D2454144	        .BYTE   'R'+80H,"EAD"           ; $86
612C: CC4554  	        .BYTE   'L'+80H,"ET"            ; $87
612F: C74F544F	        .BYTE   'G'+80H,"OTO"           ; $88
6133: D2554E  	        .BYTE   'R'+80H,"UN"            ; $89
6136: C946    	        .BYTE   'I'+80H,"F"             ; $8A
6138: D2455354	        .BYTE   'R'+80H,"ESTORE"        ; $8B
613C: 4F5245  	
613F: C74F5355	        .BYTE   'G'+80H,"OSUB"          ; $8C
6143: 42      	
6144: D2455455	        .BYTE   'R'+80H,"ETURN"         ; $8D
6148: 524E    	
614A: D2454D  	        .BYTE   'R'+80H,"EM"            ; $8E
614D: D3544F50	        .BYTE   'S'+80H,"TOP"           ; $8F
6151: CF5554  	        .BYTE   'O'+80H,"UT"            ; $90
6154: CF4E    	        .BYTE   'O'+80H,"N"             ; $91
6156: CE554C4C	        .BYTE   'N'+80H,"ULL"           ; $92
615A: D7414954	        .BYTE   'W'+80H,"AIT"           ; $93
615E: C44546  	        .BYTE   'D'+80H,"EF"            ; $94
6161: D04F4B45	        .BYTE   'P'+80H,"OKE"           ; $95
6165: C44F4B45	        .BYTE   'D'+80H,"OKE"           ; $96
6169: D4494D45	        .BYTE   'T'+80H,"IME" ;time i2c ; $97 ; LIVRE
616D: CC494E45	        .BYTE   'L'+80H,"INES"          ; $98
6171: 53      	
6172: C34C53  	        .BYTE   'C'+80H,"LS"            ; $99
6175: D7494454	        .BYTE   'W'+80H,"IDTH"          ; $9A
6179: 48      	
617A: CD4F4E49	        .BYTE   'M'+80H,"ONITOR"        ; $9B
617E: 544F52  	
6181: D34554  	        .BYTE   'S'+80H,"ET"            ; $9C
6184: D2455345	        .BYTE   'R'+80H,"ESET"          ; $9D
6188: 54      	
6189: D052494E	        .BYTE   'P'+80H,"RINT"          ; $9E
618D: 54      	
618E: C34F4E54	        .BYTE   'C'+80H,"ONT"           ; $9F
6192: CC495354	        .BYTE   'L'+80H,"IST"           ; $A0 
6196: C34C4541	        .BYTE   'C'+80H,"LEAR"          ; $A1
619A: 52      	
619B: C34C4F41	        .BYTE   'C'+80H,"LOAD"          ; $A2
619F: 44      	
61A0: C3534156	        .BYTE   'C'+80H,"SAVE"          ; $A3
61A4: 45      	
61A5: CE4557  	        .BYTE   'N'+80H,"EW"            ; $A4
              	        
              	
61A8: D4414228	        .BYTE   'T'+80H,"AB("           ; $A5
61AC: D44F    	        .BYTE   'T'+80H,"O"             ; $A6
61AE: C64E    	        .BYTE   'F'+80H,"N"             ; $A7
61B0: D3504328	        .BYTE   'S'+80H,"PC("           ; $A8
61B4: D448454E	        .BYTE   'T'+80H,"HEN"           ; $A9
61B8: CE4F54  	        .BYTE   'N'+80H,"OT"            ; $AA
61BB: D3544550	        .BYTE   'S'+80H,"TEP"           ; $AB
              	
61BF: AB      	        .BYTE   '+'+80H                 ; $AC
61C0: AD      	        .BYTE   '-'+80H                 ; $AD
61C1: AA      	        .BYTE   '*'+80H                 ; $AE
61C2: AF      	        .BYTE   '/'+80H                 ; $AF
61C3: DE      	        .BYTE   '^'+80H                 ; $B0
61C4: C14E44  	        .BYTE   'A'+80H,"ND"            ; $B1
61C7: CF52    	        .BYTE   'O'+80H,"R"             ; $B2
61C9: BE      	        .BYTE   '>'+80H                 ; $B3
61CA: BD      	        .BYTE   '='+80H                 ; $B4
61CB: BC      	        .BYTE   '<'+80H                 ; $B5
              	
61CC: D3474E  	        .BYTE   'S'+80H,"GN"            ; $B6  FNCTAB
61CF: C94E54  	        .BYTE   'I'+80H,"NT"            ; $B7
61D2: C14253  	        .BYTE   'A'+80H,"BS"            ; $B8
61D5: D55352  	        .BYTE   'U'+80H,"SR"            ; $B9
61D8: C65245  	        .BYTE   'F'+80H,"RE"            ; $BA
61DB: C94E50  	        .BYTE   'I'+80H,"NP"            ; $BB
61DE: D04F53  	        .BYTE   'P'+80H,"OS"            ; $BC
61E1: D35152  	        .BYTE   'S'+80H,"QR"            ; $BD
61E4: D24E44  	        .BYTE   'R'+80H,"ND"            ; $BE
61E7: CC4F47  	        .BYTE   'L'+80H,"OG"            ; $BF
61EA: C55850  	        .BYTE   'E'+80H,"XP"            ; $C0
61ED: C34F53  	        .BYTE   'C'+80H,"OS"            ; $C1
61F0: D3494E  	        .BYTE   'S'+80H,"IN"            ; $C2
61F3: D4414E  	        .BYTE   'T'+80H,"AN"            ; $C3
61F6: C1544E  	        .BYTE   'A'+80H,"TN"            ; $C4
61F9: D045454B	        .BYTE   'P'+80H,"EEK"           ; $C5
61FD: C445454B	        .BYTE   'D'+80H,"EEK"           ; $C6
6201: D04F494E	        .BYTE   'P'+80H,"OINT"          ; $C7
6205: 54      	
6206: CC454E  	        .BYTE   'L'+80H,"EN"            ; $C8
6209: D3545224	        .BYTE   'S'+80H,"TR$"           ; $C9
620D: D6414C  	        .BYTE   'V'+80H,"AL"            ; $CA
6210: C15343  	        .BYTE   'A'+80H,"SC"            ; $CB
6213: C3485224	        .BYTE   'C'+80H,"HR$"           ; $CC
6217: C8455824	        .BYTE   'H'+80H,"EX$"           ; $CD
621B: C2494E24	        .BYTE   'B'+80H,"IN$"           ; $CE
621F: CC454654	        .BYTE   'L'+80H,"EFT$"          ; $CF
6223: 24      	
6224: D2494748	        .BYTE   'R'+80H,"IGHT$"         ; $D0
6228: 5424    	
622A: CD494424	        .BYTE   'M'+80H,"ID$"           ; $D1
              	
              	
              	        ; Diego
622E: C4494547	        .BYTE   'D'+80H,'IEGO'
6232: 4F      	
6233: C352555A	        .BYTE   'C'+80H,'RUZ'
              	
6237: 80      	        .BYTE   80H             ; End of list marker
              	
              	; KEYWORD ADDRESS TABLE
              	
6238: 4668    	WORDTB: .WORD   PEND            ; $80
623A: 3367    	        .WORD   FOR             ; $81
623C: 1E6C    	        .WORD   NEXT            ; $82
623E: 9369    	        .WORD   DATA            ; $83
6240: 256B    	        .WORD   INPUT           ; $84
6242: 5A6E    	        .WORD   DIM             ; $85
6244: 546B    	        .WORD   READ            ; $86
6246: AA69    	        .WORD   LET             ; $87
6248: 5069    	        .WORD   GOTO            ; $88
624A: 3369    	        .WORD   RUN             ; $89
624C: 226A    	        .WORD   IF              ; $8A
624E: 0C68    	        .WORD   RESTOR          ; $8B
6250: 3F69    	        .WORD   GOSUB           ; $8C
6252: 6E69    	        .WORD   RETURN          ; $8D
6254: 9569    	        .WORD   REM             ; $8E
6256: 4468    	        .WORD   STOP            ; $8F
6258: 9373    	        .WORD   POUT            ; $90
625A: 046A    	        .WORD   ON              ; $91
625C: 8568    	        .WORD   NULL            ; $92
625E: 9973    	        .WORD   WAIT            ; $93
6260: 3870    	        .WORD   DEF             ; $94
6262: E273    	        .WORD   POKE            ; $95
6264: 2A7B    	        .WORD   DOKE            ; $96
6266: 9569    	        .WORD   REM             ; $97 ; LIVRE
6268: 107B    	        .WORD   LINES           ; $98
626A: 037B    	        .WORD   CLS             ; $99
626C: 087B    	        .WORD   WIDTH           ; $9A
626E: 407C    	        .WORD   MONITR          ; $9B
6270: 5480    	        .WORD   PSET            ; $9C
6272: 5780    	        .WORD   RESET           ; $9D
6274: 466A    	        .WORD   PRINT           ; $9E
6276: 7268    	        .WORD   CONT            ; $9F
6278: A866    	        .WORD   LIST            ; $A0
627A: ED68    	        .WORD   CLEAR           ; $A1
627C: 5A7C    	        .WORD   EELOAD ; LOAD   ; $A2
627E: 717C    	        .WORD   EESAVE ; SAVE   ; $A3
6280: A064    	        .WORD   NEW             ; $A4
              	        
              	
              	        ; Diego
6282:         	custtab:
6282: 887C    	        .WORD diego
6284: 8F7C    	        .WORD cruz
              	
              	; RESERVED WORD TOKEN VALUES
              	
0080:         	ZEND    .EQU    080H            ; END
0081:         	ZFOR    .EQU    081H            ; FOR
0083:         	ZDATA   .EQU    083H            ; DATA
0088:         	ZGOTO   .EQU    088H            ; GOTO
008C:         	ZGOSUB  .EQU    08CH            ; GOSUB
008E:         	ZREM    .EQU    08EH            ; REM
009E:         	ZPRINT  .EQU    09EH            ; PRINT
00A4:         	ZNEW    .EQU    0A4H            ; NEW
00D2:         	ZBYE	.equ	   0d2h			   ; BYE
              	
00A5:         	ZTAB    .EQU    0A5H            ; TAB
00A6:         	ZTO     .EQU    0A6H            ; TO
00A7:         	ZFN     .EQU    0A7H            ; FN
00A8:         	ZSPC    .EQU    0A8H            ; SPC
00A9:         	ZTHEN   .EQU    0A9H            ; THEN
00AA:         	ZNOT    .EQU    0AAH            ; NOT
00AB:         	ZSTEP   .EQU    0ABH            ; STEP
              	
00AC:         	ZPLUS   .EQU    0ACH            ; +
00AD:         	ZMINUS  .EQU    0ADH            ; -
00AE:         	ZTIMES  .EQU    0AEH            ; *
00AF:         	ZDIV    .EQU    0AFH            ; /
00B2:         	ZOR     .EQU    0B2H            ; OR
00B3:         	ZGTR    .EQU    0B3H            ; >
00B4:         	ZEQUAL  .EQU    0B4H            ; M
00B5:         	ZLTH    .EQU    0B5H            ; <
00B6:         	ZSGN    .EQU    0B6H            ; SGN
00C7:         	ZPOINT  .EQU    0C7H            ; POINT
00CF:         	ZLEFT   .EQU    0CDH +2         ; LEFT$
              	
              	; ARITHMETIC PRECEDENCE TABLE
              	
6286: 79      	PRITAB: .BYTE   79H             ; Precedence value
6287: CC77    	        .WORD   PADD            ; FPREG = <last> + FPREG
              	
6289: 79      	        .BYTE   79H             ; Precedence value
628A: 0074    	        .WORD   PSUB            ; FPREG = <last> - FPREG
              	
628C: 7C      	        .BYTE   7CH             ; Precedence value
628D: 3E75    	        .WORD   MULT            ; PPREG = <last> * FPREG
              	
628F: 7C      	        .BYTE   7CH             ; Precedence value
6290: 9F75    	        .WORD   DIV             ; FPREG = <last> / FPREG
              	
6292: 7F      	        .BYTE   7FH             ; Precedence value
6293: ED78    	        .WORD   POWER           ; FPREG = <last> ^ FPREG
              	
6295: 50      	        .BYTE   50H             ; Precedence value
6296: B36D    	        .WORD   PAND            ; FPREG = <last> AND FPREG
              	
6298: 46      	        .BYTE   46H             ; Precedence value
6299: B26D    	        .WORD   POR             ; FPREG = <last> OR FPREG
              	
              	; BASIC ERROR CODE LIST
              	
629B: 4E46    	ERRORS: .BYTE   "NF"            ; NEXT without FOR
629D: 534E    	        .BYTE   "SN"            ; Syntax error
629F: 5247    	        .BYTE   "RG"            ; RETURN without GOSUB
62A1: 4F44    	        .BYTE   "OD"            ; Out of DATA
62A3: 4643    	        .BYTE   "FC"            ; Illegal function call
62A5: 4F56    	        .BYTE   "OV"            ; Overflow error
62A7: 4F4D    	        .BYTE   "OM"            ; Out of memory
62A9: 554C    	        .BYTE   "UL"            ; Undefined line
62AB: 4253    	        .BYTE   "BS"            ; Bad subscript
62AD: 4444    	        .BYTE   "DD"            ; Re-DIMensioned array
62AF: 2F30    	        .BYTE   "/0"            ; Division by zero
62B1: 4944    	        .BYTE   "ID"            ; Illegal direct
62B3: 544D    	        .BYTE   "TM"            ; Type mis-match
62B5: 4F53    	        .BYTE   "OS"            ; Out of string space
62B7: 4C53    	        .BYTE   "LS"            ; String too long
62B9: 5354    	        .BYTE   "ST"            ; String formula too complex
62BB: 434E    	        .BYTE   "CN"            ; Can't CONTinue
62BD: 5546    	        .BYTE   "UF"            ; Undefined FN function
62BF: 4D4F    	        .BYTE   "MO"            ; Missing operand
62C1: 4858    	        .BYTE   "HX"            ; HEX error
62C3: 424E    	        .BYTE   "BN"            ; BIN error
              	
              	; INITIALISATION TABLE -------------------------------------------------------
              	
62C5: C3A460  	INITAB: JP      WARMST          ; Warm start jump
62C8: C3C368  	        JP      FCERR           ; "USR (X)" jump (Set to Error)
62CB: D300    	        OUT     (0),A           ; "OUT p,n" skeleton
62CD: C9      	        RET
62CE: D600    	        SUB     0               ; Division support routine
62D0: 6F      	        LD      L,A
62D1: 7C      	        LD      A,H
62D2: DE00    	        SBC     A,0
62D4: 67      	        LD      H,A
62D5: 78      	        LD      A,B
62D6: DE00    	        SBC     A,0
62D8: 47      	        LD      B,A
62D9: 3E00    	        LD      A,0
62DB: C9      	        RET
62DC: 000000  	        .BYTE   0,0,0                   ; Random number seed table used by RND
62DF: 354ACA99	        .BYTE   035H,04AH,0CAH,099H     ;-2.65145E+07
62E3: 391C7698	        .BYTE   039H,01CH,076H,098H     ; 1.61291E+07
62E7: 2295B398	        .BYTE   022H,095H,0B3H,098H     ;-1.17691E+07
62EB: 0ADD4798	        .BYTE   00AH,0DDH,047H,098H     ; 1.30983E+07
62EF: 53D19999	        .BYTE   053H,0D1H,099H,099H     ;-2-01612E+07
62F3: 0A1A9F98	        .BYTE   00AH,01AH,09FH,098H     ;-1.04269E+07
62F7: 65BCCD98	        .BYTE   065H,0BCH,0CDH,098H     ;-1.34831E+07
62FB: D6773E98	        .BYTE   0D6H,077H,03EH,098H     ; 1.24825E+07
62FF: 52C74F80	        .BYTE   052H,0C7H,04FH,080H     ; Last random number
6303: DB00    	        IN      A,(0)           ; INP (x) skeleton
6305: C9      	        RET
6306: 01      	        .BYTE   1               ; POS (x) number (1)
6307: FF      	        .BYTE   255             ; Terminal width (255 = no auto CRLF)
6308: 1C      	        .BYTE   28              ; Width for commas (3 columns)
6309: 00      	        .BYTE   0               ; No nulls after input bytes
630A: 00      	        .BYTE   0               ; Output enabled (^O off)
630B: 1400    	        .WORD   20              ; Initial lines counter
630D: 1400    	        .WORD   20              ; Initial lines number
630F: 0000    	        .WORD   0               ; Array load/save check sum
6311: 00      	        .BYTE   0               ; Break not by NMI
6312: 00      	        .BYTE   0               ; Break flag
6313: C3D965  	        JP      TTYLIN          ; Input reflection (set to TTY)
6316: C30000  	        JP      $0000           ; POINT reflection unused
6319: C30000  	        JP      $0000           ; SET reflection
631C: C30000  	        JP      $0000          	; RESET reflection
631F: 5D81    	        .WORD   STLOOK          ; Temp string space
6321: FEFF    	        .WORD   -2              ; Current line number (cold)
6323: FA80    	        .WORD   PROGST+1        ; Start of program text
6325:         	INITBE:                         
              	
              	; END OF INITIALISATION TABLE ---------------------------------------------------
              	
6325: 20457272	ERRMSG: .BYTE   " Error",0
6329: 6F7200  	
632C: 20696E20	INMSG:  .BYTE   " in ",0
6330: 00      	
6330:         	ZERBYT  .EQU    $-1             ; A zero byte
6331: 4F6B0D0A	OKMSG:  .BYTE   "Ok",CR,LF,0,0
6335: 0000    	
6337: 42726561	BRKMSG: .BYTE   "Break",0
633B: 6B00    	
              	
633D: 210400  	BAKSTK: LD      HL,4            ; Look for "FOR" block with
6340: 39      	        ADD     HL,SP           ; same index as specified
6341: 7E      	LOKFOR: LD      A,(HL)          ; Get block ID
6342: 23      	        INC     HL              ; Point to index address
6343: FE81    	        CP      ZFOR            ; Is it a "FOR" token
6345: C0      	        RET     NZ              ; No - exit
6346: 4E      	        LD      C,(HL)          ; BC = Address of "FOR" index
6347: 23      	        INC     HL
6348: 46      	        LD      B,(HL)
6349: 23      	        INC     HL              ; Point to sign of STEP
634A: E5      	        PUSH    HL              ; Save pointer to sign
634B: 69      	        LD      L,C             ; HL = address of "FOR" index
634C: 60      	        LD      H,B
634D: 7A      	        LD      A,D             ; See if an index was specified
634E: B3      	        OR      E               ; DE = 0 if no index specified
634F: EB      	        EX      DE,HL           ; Specified index into HL
6350: CA5763  	        JP      Z,INDFND        ; Skip if no index given
6353: EB      	        EX      DE,HL           ; Index back into DE
6354: CD5C66  	        CALL    CPDEHL          ; Compare index with one given
6357: 010D00  	INDFND: LD      BC,16-3         ; Offset to next block
635A: E1      	        POP     HL              ; Restore pointer to sign
635B: C8      	        RET     Z               ; Return if block found
635C: 09      	        ADD     HL,BC           ; Point to next block
635D: C34163  	        JP      LOKFOR          ; Keep on looking
              	
6360: CD7A63  	MOVUP:  CALL    ENFMEM          ; See if enough memory
6363: C5      	MOVSTR: PUSH    BC              ; Save end of source
6364: E3      	        EX      (SP),HL         ; Swap source and dest" end
6365: C1      	        POP     BC              ; Get end of destination
6366: CD5C66  	MOVLP:  CALL    CPDEHL          ; See if list moved
6369: 7E      	        LD      A,(HL)          ; Get byte
636A: 02      	        LD      (BC),A          ; Move it
636B: C8      	        RET     Z               ; Exit if all done
636C: 0B      	        DEC     BC              ; Next byte to move to
636D: 2B      	        DEC     HL              ; Next byte to move
636E: C36663  	        JP      MOVLP           ; Loop until all bytes moved
              	
6371: E5      	CHKSTK: PUSH    HL              ; Save code string address
6372: 2ADA80  	        LD      HL,(ARREND)     ; Lowest free memory
6375: 0600    	        LD      B,0             ; BC = Number of levels to test
6377: 09      	        ADD     HL,BC           ; 2 Bytes for each level
6378: 09      	        ADD     HL,BC
6379: 3E      	        .BYTE   3EH             ; Skip "PUSH HL"
637A: E5      	ENFMEM: PUSH    HL              ; Save code string address
637B: 3ED0    	        LD      A,0D0H ;LOW -48 ; 48 Bytes minimum RAM
637D: 95      	        SUB     L
637E: 6F      	        LD      L,A
637F: 3EFF    	        LD      A,0FFH; HIGH (-48) ; 48 Bytes minimum RAM
6381: 9C      	        SBC     A,H
6382: DA8963  	        JP      C,OMERR         ; Not enough - ?OM Error
6385: 67      	        LD      H,A
6386: 39      	        ADD     HL,SP           ; Test if stack is overflowed
6387: E1      	        POP     HL              ; Restore code string address
6388: D8      	        RET     C               ; Return if enough mmory
6389: 1E0C    	OMERR:  LD      E,OM            ; ?OM Error
638B: C3A863  	        JP      ERROR
              	
638E: 2AC980  	DATSNR: LD      HL,(DATLIN)     ; Get line of current DATA item
6391: 225C80  	        LD      (LINEAT),HL     ; Save as current line
6394: 1E02    	SNERR:  LD      E,SN            ; ?SN Error
6396: 01      	        .BYTE   01H             ; Skip "LD E,DZ"
6397: 1E14    	DZERR:  LD      E,DZ            ; ?/0 Error
6399: 01      	        .BYTE   01H             ; Skip "LD E,NF"
639A: 1E00    	NFERR:  LD      E,NF            ; ?NF Error
639C: 01      	        .BYTE   01H             ; Skip "LD E,DD"
639D: 1E12    	DDERR:  LD      E,DD            ; ?DD Error
639F: 01      	        .BYTE   01H             ; Skip "LD E,UF"
63A0: 1E22    	UFERR:  LD      E,UF            ; ?UF Error
63A2: 01      	        .BYTE   01H             ; Skip "LD E,OV
63A3: 1E0A    	OVERR:  LD      E,OV            ; ?OV Error
63A5: 01      	        .BYTE   01H             ; Skip "LD E,TM"
63A6: 1E18    	TMERR:  LD      E,TM            ; ?TM Error
              	
63A8:         	ERROR:  
63A8: CDC664  	        CALL    CLREG           ; Clear registers and stack
63AB: 324580  	        LD      (CTLOFG),A      ; Enable output (A is 0)
63AE: CD976A  	        CALL    STTLIN          ; Start new line
63B1: 219B62  	        LD      HL,ERRORS       ; Point to error codes
63B4: 57      	        LD      D,A             ; D = 0 (A is 0)
63B5: 3E3F    	        LD      A,'?'
63B7: CD6D66  	        CALL    OUTC            ; Output '?'
63BA: 19      	        ADD     HL,DE           ; Offset to correct error code
63BB: 7E      	        LD      A,(HL)          ; First character
63BC: CD6D66  	        CALL    OUTC            ; Output it
63BF: CDFC67  	        CALL    GETCHR          ; Get next character
63C2: CD6D66  	        CALL    OUTC            ; Output it
63C5: 212563  	        LD      HL,ERRMSG       ; "Error" message
63C8: CD4271  	ERRIN:  CALL    PRS             ; Output message
63CB: 2A5C80  	        LD      HL,(LINEAT)     ; Get line of error
63CE: 11FEFF  	        LD      DE,-2           ; Cold start error if -2
63D1: CD5C66  	        CALL    CPDEHL          ; See if cold start error
63D4: CA1160  	        JP      Z,CSTART        ; Cold start error - Restart
63D7: 7C      	        LD      A,H             ; Was it a direct error?
63D8: A5      	        AND     L               ; Line = -1 if direct error
63D9: 3C      	        INC     A
63DA: C4DD77  	        CALL    NZ,LINEIN       ; No - output line of error
63DD: 3E      	        .BYTE   3EH             ; Skip "POP BC"
63DE: C1      	POPNOK: POP     BC              ; Drop address in input buffer
              	
63DF:         	PRNTOK: 
63DF: AF      	        XOR     A               ; Output "Ok" and get command
63E0: 324580  	        LD      (CTLOFG),A      ; Enable output
63E3: CD976A  	        CALL    STTLIN          ; Start new line
63E6: 213163  	        LD      HL,OKMSG        ; "Ok" message
63E9: CD4271  	        CALL    PRS             ; Output "Ok"
63EC: 21FFFF  	GETCMD: LD      HL,-1           ; Flag direct mode
63EF: 225C80  	        LD      (LINEAT),HL     ; Save as current line
63F2: CDD965  	        CALL    GETLIN          ; Get an input line
63F5: DAEC63  	        JP      C,GETCMD        ; Get line again if break
63F8: CDFC67  	        CALL    GETCHR          ; Get first character
63FB: 3C      	        INC     A               ; Test if end of line
63FC: 3D      	        DEC     A               ; Without affecting Carry
63FD: CAEC63  	        JP      Z,GETCMD        ; Nothing entered - Get another
6400: F5      	        PUSH    AF              ; Save Carry status
6401: CDC868  	        CALL    ATOH            ; Get line number into DE
6404: D5      	        PUSH    DE              ; Save line number
6405: CDF064  	        CALL    CRUNCH          ; Tokenise rest of line
6408: 47      	        LD      B,A             ; Length of tokenised line
6409: D1      	        POP     DE              ; Restore line number
640A: F1      	        POP     AF              ; Restore Carry
640B: D2CC67  	        JP      NC,EXCUTE       ; No line number - Direct mode
640E: D5      	        PUSH    DE              ; Save line number
640F: C5      	        PUSH    BC              ; Save length of tokenised line
6410: AF      	        XOR     A
6411: 32CC80  	        LD      (LSTBIN),A      ; Clear last byte input
6414: CDFC67  	        CALL    GETCHR          ; Get next character
6417: B7      	        OR      A               ; Set flags
6418: F5      	        PUSH    AF              ; And save them
6419: CD8064  	        CALL    SRCHLN          ; Search for line number in DE
641C: DA2564  	        JP      C,LINFND        ; Jump if line found
641F: F1      	        POP     AF              ; Get status
6420: F5      	        PUSH    AF              ; And re-save
6421: CA6969  	        JP      Z,ULERR         ; Nothing after number - Error
6424: B7      	        OR      A               ; Clear Carry
6425: C5      	LINFND: PUSH    BC              ; Save address of line in prog
6426: D23C64  	        JP      NC,INEWLN       ; Line not found - Insert new
6429: EB      	        EX      DE,HL           ; Next line address in DE
642A: 2AD680  	        LD      HL,(PROGND)     ; End of program
642D: 1A      	SFTPRG: LD      A,(DE)          ; Shift rest of program down
642E: 02      	        LD      (BC),A
642F: 03      	        INC     BC              ; Next destination
6430: 13      	        INC     DE              ; Next source
6431: CD5C66  	        CALL    CPDEHL          ; All done?
6434: C22D64  	        JP      NZ,SFTPRG       ; More to do
6437: 60      	        LD      H,B             ; HL - New end of program
6438: 69      	        LD      L,C
6439: 22D680  	        LD      (PROGND),HL     ; Update end of program
              	
643C: D1      	INEWLN: POP     DE              ; Get address of line,
643D: F1      	        POP     AF              ; Get status
643E: CA6364  	        JP      Z,SETPTR        ; No text - Set up pointers
6441: 2AD680  	        LD      HL,(PROGND)     ; Get end of program
6444: E3      	        EX      (SP),HL         ; Get length of input line
6445: C1      	        POP     BC              ; End of program to BC
6446: 09      	        ADD     HL,BC           ; Find new end
6447: E5      	        PUSH    HL              ; Save new end
6448: CD6063  	        CALL    MOVUP           ; Make space for line
644B: E1      	        POP     HL              ; Restore new end
644C: 22D680  	        LD      (PROGND),HL     ; Update end of program pointer
644F: EB      	        EX      DE,HL           ; Get line to move up in HL
6450: 74      	        LD      (HL),H          ; Save MSB
6451: D1      	        POP     DE              ; Get new line number
6452: 23      	        INC     HL              ; Skip pointer
6453: 23      	        INC     HL
6454: 73      	        LD      (HL),E          ; Save LSB of line number
6455: 23      	        INC     HL
6456: 72      	        LD      (HL),D          ; Save MSB of line number
6457: 23      	        INC     HL              ; To first byte in line
6458: 116180  	        LD      DE,BUFFER       ; Copy buffer to program
645B: 1A      	MOVBUF: LD      A,(DE)          ; Get source
645C: 77      	        LD      (HL),A          ; Save destinations
645D: 23      	        INC     HL              ; Next source
645E: 13      	        INC     DE              ; Next destination
645F: B7      	        OR      A               ; Done?
6460: C25B64  	        JP      NZ,MOVBUF       ; No - Repeat
6463: CDAC64  	SETPTR: CALL    RUNFST          ; Set line pointers
6466: 23      	        INC     HL              ; To LSB of pointer
6467: EB      	        EX      DE,HL           ; Address to DE
6468: 62      	PTRLP:  LD      H,D             ; Address to HL
6469: 6B      	        LD      L,E
646A: 7E      	        LD      A,(HL)          ; Get LSB of pointer
646B: 23      	        INC     HL              ; To MSB of pointer
646C: B6      	        OR      (HL)            ; Compare with MSB pointer
646D: CAEC63  	        JP      Z,GETCMD        ; Get command line if end
6470: 23      	        INC     HL              ; To LSB of line number
6471: 23      	        INC     HL              ; Skip line number
6472: 23      	        INC     HL              ; Point to first byte in line
6473: AF      	        XOR     A               ; Looking for 00 byte
6474: BE      	FNDEND: CP      (HL)            ; Found end of line?
6475: 23      	        INC     HL              ; Move to next byte
6476: C27464  	        JP      NZ,FNDEND       ; No - Keep looking
6479: EB      	        EX      DE,HL           ; Next line address to HL
647A: 73      	        LD      (HL),E          ; Save LSB of pointer
647B: 23      	        INC     HL
647C: 72      	        LD      (HL),D          ; Save MSB of pointer
647D: C36864  	        JP      PTRLP           ; Do next line
              	
6480: 2A5E80  	SRCHLN: LD      HL,(BASTXT)     ; Start of program text
6483: 44      	SRCHLP: LD      B,H             ; BC = Address to look at
6484: 4D      	        LD      C,L
6485: 7E      	        LD      A,(HL)          ; Get address of next line
6486: 23      	        INC     HL
6487: B6      	        OR      (HL)            ; End of program found?
6488: 2B      	        DEC     HL
6489: C8      	        RET     Z               ; Yes - Line not found
648A: 23      	        INC     HL
648B: 23      	        INC     HL
648C: 7E      	        LD      A,(HL)          ; Get LSB of line number
648D: 23      	        INC     HL
648E: 66      	        LD      H,(HL)          ; Get MSB of line number
648F: 6F      	        LD      L,A
6490: CD5C66  	        CALL    CPDEHL          ; Compare with line in DE
6493: 60      	        LD      H,B             ; HL = Start of this line
6494: 69      	        LD      L,C
6495: 7E      	        LD      A,(HL)          ; Get LSB of next line address
6496: 23      	        INC     HL
6497: 66      	        LD      H,(HL)          ; Get MSB of next line address
6498: 6F      	        LD      L,A             ; Next line to HL
6499: 3F      	        CCF
649A: C8      	        RET     Z               ; Lines found - Exit
649B: 3F      	        CCF
649C: D0      	        RET     NC              ; Line not found,at line after
649D: C38364  	        JP      SRCHLP          ; Keep looking
              	
64A0: C0      	NEW:    RET     NZ              ; Return if any more on line
64A1: 2A5E80  	CLRPTR: LD      HL,(BASTXT)     ; Point to start of program
64A4: AF      	        XOR     A               ; Set program area to empty
64A5: 77      	        LD      (HL),A          ; Save LSB = 00
64A6: 23      	        INC     HL
64A7: 77      	        LD      (HL),A          ; Save MSB = 00
64A8: 23      	        INC     HL
64A9: 22D680  	        LD      (PROGND),HL     ; Set program end
              	
64AC: 2A5E80  	RUNFST: LD      HL,(BASTXT)     ; Clear all variables
64AF: 2B      	        DEC     HL
              	
64B0: 22CE80  	INTVAR: LD      (BRKLIN),HL     ; Initialise RUN variables
64B3: 2AAF80  	        LD      HL,(LSTRAM)     ; Get end of RAM
64B6: 22C380  	        LD      (STRBOT),HL     ; Clear string space
64B9: AF      	        XOR     A
64BA: CD0C68  	        CALL    RESTOR          ; Reset DATA pointers
64BD: 2AD680  	        LD      HL,(PROGND)     ; Get end of program
64C0: 22D880  	        LD      (VAREND),HL     ; Clear variables
64C3: 22DA80  	        LD      (ARREND),HL     ; Clear arrays
              	
64C6: C1      	CLREG:  POP     BC              ; Save return address
64C7: 2A5A80  	        LD      HL,(STRSPC)     ; Get end of working RAN
64CA: F9      	        LD      SP,HL           ; Set stack
64CB: 21B380  	        LD      HL,TMSTPL       ; Temporary string pool
64CE: 22B180  	        LD      (TMSTPT),HL     ; Reset temporary string ptr
64D1: AF      	        XOR     A               ; A = 00
64D2: 6F      	        LD      L,A             ; HL = 0000
64D3: 67      	        LD      H,A
64D4: 22D480  	        LD      (CONTAD),HL     ; No CONTinue
64D7: 32CB80  	        LD      (FORFLG),A      ; Clear FOR flag
64DA: 22DE80  	        LD      (FNRGNM),HL     ; Clear FN argument
64DD: E5      	        PUSH    HL              ; HL = 0000
64DE: C5      	        PUSH    BC              ; Put back return
64DF: 2ACE80  	DOAGN:  LD      HL,(BRKLIN)     ; Get address of code to RUN
64E2: C9      	        RET                     ; Return to execution driver
              	
64E3: 3E3F    	PROMPT: LD      A,'?'           ; '?'
64E5: CD6D66  	        CALL    OUTC            ; Output character
64E8: 3E20    	        LD      A,' '           ; Space
64EA: CD6D66  	        CALL    OUTC            ; Output character
64ED: C34E80  	        JP      RINPUT          ; Get input line
              	
64F0: AF      	CRUNCH: XOR     A               ; Tokenise line @ HL to BUFFER
64F1: 32AE80  	        LD      (DATFLG),A      ; Reset literal flag
64F4: 0E05    	        LD      C,2+3           ; 2 byte number and 3 nulls
64F6: 116180  	        LD      DE,BUFFER       ; Start of input buffer
64F9: 7E      	CRNCLP: LD      A,(HL)          ; Get byte
64FA: FE20    	        CP      ' '             ; Is it a space?
64FC: CA7865  	        JP      Z,MOVDIR        ; Yes - Copy direct
64FF: 47      	        LD      B,A             ; Save character
6500: FE22    	        CP      '"'             ; Is it a quote? "
6502: CA9865  	        JP      Z,CPYLIT        ; Yes - Copy literal string
6505: B7      	        OR      A               ; Is it end of buffer?
6506: CA9F65  	        JP      Z,ENDBUF        ; Yes - End buffer
6509: 3AAE80  	        LD      A,(DATFLG)      ; Get data type
650C: B7      	        OR      A               ; Literal?
650D: 7E      	        LD      A,(HL)          ; Get byte to copy
650E: C27865  	        JP      NZ,MOVDIR       ; Literal - Copy direct
6511: FE3F    	        CP      '?'             ; Is it '?' short for PRINT
6513: 3E9E    	        LD      A,ZPRINT        ; "PRINT" token
6515: CA7865  	        JP      Z,MOVDIR        ; Yes - replace it
6518: 7E      	        LD      A,(HL)          ; Get byte again
6519: FE30    	        CP      '0'             ; Is it less than '0'
651B: DA2365  	        JP      C,FNDWRD        ; Yes - Look for reserved words
651E: FE3C    	        CP      60; ";"+1           ; Is it "0123456789:;" ?
6520: DA7865  	        JP      C,MOVDIR        ; Yes - copy it direct
6523: D5      	FNDWRD: PUSH    DE              ; Look for reserved words
6524: 111161  	        LD      DE,WORDS-1      ; Point to table
6527: C5      	        PUSH    BC              ; Save count
6528: 017465  	        LD      BC,RETNAD       ; Where to return to
652B: C5      	        PUSH    BC              ; Save return address
652C: 067F    	        LD      B,ZEND-1        ; First token value -1
652E: 7E      	        LD      A,(HL)          ; Get byte
652F: FE61    	        CP      'a'             ; Less than 'a' ?
6531: DA3C65  	        JP      C,SEARCH        ; Yes - search for words
6534: FE7B    	        CP      'z'+1           ; Greater than 'z' ?
6536: D23C65  	        JP      NC,SEARCH       ; Yes - search for words
6539: E65F    	        AND     01011111B       ; Force upper case
653B: 77      	        LD      (HL),A          ; Replace byte
653C: 4E      	SEARCH: LD      C,(HL)          ; Search for a word
653D: EB      	        EX      DE,HL
653E: 23      	GETNXT: INC     HL              ; Get next reserved word
653F: B6      	        OR      (HL)            ; Start of word?
6540: F23E65  	        JP      P,GETNXT        ; No - move on
6543: 04      	        INC     B               ; Increment token value
6544: 7E      	        LD      A, (HL)         ; Get byte from table
6545: E67F    	        AND     01111111B       ; Strip bit 7
6547: C8      	        RET     Z               ; Return if end of list
6548: B9      	        CP      C               ; Same character as in buffer?
6549: C23E65  	        JP      NZ,GETNXT       ; No - get next word
654C: EB      	        EX      DE,HL
654D: E5      	        PUSH    HL              ; Save start of word
              	
654E: 13      	NXTBYT: INC     DE              ; Look through rest of word
654F: 1A      	        LD      A,(DE)          ; Get byte from table
6550: B7      	        OR      A               ; End of word ?
6551: FA7065  	        JP      M,MATCH         ; Yes - Match found
6554: 4F      	        LD      C,A             ; Save it
6555: 78      	        LD      A,B             ; Get token value
6556: FE88    	        CP      ZGOTO           ; Is it "GOTO" token ?
6558: C25F65  	        JP      NZ,NOSPC        ; No - Don't allow spaces
655B: CDFC67  	        CALL    GETCHR          ; Get next character
655E: 2B      	        DEC     HL              ; Cancel increment from GETCHR
655F: 23      	NOSPC:  INC     HL              ; Next byte
6560: 7E      	        LD      A,(HL)          ; Get byte
6561: FE61    	        CP      'a'             ; Less than 'a' ?
6563: DA6865  	        JP      C,NOCHNG        ; Yes - don't change
6566: E65F    	        AND     01011111B       ; Make upper case
6568: B9      	NOCHNG: CP      C               ; Same as in buffer ?
6569: CA4E65  	        JP      Z,NXTBYT        ; Yes - keep testing
656C: E1      	        POP     HL              ; Get back start of word
656D: C33C65  	        JP      SEARCH          ; Look at next word
              	
6570: 48      	MATCH:  LD      C,B             ; Word found - Save token value
6571: F1      	        POP     AF              ; Throw away return
6572: EB      	        EX      DE,HL
6573: C9      	        RET                     ; Return to "RETNAD"
6574: EB      	RETNAD: EX      DE,HL           ; Get address in string
6575: 79      	        LD      A,C             ; Get token value
6576: C1      	        POP     BC              ; Restore buffer length
6577: D1      	        POP     DE              ; Get destination address
6578: 23      	MOVDIR: INC     HL              ; Next source in buffer
6579: 12      	        LD      (DE),A          ; Put byte in buffer
657A: 13      	        INC     DE              ; Move up buffer
657B: 0C      	        INC     C               ; Increment length of buffer
657C: D63A    	        SUB     ':'             ; End of statement?
657E: CA8665  	        JP      Z,SETLIT        ; Jump if multi-statement line
6581: FE49    	        CP      ZDATA-3AH       ; Is it DATA statement ?
6583: C28965  	        JP      NZ,TSTREM       ; No - see if REM
6586: 32AE80  	SETLIT: LD      (DATFLG),A      ; Set literal flag
6589: D654    	TSTREM: SUB     ZREM-3AH        ; Is it REM?
658B: C2F964  	        JP      NZ,CRNCLP       ; No - Leave flag
658E: 47      	        LD      B,A             ; Copy rest of buffer
658F: 7E      	NXTCHR: LD      A,(HL)          ; Get byte
6590: B7      	        OR      A               ; End of line ?
6591: CA9F65  	        JP      Z,ENDBUF        ; Yes - Terminate buffer
6594: B8      	        CP      B               ; End of statement ?
6595: CA7865  	        JP      Z,MOVDIR        ; Yes - Get next one
6598: 23      	CPYLIT: INC     HL              ; Move up source string
6599: 12      	        LD      (DE),A          ; Save in destination
659A: 0C      	        INC     C               ; Increment length
659B: 13      	        INC     DE              ; Move up destination
659C: C38F65  	        JP      NXTCHR          ; Repeat
              	
659F: 216080  	ENDBUF: LD      HL,BUFFER-1     ; Point to start of buffer
65A2: 12      	        LD      (DE),A          ; Mark end of buffer (A = 00)
65A3: 13      	        INC     DE
65A4: 12      	        LD      (DE),A          ; A = 00
65A5: 13      	        INC     DE
65A6: 12      	        LD      (DE),A          ; A = 00
65A7: C9      	        RET
              	
65A8: 3A4480  	DODEL:  LD      A,(NULFLG)      ; Get null flag status 
65AB: B7      	        OR      A               ; Is it zero?
65AC: 3E00    	        LD      A,0             ; Zero A - Leave flags
65AE: 324480  	        LD      (NULFLG),A      ; Zero null flag
65B1: C2BC65  	        JP      NZ,ECHDEL       ; Set - Echo it
65B4: 05      	        DEC     B               ; Decrement length
65B5: CAD965  	        JP      Z,GETLIN        ; Get line again if empty
65B8: CD6D66  	        CALL    OUTC            ; Output null character
65BB: 3E      	        .BYTE   3EH             ; Skip "DEC B"
65BC: 05      	ECHDEL: DEC     B               ; Count bytes in buffer
65BD: 2B      	        DEC     HL              ; Back space buffer
65BE: CAD065  	        JP      Z,OTKLN         ; No buffer - Try again
65C1: 7E      	        LD      A,(HL)          ; Get deleted 
65C2: CD6D66  	        CALL    OUTC            ; Echo it
65C5: C3E265  	        JP      MORINP          ; Get more input
              	
65C8: 05      	DELCHR: DEC     B               ; Count bytes in buffer 
65C9: 2B      	        DEC     HL              ; Back space buffer
65CA: CD6D66  	        CALL    OUTC            ; Output character in A
65CD: C2E265  	        JP      NZ,MORINP       ; Not end - Get more
65D0: CD6D66  	OTKLN:  CALL    OUTC            ; Output character in A
65D3: CDA46A  	KILIN:  CALL    PRNTCRLF        ; Output CRLF
65D6: C3D965  	        JP      TTYLIN          ; Get line again
              	
65D9:         	GETLIN:
65D9: 216180  	TTYLIN: LD      HL,BUFFER       ; Get a line by character
65DC: 0601    	        LD      B,1             ; Set buffer as empty
65DE: AF      	        XOR     A
65DF: 324480  	        LD      (NULFLG),A      ; Clear null flag
65E2: CD9766  	MORINP: CALL    CLOTST          ; Get character and test ^O
65E5: 4F      	        LD      C,A             ; Save character in C
65E6: FE7F    	        CP      DEL             ; Delete character?
65E8: CAA865  	        JP      Z,DODEL         ; Yes - Process it
65EB: 3A4480  	        LD      A,(NULFLG)      ; Get null flag
65EE: B7      	        OR      A               ; Test null flag status
65EF: CAFB65  	        JP      Z,PROCES        ; Reset - Process character
65F2: 3E00    	        LD      A,0             ; Set a null
65F4: CD6D66  	        CALL    OUTC            ; Output null
65F7: AF      	        XOR     A               ; Clear A
65F8: 324480  	        LD      (NULFLG),A      ; Reset null flag
65FB: 79      	PROCES: LD      A,C             ; Get character
65FC: FE07    	        CP      CTRLG           ; Bell?
65FE: CA3F66  	        JP      Z,PUTCTL        ; Yes - Save it
6601: FE03    	        CP      CTRLC           ; Is it control "C"?
6603: CCA46A  	        CALL    Z,PRNTCRLF      ; Yes - Output CRLF
6606: 37      	        SCF                     ; Flag break
6607: C8      	        RET     Z               ; Return if control "C"
6608: FE0D    	        CP      CR              ; Is it enter?
660A: CA9F6A  	        JP      Z,ENDINP        ; Yes - Terminate input
660D: FE15    	        CP      CTRLU           ; Is it control "U"?
660F: CAD365  	        JP      Z,KILIN         ; Yes - Get another line
6612: FE40    	        CP      '@'             ; Is it "kill line"?
6614: CAD065  	        JP      Z,OTKLN         ; Yes - Kill line
6617: FE5F    	        CP      '_'             ; Is it delete?
6619: CAC865  	        JP      Z,DELCHR        ; Yes - Delete character
661C: FE08    	        CP      BKSP            ; Is it backspace?
661E: CAC865  	        JP      Z,DELCHR        ; Yes - Delete character
6621: FE12    	        CP      CTRLR           ; Is it control "R"?
6623: C23A66  	        JP      NZ,PUTBUF       ; No - Put in buffer
6626: C5      	        PUSH    BC              ; Save buffer length
6627: D5      	        PUSH    DE              ; Save DE
6628: E5      	        PUSH    HL              ; Save buffer address
6629: 3600    	        LD      (HL),0          ; Mark end of buffer
662B: CD547C  	        CALL    OUTNCR          ; Output and do CRLF
662E: 216180  	        LD      HL,BUFFER       ; Point to buffer start
6631: CD4271  	        CALL    PRS             ; Output buffer
6634: E1      	        POP     HL              ; Restore buffer address
6635: D1      	        POP     DE              ; Restore DE
6636: C1      	        POP     BC              ; Restore buffer length
6637: C3E265  	        JP      MORINP          ; Get another character
              	
663A: FE20    	PUTBUF: CP      ' '             ; Is it a control code?
663C: DAE265  	        JP      C,MORINP        ; Yes - Ignore
663F: 78      	PUTCTL: LD      A,B             ; Get number of bytes in buffer
6640: FE49    	        CP      72+1            ; Test for line overflow
6642: 3E07    	        LD      A,CTRLG         ; Set a bell
6644: D25466  	        JP      NC,OUTNBS       ; Ring bell if buffer full
6647: 79      	        LD      A,C             ; Get character
6648: 71      	        LD      (HL),C          ; Save in buffer
6649: 32CC80  	        LD      (LSTBIN),A      ; Save last input byte
664C: 23      	        INC     HL              ; Move up buffer
664D: 04      	        INC     B               ; Increment length
664E: CD6D66  	OUTIT:  CALL    OUTC            ; Output the character entered
6651: C3E265  	        JP      MORINP          ; Get another character
              	
6654: CD6D66  	OUTNBS: CALL    OUTC            ; Output bell and back over it
6657: 3E08    	        LD      A,BKSP          ; Set back space
6659: C34E66  	        JP      OUTIT           ; Output it and get more
              	
665C: 7C      	CPDEHL: LD      A,H             ; Get H
665D: 92      	        SUB     D               ; Compare with D
665E: C0      	        RET     NZ              ; Different - Exit
665F: 7D      	        LD      A,L             ; Get L
6660: 93      	        SUB     E               ; Compare with E
6661: C9      	        RET                     ; Return status
              	
6662: 7E      	CHKSYN: LD      A,(HL)          ; Check syntax of character
6663: E3      	        EX      (SP),HL         ; Address of test byte
6664: BE      	        CP      (HL)            ; Same as in code string?
6665: 23      	        INC     HL              ; Return address
6666: E3      	        EX      (SP),HL         ; Put it back
6667: CAFC67  	        JP      Z,GETCHR        ; Yes - Get next character
666A: C39463  	        JP      SNERR           ; Different - ?SN Error
              	
666D: F5      	OUTC:   PUSH    AF              ; Save character 
666E: 3A4580  	        LD      A,(CTLOFG)      ; Get control "O" flag
6671: B7      	        OR      A               ; Is it set?
6672: C27771  	        JP      NZ,POPAF        ; Yes - don't output
6675: F1      	        POP     AF              ; Restore character
6676: C5      	        PUSH    BC              ; Save buffer length
6677: F5      	        PUSH    AF              ; Save character
6678: FE20    	        CP      ' '             ; Is it a control code?
667A: DA9166  	        JP      C,DINPOS        ; Yes - Don't INC POS(X)
667D: 3A4280  	        LD      A,(LWIDTH)      ; Get line width
6680: 47      	        LD      B,A             ; To B
6681: 3AAB80  	        LD      A,(CURPOS)      ; Get cursor position
6684: 04      	        INC     B               ; Width 255?
6685: CA8D66  	        JP      Z,INCLEN        ; Yes - No width limit
6688: 05      	        DEC     B               ; Restore width
6689: B8      	        CP      B               ; At end of line?
668A: CCA46A  	        CALL    Z,PRNTCRLF      ; Yes - output CRLF
668D: 3C      	INCLEN: INC     A               ; Move on one character
668E: 32AB80  	        LD      (CURPOS),A      ; Save new position
6691: F1      	DINPOS: POP     AF              ; Restore character
6692: C1      	        POP     BC              ; Restore buffer length
6693: CD3D7C  	        CALL    MONOUT          ; Send it
6696: C9      	        RET
              	
6697: CD017B  	CLOTST: CALL    GETINP          ; Get input character
669A: E67F    	        AND     01111111B       ; Strip bit 7
669C: FE0F    	        CP      CTRLO           ; Is it control "O"?
669E: C0      	        RET     NZ              ; No don't flip flag
669F: 3A4580  	        LD      A,(CTLOFG)      ; Get flag
66A2: 2F      	        CPL                     ; Flip it
66A3: 324580  	        LD      (CTLOFG),A      ; Put it back
66A6: AF      	        XOR     A               ; Null character
66A7: C9      	        RET
              	
66A8: CDC868  	LIST:   CALL    ATOH            ; ASCII number to DE
66AB: C0      	        RET     NZ              ; Return if anything extra
66AC: C1      	        POP     BC              ; Rubbish - Not needed
66AD: CD8064  	        CALL    SRCHLN          ; Search for line number in DE
66B0: C5      	        PUSH    BC              ; Save address of line
66B1: CDFE66  	        CALL    SETLIN          ; Set up lines counter
66B4: E1      	LISTLP: POP     HL              ; Restore address of line
66B5: 4E      	        LD      C,(HL)          ; Get LSB of next line
66B6: 23      	        INC     HL
66B7: 46      	        LD      B,(HL)          ; Get MSB of next line
66B8: 23      	        INC     HL
66B9: 78      	        LD      A,B             ; BC = 0 (End of program)?
66BA: B1      	        OR      C
66BB: CADF63  	        JP      Z,PRNTOK        ; Yes - Go to command mode
66BE: CD0767  	        CALL    COUNT           ; Count lines
66C1: CD2768  	        CALL    TSTBRK          ; Test for break key
66C4: C5      	        PUSH    BC              ; Save address of next line
66C5: CDA46A  	        CALL    PRNTCRLF        ; Output CRLF
66C8: 5E      	        LD      E,(HL)          ; Get LSB of line number
66C9: 23      	        INC     HL
66CA: 56      	        LD      D,(HL)          ; Get MSB of line number
66CB: 23      	        INC     HL
66CC: E5      	        PUSH    HL              ; Save address of line start
66CD: EB      	        EX      DE,HL           ; Line number to HL
66CE: CDE577  	        CALL    PRNTHL          ; Output line number in decimal
66D1: 3E20    	        LD      A,' '           ; Space after line number
66D3: E1      	        POP     HL              ; Restore start of line address
66D4: CD6D66  	LSTLP2: CALL    OUTC            ; Output character in A
66D7: 7E      	LSTLP3: LD      A,(HL)          ; Get next byte in line
66D8: B7      	        OR      A               ; End of line?
66D9: 23      	        INC     HL              ; To next byte in line
66DA: CAB466  	        JP      Z,LISTLP        ; Yes - get next line
66DD: F2D466  	        JP      P,LSTLP2        ; No token - output it
66E0: D67F    	        SUB     ZEND-1          ; Find and output word
66E2: 4F      	        LD      C,A             ; Token offset+1 to C
66E3: 111261  	        LD      DE,WORDS        ; Reserved word list
66E6: 1A      	FNDTOK: LD      A,(DE)          ; Get character in list
66E7: 13      	        INC     DE              ; Move on to next
66E8: B7      	        OR      A               ; Is it start of word?
66E9: F2E666  	        JP      P,FNDTOK        ; No - Keep looking for word
66EC: 0D      	        DEC     C               ; Count words
66ED: C2E666  	        JP      NZ,FNDTOK       ; Not there - keep looking
66F0: E67F    	OUTWRD: AND     01111111B       ; Strip bit 7
66F2: CD6D66  	        CALL    OUTC            ; Output first character
66F5: 1A      	        LD      A,(DE)          ; Get next character
66F6: 13      	        INC     DE              ; Move on to next
66F7: B7      	        OR      A               ; Is it end of word?
66F8: F2F066  	        JP      P,OUTWRD        ; No - output the rest
66FB: C3D766  	        JP      LSTLP3          ; Next byte in line
              	
66FE: E5      	SETLIN: PUSH    HL              ; Set up LINES counter
66FF: 2A4880  	        LD      HL,(LINESN)     ; Get LINES number
6702: 224680  	        LD      (LINESC),HL     ; Save in LINES counter
6705: E1      	        POP     HL
6706: C9      	        RET
              	
6707: E5      	COUNT:  PUSH    HL              ; Save code string address
6708: D5      	        PUSH    DE
6709: 2A4680  	        LD      HL,(LINESC)     ; Get LINES counter
670C: 11FFFF  	        LD      DE,-1
670F: ED5A    	        ADC     HL,DE           ; Decrement
6711: 224680  	        LD      (LINESC),HL     ; Put it back
6714: D1      	        POP     DE
6715: E1      	        POP     HL              ; Restore code string address
6716: F0      	        RET     P               ; Return if more lines to go
6717: E5      	        PUSH    HL              ; Save code string address
6718: 2A4880  	        LD      HL,(LINESN)     ; Get LINES number
671B: 224680  	        LD      (LINESC),HL     ; Reset LINES counter
671E: CD017B  	        CALL    GETINP          ; Get input character
6721: FE03    	        CP      CTRLC           ; Is it control "C"?
6723: CA2A67  	        JP      Z,RSLNBK        ; Yes - Reset LINES and break
6726: E1      	        POP     HL              ; Restore code string address
6727: C30767  	        JP      COUNT           ; Keep on counting
              	
672A: 2A4880  	RSLNBK: LD      HL,(LINESN)     ; Get LINES number
672D: 224680  	        LD      (LINESC),HL     ; Reset LINES counter
6730: C3A760  	        JP      BRKRET          ; Go and output "Break"
              	
6733: 3E64    	FOR:    LD      A,64H           ; Flag "FOR" assignment
6735: 32CB80  	        LD      (FORFLG),A      ; Save "FOR" flag
6738: CDAA69  	        CALL    LET             ; Set up initial index
673B: C1      	        POP     BC              ; Drop RETurn address
673C: E5      	        PUSH    HL              ; Save code string address
673D: CD9369  	        CALL    DATA            ; Get next statement address
6740: 22C780  	        LD      (LOOPST),HL     ; Save it for start of loop
6743: 210200  	        LD      HL,2            ; Offset for "FOR" block
6746: 39      	        ADD     HL,SP           ; Point to it
6747: CD4163  	FORSLP: CALL    LOKFOR          ; Look for existing "FOR" block
674A: D1      	        POP     DE              ; Get code string address
674B: C26367  	        JP      NZ,FORFND       ; No nesting found
674E: 09      	        ADD     HL,BC           ; Move into "FOR" block
674F: D5      	        PUSH    DE              ; Save code string address
6750: 2B      	        DEC     HL
6751: 56      	        LD      D,(HL)          ; Get MSB of loop statement
6752: 2B      	        DEC     HL
6753: 5E      	        LD      E,(HL)          ; Get LSB of loop statement
6754: 23      	        INC     HL
6755: 23      	        INC     HL
6756: E5      	        PUSH    HL              ; Save block address
6757: 2AC780  	        LD      HL,(LOOPST)     ; Get address of loop statement
675A: CD5C66  	        CALL    CPDEHL          ; Compare the FOR loops
675D: E1      	        POP     HL              ; Restore block address
675E: C24767  	        JP      NZ,FORSLP       ; Different FORs - Find another
6761: D1      	        POP     DE              ; Restore code string address
6762: F9      	        LD      SP,HL           ; Remove all nested loops
              	
6763: EB      	FORFND: EX      DE,HL           ; Code string address to HL
6764: 0E08    	        LD      C,8
6766: CD7163  	        CALL    CHKSTK          ; Check for 8 levels of stack
6769: E5      	        PUSH    HL              ; Save code string address
676A: 2AC780  	        LD      HL,(LOOPST)     ; Get first statement of loop
676D: E3      	        EX      (SP),HL         ; Save and restore code string
676E: E5      	        PUSH    HL              ; Re-save code string address
676F: 2A5C80  	        LD      HL,(LINEAT)     ; Get current line number
6772: E3      	        EX      (SP),HL         ; Save and restore code string
6773: CD6C6C  	        CALL    TSTNUM          ; Make sure it's a number
6776: CD6266  	        CALL    CHKSYN          ; Make sure "TO" is next
6779: A6      	        .BYTE   ZTO          ; "TO" token
677A: CD696C  	        CALL    GETNUM          ; Get "TO" expression value
677D: E5      	        PUSH    HL              ; Save code string address
677E: CD9776  	        CALL    BCDEFP          ; Move "TO" value to BCDE
6781: E1      	        POP     HL              ; Restore code string address
6782: C5      	        PUSH    BC              ; Save "TO" value in block
6783: D5      	        PUSH    DE
6784: 010081  	        LD      BC,8100H        ; BCDE - 1 (default STEP)
6787: 51      	        LD      D,C             ; C=0
6788: 5A      	        LD      E,D             ; D=0
6789: 7E      	        LD      A,(HL)          ; Get next byte in code string
678A: FEAB    	        CP      ZSTEP           ; See if "STEP" is stated
678C: 3E01    	        LD      A,1             ; Sign of step = 1
678E: C29F67  	        JP      NZ,SAVSTP       ; No STEP given - Default to 1
6791: CDFC67  	        CALL    GETCHR          ; Jump over "STEP" token
6794: CD696C  	        CALL    GETNUM          ; Get step value
6797: E5      	        PUSH    HL              ; Save code string address
6798: CD9776  	        CALL    BCDEFP          ; Move STEP to BCDE
679B: CD4B76  	        CALL    TSTSGN          ; Test sign of FPREG
679E: E1      	        POP     HL              ; Restore code string address
679F: C5      	SAVSTP: PUSH    BC              ; Save the STEP value in block
67A0: D5      	        PUSH    DE
67A1: F5      	        PUSH    AF              ; Save sign of STEP
67A2: 33      	        INC     SP              ; Don't save flags
67A3: E5      	        PUSH    HL              ; Save code string address
67A4: 2ACE80  	        LD      HL,(BRKLIN)     ; Get address of index variable
67A7: E3      	        EX      (SP),HL         ; Save and restore code string
67A8: 0681    	PUTFID: LD      B,ZFOR          ; "FOR" block marker
67AA: C5      	        PUSH    BC              ; Save it
67AB: 33      	        INC     SP              ; Don't save C
              	
67AC: CD2768  	RUNCNT: CALL    TSTBRK          ; Execution driver - Test break
67AF: 22CE80  	        LD      (BRKLIN),HL     ; Save code address for break
67B2: 7E      	        LD      A,(HL)          ; Get next byte in code string
67B3: FE3A    	        CP      ':'             ; Multi statement line?
67B5: CACC67  	        JP      Z,EXCUTE        ; Yes - Execute it
67B8: B7      	        OR      A               ; End of line?
67B9: C29463  	        JP      NZ,SNERR        ; No - Syntax error
67BC: 23      	        INC     HL              ; Point to address of next line
67BD: 7E      	        LD      A,(HL)          ; Get LSB of line pointer
67BE: 23      	        INC     HL
67BF: B6      	        OR      (HL)            ; Is it zero (End of prog)?
67C0: CA4E68  	        JP      Z,ENDPRG        ; Yes - Terminate execution
67C3: 23      	        INC     HL              ; Point to line number
67C4: 5E      	        LD      E,(HL)          ; Get LSB of line number
67C5: 23      	        INC     HL
67C6: 56      	        LD      D,(HL)          ; Get MSB of line number
67C7: EB      	        EX      DE,HL           ; Line number to HL
67C8: 225C80  	        LD      (LINEAT),HL     ; Save as current line number
67CB: EB      	        EX      DE,HL           ; Line number back to DE
67CC: CDFC67  	EXCUTE: CALL    GETCHR          ; Get key word
67CF: 11AC67  	        LD      DE,RUNCNT       ; Where to RETurn to
67D2: D5      	        PUSH    DE              ; Save for RETurn
67D3: C8      	IFJMP:  RET     Z               ; Go to RUNCNT if end of STMT
              	
              	
              	
              	
67D4:         	ONJMP:  
67D4: FED2    			cp		ZBYE			; token lesser than zbuy
67D6: 380C    			jr		c,notcust		; if so skip to original code
67D8: D6D2    			sub		ZBYE			; subtract zbye to index int custtab
67DA: 07      			rlca					; multiply by tw to make offset
67DB: 4F      			ld		c,a
67DC: 0600    			ld		b,0
67DE: EB      			ex		de,hl			; save code string addr
67DF: 218262  			ld		hl,custtab		; load tabel addr
67E2: 1812    			jr		custadd			; let the original code take over
              	
67E4:         	notcust:
              	
67E4: D680    			SUB     ZEND            ; Is it a token?
67E6: DAAA69  	        JP      C,LET           ; No - try to assign it
67E9: FE25    	        CP      ZNEW+1-ZEND     ; END to NEW ?
67EB: D29463  	        JP      NC,SNERR        ; Not a key word - ?SN Error
67EE: 07      	        RLCA                    ; Double it
67EF: 4F      	        LD      C,A             ; BC = Offset into table
67F0: 0600    	        LD      B,0
67F2: EB      	        EX      DE,HL           ; Save code string address
67F3: 213862  	        LD      HL,WORDTB       ; Keyword address table
67F6:         	custadd:
67F6: 09      	        ADD     HL,BC           ; Point to routine address
67F7: 4E      	        LD      C,(HL)          ; Get LSB of routine address
67F8: 23      	        INC     HL
67F9: 46      	        LD      B,(HL)          ; Get MSB of routine address
67FA: C5      	        PUSH    BC              ; Save routine address
67FB: EB      	        EX      DE,HL           ; Restore code string address
              	
              	
              	
              	
              	
              	
              	
              	
67FC: 23      	GETCHR: INC     HL              ; Point to next character
67FD: 7E      	        LD      A,(HL)          ; Get next code string byte
67FE: FE3A    	        CP      ':'             ; Z if ':'
6800: D0      	        RET     NC              ; NC if > "9"
6801: FE20    	        CP      ' '
6803: CAFC67  	        JP      Z,GETCHR        ; Skip over spaces
6806: FE30    	        CP      '0'
6808: 3F      	        CCF                     ; NC if < '0'
6809: 3C      	        INC     A               ; Test for zero - Leave carry
680A: 3D      	        DEC     A               ; Z if Null
680B: C9      	        RET
              	
680C: EB      	RESTOR: EX      DE,HL           ; Save code string address
680D: 2A5E80  	        LD      HL,(BASTXT)     ; Point to start of program
6810: CA2168  	        JP      Z,RESTNL        ; Just RESTORE - reset pointer
6813: EB      	        EX      DE,HL           ; Restore code string address
6814: CDC868  	        CALL    ATOH            ; Get line number to DE
6817: E5      	        PUSH    HL              ; Save code string address
6818: CD8064  	        CALL    SRCHLN          ; Search for line number in DE
681B: 60      	        LD      H,B             ; HL = Address of line
681C: 69      	        LD      L,C
681D: D1      	        POP     DE              ; Restore code string address
681E: D26969  	        JP      NC,ULERR        ; ?UL Error if not found
6821: 2B      	RESTNL: DEC     HL              ; Byte before DATA statement
6822: 22DC80  	UPDATA: LD      (NXTDAT),HL     ; Update DATA pointer
6825: EB      	        EX      DE,HL           ; Restore code string address
6826: C9      	        RET
              	
              	
6827: DF      	TSTBRK: RST     18H             ; Check input status
6828: C8      	        RET     Z               ; No key, go back
6829: D7      	        RST     10H             ; Get the key into A
682A: FE1B    	        CP      ESC             ; Escape key?
682C: 2811    	        JR      Z,BRK           ; Yes, break
682E: FE03    	        CP      CTRLC           ; <Ctrl-C>
6830: 280D    	        JR      Z,BRK           ; Yes, break
6832: FE13    	        CP      CTRLS           ; Stop scrolling?
6834: C0      	        RET     NZ              ; Other key, ignore
              	
              	
6835: D7      	STALL:  RST     10H             ; Wait for key
6836: FE11    	        CP      CTRLQ           ; Resume scrolling?
6838: C8      	        RET      Z              ; Release the chokehold
6839: FE03    	        CP      CTRLC           ; Second break?
683B: 2807    	        JR      Z,STOP          ; Break during hold exits prog
683D: 18F6    	        JR      STALL           ; Loop until <Ctrl-Q> or <brk>
              	
683F: 3EFF    	BRK     LD      A,$FF           ; Set BRKFLG
6841: 324D80  	        LD      (BRKFLG),A      ; Store it
              	
              	
6844: C0      	STOP:   RET     NZ              ; Exit if anything else
6845: F6      	        .BYTE   0F6H            ; Flag "STOP"
6846: C0      	PEND:   RET     NZ              ; Exit if anything else
6847: 22CE80  	        LD      (BRKLIN),HL     ; Save point of break
684A: 21      	        .BYTE   21H             ; Skip "OR 11111111B"
684B: F6FF    	INPBRK: OR      11111111B       ; Flag "Break" wanted
684D: C1      	        POP     BC              ; Return not needed and more
684E: 2A5C80  	ENDPRG: LD      HL,(LINEAT)     ; Get current line number
6851: F5      	        PUSH    AF              ; Save STOP / END status
6852: 7D      	        LD      A,L             ; Is it direct break?
6853: A4      	        AND     H
6854: 3C      	        INC     A               ; Line is -1 if direct break
6855: CA6168  	        JP      Z,NOLIN         ; Yes - No line number
6858: 22D280  	        LD      (ERRLIN),HL     ; Save line of break
685B: 2ACE80  	        LD      HL,(BRKLIN)     ; Get point of break
685E: 22D480  	        LD      (CONTAD),HL     ; Save point to CONTinue
6861: AF      	NOLIN:  XOR     A
6862: 324580  	        LD      (CTLOFG),A      ; Enable output
6865: CD976A  	        CALL    STTLIN          ; Start a new line
6868: F1      	        POP     AF              ; Restore STOP / END status
6869: 213763  	        LD      HL,BRKMSG       ; "Break" message
686C: C2C863  	        JP      NZ,ERRIN        ; "in line" wanted?
686F: C3DF63  	        JP      PRNTOK          ; Go to command mode
              	
6872: 2AD480  	CONT:   LD      HL,(CONTAD)     ; Get CONTinue address
6875: 7C      	        LD      A,H             ; Is it zero?
6876: B5      	        OR      L
6877: 1E20    	        LD      E,CN            ; ?CN Error
6879: CAA863  	        JP      Z,ERROR         ; Yes - output "?CN Error"
687C: EB      	        EX      DE,HL           ; Save code string address
687D: 2AD280  	        LD      HL,(ERRLIN)     ; Get line of last break
6880: 225C80  	        LD      (LINEAT),HL     ; Set up current line number
6883: EB      	        EX      DE,HL           ; Restore code string address
6884: C9      	        RET                     ; CONTinue where left off
              	
6885: CDCA73  	NULL:   CALL    GETINT          ; Get integer 0-255
6888: C0      	        RET     NZ              ; Return if bad value
6889: 324180  	        LD      (NULLS),A       ; Set nulls number
688C: C9      	        RET
              	
              	
688D: E5      	ACCSUM: PUSH    HL              ; Save address in array
688E: 2A4A80  	        LD      HL,(CHKSUM)     ; Get check sum
6891: 0600    	        LD      B,0             ; BC - Value of byte
6893: 4F      	        LD      C,A
6894: 09      	        ADD     HL,BC           ; Add byte to check sum
6895: 224A80  	        LD      (CHKSUM),HL     ; Re-save check sum
6898: E1      	        POP     HL              ; Restore address in array
6899: C9      	        RET
              	
689A: 7E      	CHKLTR: LD      A,(HL)          ; Get byte
689B: FE41    	        CP      'A'             ; < 'a' ?
689D: D8      	        RET     C               ; Carry set if not letter
689E: FE5B    	        CP      'Z'+1           ; > 'z' ?
68A0: 3F      	        CCF
68A1: C9      	        RET                     ; Carry set if not letter
              	
68A2: CDFC67  	FPSINT: CALL    GETCHR          ; Get next character
68A5: CD696C  	POSINT: CALL    GETNUM          ; Get integer 0 to 32767
68A8: CD4B76  	DEPINT: CALL    TSTSGN          ; Test sign of FPREG
68AB: FAC368  	        JP      M,FCERR         ; Negative - ?FC Error
68AE: 3AE780  	DEINT:  LD      A,(FPEXP)       ; Get integer value to DE
68B1: FE90    	        CP      80H+16          ; Exponent in range (16 bits)?
68B3: DAF376  	        JP      C,FPINT         ; Yes - convert it
68B6: 018090  	        LD      BC,9080H        ; BCDE = -32768
68B9: 110000  	        LD      DE,0000
68BC: E5      	        PUSH    HL              ; Save code string address
68BD: CDC676  	        CALL    CMPNUM          ; Compare FPREG with BCDE
68C0: E1      	        POP     HL              ; Restore code string address
68C1: 51      	        LD      D,C             ; MSB to D
68C2: C8      	        RET     Z               ; Return if in range
68C3: 1E08    	FCERR:  LD      E,FC            ; ?FC Error
68C5: C3A863  	        JP      ERROR           ; Output error-
              	
68C8: 2B      	ATOH:   DEC     HL              ; ASCII number to DE binary
68C9: 110000  	GETLN:  LD      DE,0            ; Get number to DE
68CC: CDFC67  	GTLNLP: CALL    GETCHR          ; Get next character
68CF: D0      	        RET     NC              ; Exit if not a digit
68D0: E5      	        PUSH    HL              ; Save code string address
68D1: F5      	        PUSH    AF              ; Save digit
68D2: 219819  	        LD      HL,65529/10     ; Largest number 65529
68D5: CD5C66  	        CALL    CPDEHL          ; Number in range?
68D8: DA9463  	        JP      C,SNERR         ; No - ?SN Error
68DB: 62      	        LD      H,D             ; HL = Number
68DC: 6B      	        LD      L,E
68DD: 19      	        ADD     HL,DE           ; Times 2
68DE: 29      	        ADD     HL,HL           ; Times 4
68DF: 19      	        ADD     HL,DE           ; Times 5
68E0: 29      	        ADD     HL,HL           ; Times 10
68E1: F1      	        POP     AF              ; Restore digit
68E2: D630    	        SUB     '0'             ; Make it 0 to 9
68E4: 5F      	        LD      E,A             ; DE = Value of digit
68E5: 1600    	        LD      D,0
68E7: 19      	        ADD     HL,DE           ; Add to number
68E8: EB      	        EX      DE,HL           ; Number to DE
68E9: E1      	        POP     HL              ; Restore code string address
68EA: C3CC68  	        JP      GTLNLP          ; Go to next character
              	
68ED: CAB064  	CLEAR:  JP      Z,INTVAR        ; Just "CLEAR" Keep parameters
68F0: CDA568  	        CALL    POSINT          ; Get integer 0 to 32767 to DE
68F3: 2B      	        DEC     HL              ; Cancel increment
68F4: CDFC67  	        CALL    GETCHR          ; Get next character
68F7: E5      	        PUSH    HL              ; Save code string address
68F8: 2AAF80  	        LD      HL,(LSTRAM)     ; Get end of RAM
68FB: CA1069  	        JP      Z,STORED        ; No value given - Use stored
68FE: E1      	        POP     HL              ; Restore code string address
68FF: CD6266  	        CALL    CHKSYN          ; Check for comma
6902: 2C      	        .BYTE      ','
6903: D5      	        PUSH    DE              ; Save number
6904: CDA568  	        CALL    POSINT          ; Get integer 0 to 32767
6907: 2B      	        DEC     HL              ; Cancel increment
6908: CDFC67  	        CALL    GETCHR          ; Get next character
690B: C29463  	        JP      NZ,SNERR        ; ?SN Error if more on line
690E: E3      	        EX      (SP),HL         ; Save code string address
690F: EB      	        EX      DE,HL           ; Number to DE
6910: 7D      	STORED: LD      A,L             ; Get LSB of new RAM top
6911: 93      	        SUB     E               ; Subtract LSB of string space
6912: 5F      	        LD      E,A             ; Save LSB
6913: 7C      	        LD      A,H             ; Get MSB of new RAM top
6914: 9A      	        SBC     A,D             ; Subtract MSB of string space
6915: 57      	        LD      D,A             ; Save MSB
6916: DA8963  	        JP      C,OMERR         ; ?OM Error if not enough mem
6919: E5      	        PUSH    HL              ; Save RAM top
691A: 2AD680  	        LD      HL,(PROGND)     ; Get program end
691D: 012800  	        LD      BC,40           ; 40 Bytes minimum working RAM
6920: 09      	        ADD     HL,BC           ; Get lowest address
6921: CD5C66  	        CALL    CPDEHL          ; Enough memory?
6924: D28963  	        JP      NC,OMERR        ; No - ?OM Error
6927: EB      	        EX      DE,HL           ; RAM top to HL
6928: 225A80  	        LD      (STRSPC),HL     ; Set new string space
692B: E1      	        POP     HL              ; End of memory to use
692C: 22AF80  	        LD      (LSTRAM),HL     ; Set new top of RAM
692F: E1      	        POP     HL              ; Restore code string address
6930: C3B064  	        JP      INTVAR          ; Initialise variables
              	
6933: CAAC64  	RUN:    JP      Z,RUNFST        ; RUN from start if just RUN
6936: CDB064  	        CALL    INTVAR          ; Initialise variables
6939: 01AC67  	        LD      BC,RUNCNT       ; Execution driver loop
693C: C34F69  	        JP      RUNLIN          ; RUN from line number
              	
693F: 0E03    	GOSUB:  LD      C,3             ; 3 Levels of stack needed
6941: CD7163  	        CALL    CHKSTK          ; Check for 3 levels of stack
6944: C1      	        POP     BC              ; Get return address
6945: E5      	        PUSH    HL              ; Save code string for RETURN
6946: E5      	        PUSH    HL              ; And for GOSUB routine
6947: 2A5C80  	        LD      HL,(LINEAT)     ; Get current line
694A: E3      	        EX      (SP),HL         ; Into stack - Code string out
694B: 3E8C    	        LD      A,ZGOSUB        ; "GOSUB" token
694D: F5      	        PUSH    AF              ; Save token
694E: 33      	        INC     SP              ; Don't save flags
              	
694F: C5      	RUNLIN: PUSH    BC              ; Save return address
6950: CDC868  	GOTO:   CALL    ATOH            ; ASCII number to DE binary
6953: CD9569  	        CALL    REM             ; Get end of line
6956: E5      	        PUSH    HL              ; Save end of line
6957: 2A5C80  	        LD      HL,(LINEAT)     ; Get current line
695A: CD5C66  	        CALL    CPDEHL          ; Line after current?
695D: E1      	        POP     HL              ; Restore end of line
695E: 23      	        INC     HL              ; Start of next line
695F: DC8364  	        CALL    C,SRCHLP        ; Line is after current line
6962: D48064  	        CALL    NC,SRCHLN       ; Line is before current line
6965: 60      	        LD      H,B             ; Set up code string address
6966: 69      	        LD      L,C
6967: 2B      	        DEC     HL              ; Incremented after
6968: D8      	        RET     C               ; Line found
6969: 1E0E    	ULERR:  LD      E,UL            ; ?UL Error
696B: C3A863  	        JP      ERROR           ; Output error message
              	
696E: C0      	RETURN: RET     NZ              ; Return if not just RETURN
696F: 16FF    	        LD      D,-1            ; Flag "GOSUB" search
6971: CD3D63  	        CALL    BAKSTK          ; Look "GOSUB" block
6974: F9      	        LD      SP,HL           ; Kill all FORs in subroutine
6975: FE8C    	        CP      ZGOSUB          ; Test for "GOSUB" token
6977: 1E04    	        LD      E,RG            ; ?RG Error
6979: C2A863  	        JP      NZ,ERROR        ; Error if no "GOSUB" found
697C: E1      	        POP     HL              ; Get RETURN line number
697D: 225C80  	        LD      (LINEAT),HL     ; Save as current
6980: 23      	        INC     HL              ; Was it from direct statement?
6981: 7C      	        LD      A,H
6982: B5      	        OR      L               ; Return to line
6983: C28D69  	        JP      NZ,RETLIN       ; No - Return to line
6986: 3ACC80  	        LD      A,(LSTBIN)      ; Any INPUT in subroutine?
6989: B7      	        OR      A               ; If so buffer is corrupted
698A: C2DE63  	        JP      NZ,POPNOK       ; Yes - Go to command mode
698D: 21AC67  	RETLIN: LD      HL,RUNCNT       ; Execution driver loop
6990: E3      	        EX      (SP),HL         ; Into stack - Code string out
6991: 3E      	        .BYTE      3EH             ; Skip "POP HL"
6992: E1      	NXTDTA: POP     HL              ; Restore code string address
              	
6993: 013A    	DATA:   .BYTE      01H,3AH         ; ':' End of statement
6995: 0E00    	REM:    LD      C,0             ; 00  End of statement
6997: 0600    	        LD      B,0
6999: 79      	NXTSTL: LD      A,C             ; Statement and byte
699A: 48      	        LD      C,B
699B: 47      	        LD      B,A             ; Statement end byte
699C: 7E      	NXTSTT: LD      A,(HL)          ; Get byte
699D: B7      	        OR      A               ; End of line?
699E: C8      	        RET     Z               ; Yes - Exit
699F: B8      	        CP      B               ; End of statement?
69A0: C8      	        RET     Z               ; Yes - Exit
69A1: 23      	        INC     HL              ; Next byte
69A2: FE22    	        CP      '"'             ; Literal string?
69A4: CA9969  	        JP      Z,NXTSTL        ; Yes - Look for another '"'
69A7: C39C69  	        JP      NXTSTT          ; Keep looking
              	
69AA: CD5F6E  	LET:    CALL    GETVAR          ; Get variable name
69AD: CD6266  	        CALL    CHKSYN          ; Make sure "=" follows
69B0: B4      	        .BYTE      ZEQUAL          ; "=" token
69B1: D5      	        PUSH    DE              ; Save address of variable
69B2: 3AAD80  	        LD      A,(TYPE)        ; Get data type
69B5: F5      	        PUSH    AF              ; Save type
69B6: CD7B6C  	        CALL    EVAL            ; Evaluate expression
69B9: F1      	        POP     AF              ; Restore type
69BA: E3      	        EX      (SP),HL         ; Save code - Get var addr
69BB: 22CE80  	        LD      (BRKLIN),HL     ; Save address of variable
69BE: 1F      	        RRA                     ; Adjust type
69BF: CD6E6C  	        CALL    CHKTYP          ; Check types are the same
69C2: CAFD69  	        JP      Z,LETNUM        ; Numeric - Move value
69C5: E5      	LETSTR: PUSH    HL              ; Save address of string var
69C6: 2AE480  	        LD      HL,(FPREG)      ; Pointer to string entry
69C9: E5      	        PUSH    HL              ; Save it on stack
69CA: 23      	        INC     HL              ; Skip over length
69CB: 23      	        INC     HL
69CC: 5E      	        LD      E,(HL)          ; LSB of string address
69CD: 23      	        INC     HL
69CE: 56      	        LD      D,(HL)          ; MSB of string address
69CF: 2A5E80  	        LD      HL,(BASTXT)     ; Point to start of program
69D2: CD5C66  	        CALL    CPDEHL          ; Is string before program?
69D5: D2EC69  	        JP      NC,CRESTR       ; Yes - Create string entry
69D8: 2A5A80  	        LD      HL,(STRSPC)     ; Point to string space
69DB: CD5C66  	        CALL    CPDEHL          ; Is string literal in program?
69DE: D1      	        POP     DE              ; Restore address of string
69DF: D2F469  	        JP      NC,MVSTPT       ; Yes - Set up pointer
69E2: 21BF80  	        LD      HL,TMPSTR       ; Temporary string pool
69E5: CD5C66  	        CALL    CPDEHL          ; Is string in temporary pool?
69E8: D2F469  	        JP      NC,MVSTPT       ; No - Set up pointer
69EB: 3E      	        .BYTE   3EH             ; Skip "POP DE"
69EC: D1      	CRESTR: POP     DE              ; Restore address of string
69ED: CDA372  	        CALL    BAKTMP          ; Back to last tmp-str entry
69F0: EB      	        EX      DE,HL           ; Address of string entry
69F1: CDDC70  	        CALL    SAVSTR          ; Save string in string area
69F4: CDA372  	MVSTPT: CALL    BAKTMP          ; Back to last tmp-str entry
69F7: E1      	        POP     HL              ; Get string pointer
69F8: CDA676  	        CALL    DETHL4          ; Move string pointer to var
69FB: E1      	        POP     HL              ; Restore code string address
69FC: C9      	        RET
              	
69FD: E5      	LETNUM: PUSH    HL              ; Save address of variable
69FE: CDA376  	        CALL    FPTHL           ; Move value to variable
6A01: D1      	        POP     DE              ; Restore address of variable
6A02: E1      	        POP     HL              ; Restore code string address
6A03: C9      	        RET
              	
6A04: CDCA73  	ON:     CALL    GETINT          ; Get integer 0-255
6A07: 7E      	        LD      A,(HL)          ; Get "GOTO" or "GOSUB" token
6A08: 47      	        LD      B,A             ; Save in B
6A09: FE8C    	        CP      ZGOSUB          ; "GOSUB" token?
6A0B: CA136A  	        JP      Z,ONGO          ; Yes - Find line number
6A0E: CD6266  	        CALL    CHKSYN          ; Make sure it's "GOTO"
6A11: 88      	        .BYTE   ZGOTO           ; "GOTO" token
6A12: 2B      	        DEC     HL              ; Cancel increment
6A13: 4B      	ONGO:   LD      C,E             ; Integer of branch value
6A14: 0D      	ONGOLP: DEC     C               ; Count branches
6A15: 78      	        LD      A,B             ; Get "GOTO" or "GOSUB" token
6A16: CAD467  	        JP      Z,ONJMP         ; Go to that line if right one
6A19: CDC968  	        CALL    GETLN           ; Get line number to DE
6A1C: FE2C    	        CP      ','             ; Another line number?
6A1E: C0      	        RET     NZ              ; No - Drop through
6A1F: C3146A  	        JP      ONGOLP          ; Yes - loop
              	
6A22: CD7B6C  	IF:     CALL    EVAL            ; Evaluate expression
6A25: 7E      	        LD      A,(HL)          ; Get token
6A26: FE88    	        CP      ZGOTO           ; "GOTO" token?
6A28: CA306A  	        JP      Z,IFGO          ; Yes - Get line
6A2B: CD6266  	        CALL    CHKSYN          ; Make sure it's "THEN"
6A2E: A9      	        .BYTE      ZTHEN           ; "THEN" token
6A2F: 2B      	        DEC     HL              ; Cancel increment
6A30: CD6C6C  	IFGO:   CALL    TSTNUM          ; Make sure it's numeric
6A33: CD4B76  	        CALL    TSTSGN          ; Test state of expression
6A36: CA9569  	        JP      Z,REM           ; False - Drop through
6A39: CDFC67  	        CALL    GETCHR          ; Get next character
6A3C: DA5069  	        JP      C,GOTO          ; Number - GOTO that line
6A3F: C3D367  	        JP      IFJMP           ; Otherwise do statement
              	
6A42: 2B      	MRPRNT: DEC     HL              ; DEC 'cos GETCHR INCs
6A43: CDFC67  	        CALL    GETCHR          ; Get next character
6A46: CAA46A  	PRINT:  JP      Z,PRNTCRLF      ; CRLF if just PRINT
6A49: C8      	PRNTLP: RET     Z               ; End of list - Exit
6A4A: FEA5    	        CP      ZTAB            ; "TAB(" token?
6A4C: CAD76A  	        JP      Z,DOTAB         ; Yes - Do TAB routine
6A4F: FEA8    	        CP      ZSPC            ; "SPC(" token?
6A51: CAD76A  	        JP      Z,DOTAB         ; Yes - Do SPC routine
6A54: E5      	        PUSH    HL              ; Save code string address
6A55: FE2C    	        CP      ','             ; Comma?
6A57: CAC06A  	        JP      Z,DOCOM         ; Yes - Move to next zone
6A5A: FE3B    	        CP      59 ;";"         ; Semi-colon?
6A5C: CAFA6A  	        JP      Z,NEXITM        ; Do semi-colon routine
6A5F: C1      	        POP     BC              ; Code string address to BC
6A60: CD7B6C  	        CALL    EVAL            ; Evaluate expression
6A63: E5      	        PUSH    HL              ; Save code string address
6A64: 3AAD80  	        LD      A,(TYPE)        ; Get variable type
6A67: B7      	        OR      A               ; Is it a string variable?
6A68: C2906A  	        JP      NZ,PRNTST       ; Yes - Output string contents
6A6B: CDF077  	        CALL    NUMASC          ; Convert number to text
6A6E: CD0071  	        CALL    CRTST           ; Create temporary string
6A71: 3620    	        LD      (HL),' '        ; Followed by a space
6A73: 2AE480  	        LD      HL,(FPREG)      ; Get length of output
6A76: 34      	        INC     (HL)            ; Plus 1 for the space
6A77: 2AE480  	        LD      HL,(FPREG)      ; < Not needed >
6A7A: 3A4280  	        LD      A,(LWIDTH)      ; Get width of line
6A7D: 47      	        LD      B,A             ; To B
6A7E: 04      	        INC     B               ; Width 255 (No limit)?
6A7F: CA8C6A  	        JP      Z,PRNTNB        ; Yes - Output number string
6A82: 04      	        INC     B               ; Adjust it
6A83: 3AAB80  	        LD      A,(CURPOS)      ; Get cursor position
6A86: 86      	        ADD     A,(HL)          ; Add length of string
6A87: 3D      	        DEC     A               ; Adjust it
6A88: B8      	        CP      B               ; Will output fit on this line?
6A89: D4A46A  	        CALL    NC,PRNTCRLF     ; No - CRLF first
6A8C: CD4571  	PRNTNB: CALL    PRS1            ; Output string at (HL)
6A8F: AF      	        XOR     A               ; Skip CALL by setting 'z' flag
6A90: C44571  	PRNTST: CALL    NZ,PRS1         ; Output string at (HL)
6A93: E1      	        POP     HL              ; Restore code string address
6A94: C3426A  	        JP      MRPRNT          ; See if more to PRINT
              	
6A97: 3AAB80  	STTLIN: LD      A,(CURPOS)      ; Make sure on new line
6A9A: B7      	        OR      A               ; Already at start?
6A9B: C8      	        RET     Z               ; Yes - Do nothing
6A9C: C3A46A  	        JP      PRNTCRLF        ; Start a new line
              	
6A9F: 3600    	ENDINP: LD      (HL),0          ; Mark end of buffer
6AA1: 216080  	        LD      HL,BUFFER-1     ; Point to buffer
6AA4: 3E0D    	PRNTCRLF: LD    A,CR            ; Load a CR
6AA6: CD6D66  	        CALL    OUTC            ; Output character
6AA9: 3E0A    	        LD      A,LF            ; Load a LF
6AAB: CD6D66  	        CALL    OUTC            ; Output character
6AAE: AF      	DONULL: XOR     A               ; Set to position 0
6AAF: 32AB80  	        LD      (CURPOS),A      ; Store it
6AB2: 3A4180  	        LD      A,(NULLS)       ; Get number of nulls
6AB5: 3D      	NULLP:  DEC     A               ; Count them
6AB6: C8      	        RET     Z               ; Return if done
6AB7: F5      	        PUSH    AF              ; Save count
6AB8: AF      	        XOR     A               ; Load a null
6AB9: CD6D66  	        CALL    OUTC            ; Output it
6ABC: F1      	        POP     AF              ; Restore count
6ABD: C3B56A  	        JP      NULLP           ; Keep counting
              	
6AC0: 3A4380  	DOCOM:  LD      A,(COMMAN)      ; Get comma width
6AC3: 47      	        LD      B,A             ; Save in B
6AC4: 3AAB80  	        LD      A,(CURPOS)      ; Get current position
6AC7: B8      	        CP      B               ; Within the limit?
6AC8: D4A46A  	        CALL    NC,PRNTCRLF     ; No - output CRLF
6ACB: D2FA6A  	        JP      NC,NEXITM       ; Get next item
6ACE: D60E    	ZONELP: SUB     14              ; Next zone of 14 characters
6AD0: D2CE6A  	        JP      NC,ZONELP       ; Repeat if more zones
6AD3: 2F      	        CPL                     ; Number of spaces to output
6AD4: C3EF6A  	        JP      ASPCS           ; Output them
              	
6AD7: F5      	DOTAB:  PUSH    AF              ; Save token
6AD8: CDC773  	        CALL    FNDNUM          ; Evaluate expression
6ADB: CD6266  	        CALL    CHKSYN          ; Make sure ")" follows
6ADE: 29      	        .BYTE   ")"
6ADF: 2B      	        DEC     HL              ; Back space on to ")"
6AE0: F1      	        POP     AF              ; Restore token
6AE1: D6A8    	        SUB     ZSPC            ; Was it "SPC(" ?
6AE3: E5      	        PUSH    HL              ; Save code string address
6AE4: CAEA6A  	        JP      Z,DOSPC         ; Yes - Do 'E' spaces
6AE7: 3AAB80  	        LD      A,(CURPOS)      ; Get current position
6AEA: 2F      	DOSPC:  CPL                     ; Number of spaces to print to
6AEB: 83      	        ADD     A,E             ; Total number to print
6AEC: D2FA6A  	        JP      NC,NEXITM       ; TAB < Current POS(X)
6AEF: 3C      	ASPCS:  INC     A               ; Output A spaces
6AF0: 47      	        LD      B,A             ; Save number to print
6AF1: 3E20    	        LD      A,' '           ; Space
6AF3: CD6D66  	SPCLP:  CALL    OUTC            ; Output character in A
6AF6: 05      	        DEC     B               ; Count them
6AF7: C2F36A  	        JP      NZ,SPCLP        ; Repeat if more
6AFA: E1      	NEXITM: POP     HL              ; Restore code string address
6AFB: CDFC67  	        CALL    GETCHR          ; Get next character
6AFE: C3496A  	        JP      PRNTLP          ; More to print
              	
6B01: 3F526564	REDO:   .BYTE   "?Redo from start",CR,LF,0
6B05: 6F206672	
6B09: 6F6D2073	
6B0D: 74617274	
6B11: 0D0A00  	
              	
6B14: 3ACD80  	BADINP: LD      A,(READFG)      ; READ or INPUT?
6B17: B7      	        OR      A
6B18: C28E63  	        JP      NZ,DATSNR       ; READ - ?SN Error
6B1B: C1      	        POP     BC              ; Throw away code string addr
6B1C: 21016B  	        LD      HL,REDO         ; "Redo from start" message
6B1F: CD4271  	        CALL    PRS             ; Output string
6B22: C3DF64  	        JP      DOAGN           ; Do last INPUT again
              	
6B25: CDAD70  	INPUT:  CALL    IDTEST          ; Test for illegal direct
6B28: 7E      	        LD      A,(HL)          ; Get character after "INPUT"
6B29: FE22    	        CP      '"'             ; Is there a prompt string? "
6B2B: 3E00    	        LD      A,0             ; Clear A and leave flags
6B2D: 324580  	        LD      (CTLOFG),A      ; Enable output
6B30: C23F6B  	        JP      NZ,NOPMPT       ; No prompt - get input
6B33: CD0171  	        CALL    QTSTR           ; Get string terminated by '"'
6B36: CD6266  	        CALL    CHKSYN          ; Check for ';' after prompt
6B39: 3B      	        .BYTE   ';'
6B3A: E5      	        PUSH    HL              ; Save code string address
6B3B: CD4571  	        CALL    PRS1            ; Output prompt string
6B3E: 3E      	        .BYTE   3EH             ; Skip "PUSH HL"
6B3F: E5      	NOPMPT: PUSH    HL              ; Save code string address
6B40: CDE364  	        CALL    PROMPT          ; Get input with "? " prompt
6B43: C1      	        POP     BC              ; Restore code string address
6B44: DA4B68  	        JP      C,INPBRK        ; Break pressed - Exit
6B47: 23      	        INC     HL              ; Next byte
6B48: 7E      	        LD      A,(HL)          ; Get it
6B49: B7      	        OR      A               ; End of line?
6B4A: 2B      	        DEC     HL              ; Back again
6B4B: C5      	        PUSH    BC              ; Re-save code string address
6B4C: CA9269  	        JP      Z,NXTDTA        ; Yes - Find next DATA stmt
6B4F: 362C    	        LD      (HL),','        ; Store comma as separator
6B51: C3596B  	        JP      NXTITM          ; Get next item
              	
6B54: E5      	READ:   PUSH    HL              ; Save code string address
6B55: 2ADC80  	        LD      HL,(NXTDAT)     ; Next DATA statement
6B58: F6      	        .BYTE   0F6H            ; Flag "READ"
6B59: AF      	NXTITM: XOR     A               ; Flag "INPUT"
6B5A: 32CD80  	        LD      (READFG),A      ; Save "READ"/"INPUT" flag
6B5D: E3      	        EX      (SP),HL         ; Get code str' , Save pointer
6B5E: C3656B  	        JP      GTVLUS          ; Get values
              	
6B61: CD6266  	NEDMOR: CALL    CHKSYN          ; Check for comma between items
6B64: 2C      	        .BYTE      ','
6B65: CD5F6E  	GTVLUS: CALL    GETVAR          ; Get variable name
6B68: E3      	        EX      (SP),HL         ; Save code str" , Get pointer
6B69: D5      	        PUSH    DE              ; Save variable address
6B6A: 7E      	        LD      A,(HL)          ; Get next "INPUT"/"DATA" byte
6B6B: FE2C    	        CP      ','             ; Comma?
6B6D: CA8D6B  	        JP      Z,ANTVLU        ; Yes - Get another value
6B70: 3ACD80  	        LD      A,(READFG)      ; Is it READ?
6B73: B7      	        OR      A
6B74: C2FA6B  	        JP      NZ,FDTLP        ; Yes - Find next DATA stmt
6B77: 3E3F    	        LD      A,'?'           ; More INPUT needed
6B79: CD6D66  	        CALL    OUTC            ; Output character
6B7C: CDE364  	        CALL    PROMPT          ; Get INPUT with prompt
6B7F: D1      	        POP     DE              ; Variable address
6B80: C1      	        POP     BC              ; Code string address
6B81: DA4B68  	        JP      C,INPBRK        ; Break pressed
6B84: 23      	        INC     HL              ; Point to next DATA byte
6B85: 7E      	        LD      A,(HL)          ; Get byte
6B86: B7      	        OR      A               ; Is it zero (No input) ?
6B87: 2B      	        DEC     HL              ; Back space INPUT pointer
6B88: C5      	        PUSH    BC              ; Save code string address
6B89: CA9269  	        JP      Z,NXTDTA        ; Find end of buffer
6B8C: D5      	        PUSH    DE              ; Save variable address
6B8D: 3AAD80  	ANTVLU: LD      A,(TYPE)        ; Check data type
6B90: B7      	        OR      A               ; Is it numeric?
6B91: CAB76B  	        JP      Z,INPBIN        ; Yes - Convert to binary
6B94: CDFC67  	        CALL    GETCHR          ; Get next character
6B97: 57      	        LD      D,A             ; Save input character
6B98: 47      	        LD      B,A             ; Again
6B99: FE22    	        CP      '"'             ; Start of literal sting? "
6B9B: CAAB6B  	        JP      Z,STRENT        ; Yes - Create string entry
6B9E: 3ACD80  	        LD      A,(READFG)      ; "READ" or "INPUT" ?
6BA1: B7      	        OR      A
6BA2: 57      	        LD      D,A             ; Save 00 if "INPUT"
6BA3: CAA86B  	        JP      Z,ITMSEP        ; "INPUT" - End with 00
6BA6: 163A    	        LD      D,':'           ; "DATA" - End with 00 or ':'
6BA8: 062C    	ITMSEP: LD      B,','           ; Item separator
6BAA: 2B      	        DEC     HL              ; Back space for DTSTR
6BAB: CD0471  	STRENT: CALL    DTSTR           ; Get string terminated by D
6BAE: EB      	        EX      DE,HL           ; String address to DE
6BAF: 21C26B  	        LD      HL,LTSTND       ; Where to go after LETSTR
6BB2: E3      	        EX      (SP),HL         ; Save HL , get input pointer
6BB3: D5      	        PUSH    DE              ; Save address of string
6BB4: C3C569  	        JP      LETSTR          ; Assign string to variable
              	
6BB7: CDFC67  	INPBIN: CALL    GETCHR          ; Get next character
6BBA: CD5277  	        CALL    ASCTFP          ; Convert ASCII to FP number
6BBD: E3      	        EX      (SP),HL         ; Save input ptr, Get var addr
6BBE: CDA376  	        CALL    FPTHL           ; Move FPREG to variable
6BC1: E1      	        POP     HL              ; Restore input pointer
6BC2: 2B      	LTSTND: DEC     HL              ; DEC 'cos GETCHR INCs
6BC3: CDFC67  	        CALL    GETCHR          ; Get next character
6BC6: CACE6B  	        JP      Z,MORDT         ; End of line - More needed?
6BC9: FE2C    	        CP      ','             ; Another value?
6BCB: C2146B  	        JP      NZ,BADINP       ; No - Bad input
6BCE: E3      	MORDT:  EX      (SP),HL         ; Get code string address
6BCF: 2B      	        DEC     HL              ; DEC 'cos GETCHR INCs
6BD0: CDFC67  	        CALL    GETCHR          ; Get next character
6BD3: C2616B  	        JP      NZ,NEDMOR       ; More needed - Get it
6BD6: D1      	        POP     DE              ; Restore DATA pointer
6BD7: 3ACD80  	        LD      A,(READFG)      ; "READ" or "INPUT" ?
6BDA: B7      	        OR      A
6BDB: EB      	        EX      DE,HL           ; DATA pointer to HL
6BDC: C22268  	        JP      NZ,UPDATA       ; Update DATA pointer if "READ"
6BDF: D5      	        PUSH    DE              ; Save code string address
6BE0: B6      	        OR      (HL)            ; More input given?
6BE1: 21E96B  	        LD      HL,EXTIG        ; "?Extra ignored" message
6BE4: C44271  	        CALL    NZ,PRS          ; Output string if extra given
6BE7: E1      	        POP     HL              ; Restore code string address
6BE8: C9      	        RET
              	
6BE9: 3F457874	EXTIG:  .BYTE   "?Extra ignored",CR,LF,0
6BED: 72612069	
6BF1: 676E6F72	
6BF5: 65640D0A	
6BF9: 00      	
              	
6BFA: CD9369  	FDTLP:  CALL    DATA            ; Get next statement
6BFD: B7      	        OR      A               ; End of line?
6BFE: C2136C  	        JP      NZ,FANDT        ; No - See if DATA statement
6C01: 23      	        INC     HL
6C02: 7E      	        LD      A,(HL)          ; End of program?
6C03: 23      	        INC     HL
6C04: B6      	        OR      (HL)            ; 00 00 Ends program
6C05: 1E06    	        LD      E,OD            ; ?OD Error
6C07: CAA863  	        JP      Z,ERROR         ; Yes - Out of DATA
6C0A: 23      	        INC     HL
6C0B: 5E      	        LD      E,(HL)          ; LSB of line number
6C0C: 23      	        INC     HL
6C0D: 56      	        LD      D,(HL)          ; MSB of line number
6C0E: EB      	        EX      DE,HL
6C0F: 22C980  	        LD      (DATLIN),HL     ; Set line of current DATA item
6C12: EB      	        EX      DE,HL
6C13: CDFC67  	FANDT:  CALL    GETCHR          ; Get next character
6C16: FE83    	        CP      ZDATA           ; "DATA" token
6C18: C2FA6B  	        JP      NZ,FDTLP        ; No "DATA" - Keep looking
6C1B: C38D6B  	        JP      ANTVLU          ; Found - Convert input
              	
6C1E: 110000  	NEXT:   LD      DE,0            ; In case no index given
6C21: C45F6E  	NEXT1:  CALL    NZ,GETVAR       ; Get index address
6C24: 22CE80  	        LD      (BRKLIN),HL     ; Save code string address
6C27: CD3D63  	        CALL    BAKSTK          ; Look for "FOR" block
6C2A: C29A63  	        JP      NZ,NFERR        ; No "FOR" - ?NF Error
6C2D: F9      	        LD      SP,HL           ; Clear nested loops
6C2E: D5      	        PUSH    DE              ; Save index address
6C2F: 7E      	        LD      A,(HL)          ; Get sign of STEP
6C30: 23      	        INC     HL
6C31: F5      	        PUSH    AF              ; Save sign of STEP
6C32: D5      	        PUSH    DE              ; Save index address
6C33: CD8976  	        CALL    PHLTFP          ; Move index value to FPREG
6C36: E3      	        EX      (SP),HL         ; Save address of TO value
6C37: E5      	        PUSH    HL              ; Save address of index
6C38: CDF673  	        CALL    ADDPHL          ; Add STEP to index value
6C3B: E1      	        POP     HL              ; Restore address of index
6C3C: CDA376  	        CALL    FPTHL           ; Move value to index variable
6C3F: E1      	        POP     HL              ; Restore address of TO value
6C40: CD9A76  	        CALL    LOADFP          ; Move TO value to BCDE
6C43: E5      	        PUSH    HL              ; Save address of line of FOR
6C44: CDC676  	        CALL    CMPNUM          ; Compare index with TO value
6C47: E1      	        POP     HL              ; Restore address of line num
6C48: C1      	        POP     BC              ; Address of sign of STEP
6C49: 90      	        SUB     B               ; Compare with expected sign
6C4A: CD9A76  	        CALL    LOADFP          ; BC = Loop stmt,DE = Line num
6C4D: CA596C  	        JP      Z,KILFOR        ; Loop finished - Terminate it
6C50: EB      	        EX      DE,HL           ; Loop statement line number
6C51: 225C80  	        LD      (LINEAT),HL     ; Set loop line number
6C54: 69      	        LD      L,C             ; Set code string to loop
6C55: 60      	        LD      H,B
6C56: C3A867  	        JP      PUTFID          ; Put back "FOR" and continue
              	
6C59: F9      	KILFOR: LD      SP,HL           ; Remove "FOR" block
6C5A: 2ACE80  	        LD      HL,(BRKLIN)     ; Code string after "NEXT"
6C5D: 7E      	        LD      A,(HL)          ; Get next byte in code string
6C5E: FE2C    	        CP      ','             ; More NEXTs ?
6C60: C2AC67  	        JP      NZ,RUNCNT       ; No - Do next statement
6C63: CDFC67  	        CALL    GETCHR          ; Position to index name
6C66: CD216C  	        CALL    NEXT1           ; Re-enter NEXT routine
              	; < will not RETurn to here , Exit to RUNCNT or Loop >
              	
6C69: CD7B6C  	GETNUM: CALL    EVAL            ; Get a numeric expression
6C6C: F6      	TSTNUM: .BYTE      0F6H            ; Clear carry (numeric)
6C6D: 37      	TSTSTR: SCF                     ; Set carry (string)
6C6E: 3AAD80  	CHKTYP: LD      A,(TYPE)        ; Check types match
6C71: 8F      	        ADC     A,A             ; Expected + actual
6C72: B7      	        OR      A               ; Clear carry , set parity
6C73: E8      	        RET     PE              ; Even parity - Types match
6C74: C3A663  	        JP      TMERR           ; Different types - Error
              	
6C77: CD6266  	OPNPAR: CALL    CHKSYN          ; Make sure "(" follows
6C7A: 28      	        .BYTE   "("
6C7B: 2B      	EVAL:   DEC     HL              ; Evaluate expression & save
6C7C: 1600    	        LD      D,0             ; Precedence value
6C7E: D5      	EVAL1:  PUSH    DE              ; Save precedence
6C7F: 0E01    	        LD      C,1
6C81: CD7163  	        CALL    CHKSTK          ; Check for 1 level of stack
6C84: CDF26C  	        CALL    OPRND           ; Get next expression value
6C87: 22D080  	EVAL2:  LD      (NXTOPR),HL     ; Save address of next operator
6C8A: 2AD080  	EVAL3:  LD      HL,(NXTOPR)     ; Restore address of next opr
6C8D: C1      	        POP     BC              ; Precedence value and operator
6C8E: 78      	        LD      A,B             ; Get precedence value
6C8F: FE78    	        CP      78H             ; "AND" or "OR" ?
6C91: D46C6C  	        CALL    NC,TSTNUM       ; No - Make sure it's a number
6C94: 7E      	        LD      A,(HL)          ; Get next operator / function
6C95: 1600    	        LD      D,0             ; Clear Last relation
6C97: D6B3    	RLTLP:  SUB     ZGTR            ; ">" Token
6C99: DAB36C  	        JP      C,FOPRND        ; + - * / ^ AND OR - Test it
6C9C: FE03    	        CP      ZLTH+1-ZGTR     ; < = >
6C9E: D2B36C  	        JP      NC,FOPRND       ; Function - Call it
6CA1: FE01    	        CP      ZEQUAL-ZGTR     ; "="
6CA3: 17      	        RLA                     ; <- Test for legal
6CA4: AA      	        XOR     D               ; <- combinations of < = >
6CA5: BA      	        CP      D               ; <- by combining last token
6CA6: 57      	        LD      D,A             ; <- with current one
6CA7: DA9463  	        JP      C,SNERR         ; Error if "<<' '==" or ">>"
6CAA: 22C580  	        LD      (CUROPR),HL     ; Save address of current token
6CAD: CDFC67  	        CALL    GETCHR          ; Get next character
6CB0: C3976C  	        JP      RLTLP           ; Treat the two as one
              	
6CB3: 7A      	FOPRND: LD      A,D             ; < = > found ?
6CB4: B7      	        OR      A
6CB5: C2DA6D  	        JP      NZ,TSTRED       ; Yes - Test for reduction
6CB8: 7E      	        LD      A,(HL)          ; Get operator token
6CB9: 22C580  	        LD      (CUROPR),HL     ; Save operator address
6CBC: D6AC    	        SUB     ZPLUS           ; Operator or function?
6CBE: D8      	        RET     C               ; Neither - Exit
6CBF: FE07    	        CP      ZOR+1-ZPLUS     ; Is it + - * / ^ AND OR ?
6CC1: D0      	        RET     NC              ; No - Exit
6CC2: 5F      	        LD      E,A             ; Coded operator
6CC3: 3AAD80  	        LD      A,(TYPE)        ; Get data type
6CC6: 3D      	        DEC     A               ; FF = numeric , 00 = string
6CC7: B3      	        OR      E               ; Combine with coded operator
6CC8: 7B      	        LD      A,E             ; Get coded operator
6CC9: CA3872  	        JP      Z,CONCAT        ; String concatenation
6CCC: 07      	        RLCA                    ; Times 2
6CCD: 83      	        ADD     A,E             ; Times 3
6CCE: 5F      	        LD      E,A             ; To DE (D is 0)
6CCF: 218662  	        LD      HL,PRITAB       ; Precedence table
6CD2: 19      	        ADD     HL,DE           ; To the operator concerned
6CD3: 78      	        LD      A,B             ; Last operator precedence
6CD4: 56      	        LD      D,(HL)          ; Get evaluation precedence
6CD5: BA      	        CP      D               ; Compare with eval precedence
6CD6: D0      	        RET     NC              ; Exit if higher precedence
6CD7: 23      	        INC     HL              ; Point to routine address
6CD8: CD6C6C  	        CALL    TSTNUM          ; Make sure it's a number
              	
6CDB: C5      	STKTHS: PUSH    BC              ; Save last precedence & token
6CDC: 018A6C  	        LD      BC,EVAL3        ; Where to go on prec' break
6CDF: C5      	        PUSH    BC              ; Save on stack for return
6CE0: 43      	        LD      B,E             ; Save operator
6CE1: 4A      	        LD      C,D             ; Save precedence
6CE2: CD7C76  	        CALL    STAKFP          ; Move value to stack
6CE5: 58      	        LD      E,B             ; Restore operator
6CE6: 51      	        LD      D,C             ; Restore precedence
6CE7: 4E      	        LD      C,(HL)          ; Get LSB of routine address
6CE8: 23      	        INC     HL
6CE9: 46      	        LD      B,(HL)          ; Get MSB of routine address
6CEA: 23      	        INC     HL
6CEB: C5      	        PUSH    BC              ; Save routine address
6CEC: 2AC580  	        LD      HL,(CUROPR)     ; Address of current operator
6CEF: C37E6C  	        JP      EVAL1           ; Loop until prec' break
              	
6CF2: AF      	OPRND:  XOR     A               ; Get operand routine
6CF3: 32AD80  	        LD      (TYPE),A        ; Set numeric expected
6CF6: CDFC67  	        CALL    GETCHR          ; Get next character
6CF9: 1E24    	        LD      E,MO            ; ?MO Error
6CFB: CAA863  	        JP      Z,ERROR         ; No operand - Error
6CFE: DA5277  	        JP      C,ASCTFP        ; Number - Get value
6D01: CD9A68  	        CALL    CHKLTR          ; See if a letter
6D04: D2596D  	        JP      NC,CONVAR       ; Letter - Find variable
6D07: FE26    	        CP		'&'				; &H = HEX, &B = BINARY
6D09: 2012    	        JR		NZ, NOTAMP
6D0B: CDFC67  	        CALL    GETCHR          ; Get next character
6D0E: FE48    	        CP      'H'             ; Hex number indicated? [function added]
6D10: CA967B  	        JP      Z,HEXTFP        ; Convert Hex to FPREG
6D13: FE42    	        CP      'B'             ; Binary number indicated? [function added]
6D15: CA067C  	        JP      Z,BINTFP        ; Convert Bin to FPREG
6D18: 1E02    	        LD      E,SN            ; If neither then a ?SN Error
6D1A: CAA863  	        JP      Z,ERROR         ; 
6D1D: FEAC    	NOTAMP: CP      ZPLUS           ; '+' Token ?
6D1F: CAF26C  	        JP      Z,OPRND         ; Yes - Look for operand
6D22: FE2E    	        CP      '.'             ; '.' ?
6D24: CA5277  	        JP      Z,ASCTFP        ; Yes - Create FP number
6D27: FEAD    	        CP      ZMINUS          ; '-' Token ?
6D29: CA486D  	        JP      Z,MINUS         ; Yes - Do minus
6D2C: FE22    	        CP      '"'             ; Literal string ?
6D2E: CA0171  	        JP      Z,QTSTR         ; Get string terminated by '"'
6D31: FEAA    	        CP      ZNOT            ; "NOT" Token ?
6D33: CA3A6E  	        JP      Z,EVNOT         ; Yes - Eval NOT expression
6D36: FEA7    	        CP      ZFN             ; "FN" Token ?
6D38: CA6570  	        JP      Z,DOFN          ; Yes - Do FN routine
6D3B: D6B6    	        SUB     ZSGN            ; Is it a function?
6D3D: D26A6D  	        JP      NC,FNOFST       ; Yes - Evaluate function
6D40: CD776C  	EVLPAR: CALL    OPNPAR          ; Evaluate expression in "()"
6D43: CD6266  	        CALL    CHKSYN          ; Make sure ")" follows
6D46: 29      	        .BYTE   ")"
6D47: C9      	        RET
              	
6D48: 167D    	MINUS:  LD      D,7DH           ; '-' precedence
6D4A: CD7E6C  	        CALL    EVAL1           ; Evaluate until prec' break
6D4D: 2AD080  	        LD      HL,(NXTOPR)     ; Get next operator address
6D50: E5      	        PUSH    HL              ; Save next operator address
6D51: CD7476  	        CALL    INVSGN          ; Negate value
6D54: CD6C6C  	RETNUM: CALL    TSTNUM          ; Make sure it's a number
6D57: E1      	        POP     HL              ; Restore next operator address
6D58: C9      	        RET
              	
6D59: CD5F6E  	CONVAR: CALL    GETVAR          ; Get variable address to DE
6D5C: E5      	FRMEVL: PUSH    HL              ; Save code string address
6D5D: EB      	        EX      DE,HL           ; Variable address to HL
6D5E: 22E480  	        LD      (FPREG),HL      ; Save address of variable
6D61: 3AAD80  	        LD      A,(TYPE)        ; Get type
6D64: B7      	        OR      A               ; Numeric?
6D65: CC8976  	        CALL    Z,PHLTFP        ; Yes - Move contents to FPREG
6D68: E1      	        POP     HL              ; Restore code string address
6D69: C9      	        RET
              	
6D6A: 0600    	FNOFST: LD      B,0             ; Get address of function
6D6C: 07      	        RLCA                    ; Double function offset
6D6D: 4F      	        LD      C,A             ; BC = Offset in function table
6D6E: C5      	        PUSH    BC              ; Save adjusted token value
6D6F: CDFC67  	        CALL    GETCHR          ; Get next character
6D72: 79      	        LD      A,C             ; Get adjusted token value
6D73: FE31    	        CP      2*(ZLEFT-ZSGN)-1; Adj' LEFT$,RIGHT$ or MID$ ?
6D75: DA916D  	        JP      C,FNVAL         ; No - Do function (if A<N got FNVAL)
6D78: CD776C  	        CALL    OPNPAR          ; Evaluate expression  (X,...
6D7B: CD6266  	        CALL    CHKSYN          ; Make sure ',' follows
6D7E: 2C      	        .BYTE      ','
6D7F: CD6D6C  	        CALL    TSTSTR          ; Make sure it's a string
6D82: EB      	        EX      DE,HL           ; Save code string address
6D83: 2AE480  	        LD      HL,(FPREG)      ; Get address of string
6D86: E3      	        EX      (SP),HL         ; Save address of string
6D87: E5      	        PUSH    HL              ; Save adjusted token value
6D88: EB      	        EX      DE,HL           ; Restore code string address
6D89: CDCA73  	        CALL    GETINT          ; Get integer 0-255
6D8C: EB      	        EX      DE,HL           ; Save code string address
6D8D: E3      	        EX      (SP),HL         ; Save integer,HL = adj' token
6D8E: C3996D  	        JP      GOFUNC          ; Jump to string function
              	
6D91: CD406D  	FNVAL:  CALL    EVLPAR          ; Evaluate expression
6D94: E3      	        EX      (SP),HL         ; HL = Adjusted token value
6D95: 11546D  	        LD      DE,RETNUM       ; Return number from function
6D98: D5      	        PUSH    DE              ; Save on stack
6D99: 01DA60  	GOFUNC: LD      BC,FNCTAB       ; Function routine addresses
6D9C: 09      	        ADD     HL,BC           ; Point to right address
6D9D: 4E      	        LD      C,(HL)          ; Get LSB of address
6D9E: 23      	        INC     HL              ;
6D9F: 66      	        LD      H,(HL)          ; Get MSB of address
6DA0: 69      	        LD      L,C             ; Address to HL
6DA1: E9      	        JP      (HL)            ; Jump to function
              	
6DA2: 15      	SGNEXP: DEC     D               ; Dee to flag negative exponent
6DA3: FEAD    	        CP      ZMINUS          ; '-' token ?
6DA5: C8      	        RET     Z               ; Yes - Return
6DA6: FE2D    	        CP      '-'             ; '-' ASCII ?
6DA8: C8      	        RET     Z               ; Yes - Return
6DA9: 14      	        INC     D               ; Inc to flag positive exponent
6DAA: FE2B    	        CP      '+'             ; '+' ASCII ?
6DAC: C8      	        RET     Z               ; Yes - Return
6DAD: FEAC    	        CP      ZPLUS           ; '+' token ?
6DAF: C8      	        RET     Z               ; Yes - Return
6DB0: 2B      	        DEC     HL              ; DEC 'cos GETCHR INCs
6DB1: C9      	        RET                     ; Return "NZ"
              	
6DB2: F6      	POR:    .BYTE      0F6H            ; Flag "OR"
6DB3: AF      	PAND:   XOR     A               ; Flag "AND"
6DB4: F5      	        PUSH    AF              ; Save "AND" / "OR" flag
6DB5: CD6C6C  	        CALL    TSTNUM          ; Make sure it's a number
6DB8: CDAE68  	        CALL    DEINT           ; Get integer -32768 to 32767
6DBB: F1      	        POP     AF              ; Restore "AND" / "OR" flag
6DBC: EB      	        EX      DE,HL           ; <- Get last
6DBD: C1      	        POP     BC              ; <-  value
6DBE: E3      	        EX      (SP),HL         ; <-  from
6DBF: EB      	        EX      DE,HL           ; <-  stack
6DC0: CD8C76  	        CALL    FPBCDE          ; Move last value to FPREG
6DC3: F5      	        PUSH    AF              ; Save "AND" / "OR" flag
6DC4: CDAE68  	        CALL    DEINT           ; Get integer -32768 to 32767
6DC7: F1      	        POP     AF              ; Restore "AND" / "OR" flag
6DC8: C1      	        POP     BC              ; Get value
6DC9: 79      	        LD      A,C             ; Get LSB
6DCA: 212370  	        LD      HL,ACPASS       ; Address of save AC as current
6DCD: C2D56D  	        JP      NZ,POR1         ; Jump if OR
6DD0: A3      	        AND     E               ; "AND" LSBs
6DD1: 4F      	        LD      C,A             ; Save LSB
6DD2: 78      	        LD      A,B             ; Get MBS
6DD3: A2      	        AND     D               ; "AND" MSBs
6DD4: E9      	        JP      (HL)            ; Save AC as current (ACPASS)
              	
6DD5: B3      	POR1:   OR      E               ; "OR" LSBs
6DD6: 4F      	        LD      C,A             ; Save LSB
6DD7: 78      	        LD      A,B             ; Get MSB
6DD8: B2      	        OR      D               ; "OR" MSBs
6DD9: E9      	        JP      (HL)            ; Save AC as current (ACPASS)
              	
6DDA: 21EC6D  	TSTRED: LD      HL,CMPLOG       ; Logical compare routine
6DDD: 3AAD80  	        LD      A,(TYPE)        ; Get data type
6DE0: 1F      	        RRA                     ; Carry set = string
6DE1: 7A      	        LD      A,D             ; Get last precedence value
6DE2: 17      	        RLA                     ; Times 2 plus carry
6DE3: 5F      	        LD      E,A             ; To E
6DE4: 1664    	        LD      D,64H           ; Relational precedence
6DE6: 78      	        LD      A,B             ; Get current precedence
6DE7: BA      	        CP      D               ; Compare with last
6DE8: D0      	        RET     NC              ; Eval if last was rel' or log'
6DE9: C3DB6C  	        JP      STKTHS          ; Stack this one and get next
              	
6DEC: EE6D    	CMPLOG: .WORD   CMPLG1          ; Compare two values / strings
6DEE: 79      	CMPLG1: LD      A,C             ; Get data type
6DEF: B7      	        OR      A
6DF0: 1F      	        RRA
6DF1: C1      	        POP     BC              ; Get last expression to BCDE
6DF2: D1      	        POP     DE
6DF3: F5      	        PUSH    AF              ; Save status
6DF4: CD6E6C  	        CALL    CHKTYP          ; Check that types match
6DF7: 21306E  	        LD      HL,CMPRES       ; Result to comparison
6DFA: E5      	        PUSH    HL              ; Save for RETurn
6DFB: CAC676  	        JP      Z,CMPNUM        ; Compare values if numeric
6DFE: AF      	        XOR     A               ; Compare two strings
6DFF: 32AD80  	        LD      (TYPE),A        ; Set type to numeric
6E02: D5      	        PUSH    DE              ; Save string name
6E03: CD8572  	        CALL    GSTRCU          ; Get current string
6E06: 7E      	        LD      A,(HL)          ; Get length of string
6E07: 23      	        INC     HL
6E08: 23      	        INC     HL
6E09: 4E      	        LD      C,(HL)          ; Get LSB of address
6E0A: 23      	        INC     HL
6E0B: 46      	        LD      B,(HL)          ; Get MSB of address
6E0C: D1      	        POP     DE              ; Restore string name
6E0D: C5      	        PUSH    BC              ; Save address of string
6E0E: F5      	        PUSH    AF              ; Save length of string
6E0F: CD8972  	        CALL    GSTRDE          ; Get second string
6E12: CD9A76  	        CALL    LOADFP          ; Get address of second string
6E15: F1      	        POP     AF              ; Restore length of string 1
6E16: 57      	        LD      D,A             ; Length to D
6E17: E1      	        POP     HL              ; Restore address of string 1
6E18: 7B      	CMPSTR: LD      A,E             ; Bytes of string 2 to do
6E19: B2      	        OR      D               ; Bytes of string 1 to do
6E1A: C8      	        RET     Z               ; Exit if all bytes compared
6E1B: 7A      	        LD      A,D             ; Get bytes of string 1 to do
6E1C: D601    	        SUB     1
6E1E: D8      	        RET     C               ; Exit if end of string 1
6E1F: AF      	        XOR     A
6E20: BB      	        CP      E               ; Bytes of string 2 to do
6E21: 3C      	        INC     A
6E22: D0      	        RET     NC              ; Exit if end of string 2
6E23: 15      	        DEC     D               ; Count bytes in string 1
6E24: 1D      	        DEC     E               ; Count bytes in string 2
6E25: 0A      	        LD      A,(BC)          ; Byte in string 2
6E26: BE      	        CP      (HL)            ; Compare to byte in string 1
6E27: 23      	        INC     HL              ; Move up string 1
6E28: 03      	        INC     BC              ; Move up string 2
6E29: CA186E  	        JP      Z,CMPSTR        ; Same - Try next bytes
6E2C: 3F      	        CCF                     ; Flag difference (">" or "<")
6E2D: C35676  	        JP      FLGDIF          ; "<" gives -1 , ">" gives +1
              	
6E30: 3C      	CMPRES: INC     A               ; Increment current value
6E31: 8F      	        ADC     A,A             ; Double plus carry
6E32: C1      	        POP     BC              ; Get other value
6E33: A0      	        AND     B               ; Combine them
6E34: C6FF    	        ADD     A,-1            ; Carry set if different
6E36: 9F      	        SBC     A,A             ; 00 - Equal , FF - Different
6E37: C35D76  	        JP      FLGREL          ; Set current value & continue
              	
6E3A: 165A    	EVNOT:  LD      D,5AH           ; Precedence value for "NOT"
6E3C: CD7E6C  	        CALL    EVAL1           ; Eval until precedence break
6E3F: CD6C6C  	        CALL    TSTNUM          ; Make sure it's a number
6E42: CDAE68  	        CALL    DEINT           ; Get integer -32768 - 32767
6E45: 7B      	        LD      A,E             ; Get LSB
6E46: 2F      	        CPL                     ; Invert LSB
6E47: 4F      	        LD      C,A             ; Save "NOT" of LSB
6E48: 7A      	        LD      A,D             ; Get MSB
6E49: 2F      	        CPL                     ; Invert MSB
6E4A: CD2370  	        CALL    ACPASS          ; Save AC as current
6E4D: C1      	        POP     BC              ; Clean up stack
6E4E: C38A6C  	        JP      EVAL3           ; Continue evaluation
              	
6E51: 2B      	DIMRET: DEC     HL              ; DEC 'cos GETCHR INCs
6E52: CDFC67  	        CALL    GETCHR          ; Get next character
6E55: C8      	        RET     Z               ; End of DIM statement
6E56: CD6266  	        CALL    CHKSYN          ; Make sure ',' follows
6E59: 2C      	        .BYTE      ','
6E5A: 01516E  	DIM:    LD      BC,DIMRET       ; Return to "DIMRET"
6E5D: C5      	        PUSH    BC              ; Save on stack
6E5E: F6      	        .BYTE      0F6H            ; Flag "Create" variable
6E5F: AF      	GETVAR: XOR     A               ; Find variable address,to DE
6E60: 32AC80  	        LD      (LCRFLG),A      ; Set locate / create flag
6E63: 46      	        LD      B,(HL)          ; Get First byte of name
6E64: CD9A68  	GTFNAM: CALL    CHKLTR          ; See if a letter
6E67: DA9463  	        JP      C,SNERR         ; ?SN Error if not a letter
6E6A: AF      	        XOR     A
6E6B: 4F      	        LD      C,A             ; Clear second byte of name
6E6C: 32AD80  	        LD      (TYPE),A        ; Set type to numeric
6E6F: CDFC67  	        CALL    GETCHR          ; Get next character
6E72: DA7B6E  	        JP      C,SVNAM2        ; Numeric - Save in name
6E75: CD9A68  	        CALL    CHKLTR          ; See if a letter
6E78: DA886E  	        JP      C,CHARTY        ; Not a letter - Check type
6E7B: 4F      	SVNAM2: LD      C,A             ; Save second byte of name
6E7C: CDFC67  	ENDNAM: CALL    GETCHR          ; Get next character
6E7F: DA7C6E  	        JP      C,ENDNAM        ; Numeric - Get another
6E82: CD9A68  	        CALL    CHKLTR          ; See if a letter
6E85: D27C6E  	        JP      NC,ENDNAM       ; Letter - Get another
6E88: D624    	CHARTY: SUB     '$'             ; String variable?
6E8A: C2976E  	        JP      NZ,NOTSTR       ; No - Numeric variable
6E8D: 3C      	        INC     A               ; A = 1 (string type)
6E8E: 32AD80  	        LD      (TYPE),A        ; Set type to string
6E91: 0F      	        RRCA                    ; A = 80H , Flag for string
6E92: 81      	        ADD     A,C             ; 2nd byte of name has bit 7 on
6E93: 4F      	        LD      C,A             ; Resave second byte on name
6E94: CDFC67  	        CALL    GETCHR          ; Get next character
6E97: 3ACB80  	NOTSTR: LD      A,(FORFLG)      ; Array name needed ?
6E9A: 3D      	        DEC     A
6E9B: CA446F  	        JP      Z,ARLDSV        ; Yes - Get array name
6E9E: F2A76E  	        JP      P,NSCFOR        ; No array with "FOR" or "FN"
6EA1: 7E      	        LD      A,(HL)          ; Get byte again
6EA2: D628    	        SUB     '('             ; Subscripted variable?
6EA4: CA1C6F  	        JP      Z,SBSCPT        ; Yes - Sort out subscript
              	
6EA7: AF      	NSCFOR: XOR     A               ; Simple variable
6EA8: 32CB80  	        LD      (FORFLG),A      ; Clear "FOR" flag
6EAB: E5      	        PUSH    HL              ; Save code string address
6EAC: 50      	        LD      D,B             ; DE = Variable name to find
6EAD: 59      	        LD      E,C
6EAE: 2ADE80  	        LD      HL,(FNRGNM)     ; FN argument name
6EB1: CD5C66  	        CALL    CPDEHL          ; Is it the FN argument?
6EB4: 11E080  	        LD      DE,FNARG        ; Point to argument value
6EB7: CA8C75  	        JP      Z,POPHRT        ; Yes - Return FN argument value
6EBA: 2AD880  	        LD      HL,(VAREND)     ; End of variables
6EBD: EB      	        EX      DE,HL           ; Address of end of search
6EBE: 2AD680  	        LD      HL,(PROGND)     ; Start of variables address
6EC1: CD5C66  	FNDVAR: CALL    CPDEHL          ; End of variable list table?
6EC4: CADA6E  	        JP      Z,CFEVAL        ; Yes - Called from EVAL?
6EC7: 79      	        LD      A,C             ; Get second byte of name
6EC8: 96      	        SUB     (HL)            ; Compare with name in list
6EC9: 23      	        INC     HL              ; Move on to first byte
6ECA: C2CF6E  	        JP      NZ,FNTHR        ; Different - Find another
6ECD: 78      	        LD      A,B             ; Get first byte of name
6ECE: 96      	        SUB     (HL)            ; Compare with name in list
6ECF: 23      	FNTHR:  INC     HL              ; Move on to LSB of value
6ED0: CA0E6F  	        JP      Z,RETADR        ; Found - Return address
6ED3: 23      	        INC     HL              ; <- Skip
6ED4: 23      	        INC     HL              ; <- over
6ED5: 23      	        INC     HL              ; <- F.P.
6ED6: 23      	        INC     HL              ; <- value
6ED7: C3C16E  	        JP      FNDVAR          ; Keep looking
              	
6EDA: E1      	CFEVAL: POP     HL              ; Restore code string address
6EDB: E3      	        EX      (SP),HL         ; Get return address
6EDC: D5      	        PUSH    DE              ; Save address of variable
6EDD: 115C6D  	        LD      DE,FRMEVL       ; Return address in EVAL
6EE0: CD5C66  	        CALL    CPDEHL          ; Called from EVAL ?
6EE3: D1      	        POP     DE              ; Restore address of variable
6EE4: CA116F  	        JP      Z,RETNUL        ; Yes - Return null variable
6EE7: E3      	        EX      (SP),HL         ; Put back return
6EE8: E5      	        PUSH    HL              ; Save code string address
6EE9: C5      	        PUSH    BC              ; Save variable name
6EEA: 010600  	        LD      BC,6            ; 2 byte name plus 4 byte data
6EED: 2ADA80  	        LD      HL,(ARREND)     ; End of arrays
6EF0: E5      	        PUSH    HL              ; Save end of arrays
6EF1: 09      	        ADD     HL,BC           ; Move up 6 bytes
6EF2: C1      	        POP     BC              ; Source address in BC
6EF3: E5      	        PUSH    HL              ; Save new end address
6EF4: CD6063  	        CALL    MOVUP           ; Move arrays up
6EF7: E1      	        POP     HL              ; Restore new end address
6EF8: 22DA80  	        LD      (ARREND),HL     ; Set new end address
6EFB: 60      	        LD      H,B             ; End of variables to HL
6EFC: 69      	        LD      L,C
6EFD: 22D880  	        LD      (VAREND),HL     ; Set new end address
              	
6F00: 2B      	ZEROLP: DEC     HL              ; Back through to zero variable
6F01: 3600    	        LD      (HL),0          ; Zero byte in variable
6F03: CD5C66  	        CALL    CPDEHL          ; Done them all?
6F06: C2006F  	        JP      NZ,ZEROLP       ; No - Keep on going
6F09: D1      	        POP     DE              ; Get variable name
6F0A: 73      	        LD      (HL),E          ; Store second character
6F0B: 23      	        INC     HL
6F0C: 72      	        LD      (HL),D          ; Store first character
6F0D: 23      	        INC     HL
6F0E: EB      	RETADR: EX      DE,HL           ; Address of variable in DE
6F0F: E1      	        POP     HL              ; Restore code string address
6F10: C9      	        RET
              	
6F11: 32E780  	RETNUL: LD      (FPEXP),A       ; Set result to zero
6F14: 213063  	        LD      HL,ZERBYT       ; Also set a null string
6F17: 22E480  	        LD      (FPREG),HL      ; Save for EVAL
6F1A: E1      	        POP     HL              ; Restore code string address
6F1B: C9      	        RET
              	
6F1C: E5      	SBSCPT: PUSH    HL              ; Save code string address
6F1D: 2AAC80  	        LD      HL,(LCRFLG)     ; Locate/Create and Type
6F20: E3      	        EX      (SP),HL         ; Save and get code string
6F21: 57      	        LD      D,A             ; Zero number of dimensions
6F22: D5      	SCPTLP: PUSH    DE              ; Save number of dimensions
6F23: C5      	        PUSH    BC              ; Save array name
6F24: CDA268  	        CALL    FPSINT          ; Get subscript (0-32767)
6F27: C1      	        POP     BC              ; Restore array name
6F28: F1      	        POP     AF              ; Get number of dimensions
6F29: EB      	        EX      DE,HL
6F2A: E3      	        EX      (SP),HL         ; Save subscript value
6F2B: E5      	        PUSH    HL              ; Save LCRFLG and TYPE
6F2C: EB      	        EX      DE,HL
6F2D: 3C      	        INC     A               ; Count dimensions
6F2E: 57      	        LD      D,A             ; Save in D
6F2F: 7E      	        LD      A,(HL)          ; Get next byte in code string
6F30: FE2C    	        CP      ','             ; Comma (more to come)?
6F32: CA226F  	        JP      Z,SCPTLP        ; Yes - More subscripts
6F35: CD6266  	        CALL    CHKSYN          ; Make sure ")" follows
6F38: 29      	        .BYTE      ")"
6F39: 22D080  	        LD      (NXTOPR),HL     ; Save code string address
6F3C: E1      	        POP     HL              ; Get LCRFLG and TYPE
6F3D: 22AC80  	        LD      (LCRFLG),HL     ; Restore Locate/create & type
6F40: 1E00    	        LD      E,0             ; Flag not CSAVE* or CLOAD*
6F42: D5      	        PUSH    DE              ; Save number of dimensions (D)
6F43: 11      	        .BYTE      11H             ; Skip "PUSH HL" and "PUSH AF'
              	
6F44: E5      	ARLDSV: PUSH    HL              ; Save code string address
6F45: F5      	        PUSH    AF              ; A = 00 , Flags set = Z,N
6F46: 2AD880  	        LD      HL,(VAREND)     ; Start of arrays
6F49: 3E      	        .BYTE      3EH             ; Skip "ADD HL,DE"
6F4A: 19      	FNDARY: ADD     HL,DE           ; Move to next array start
6F4B: EB      	        EX      DE,HL
6F4C: 2ADA80  	        LD      HL,(ARREND)     ; End of arrays
6F4F: EB      	        EX      DE,HL           ; Current array pointer
6F50: CD5C66  	        CALL    CPDEHL          ; End of arrays found?
6F53: CA7C6F  	        JP      Z,CREARY        ; Yes - Create array
6F56: 7E      	        LD      A,(HL)          ; Get second byte of name
6F57: B9      	        CP      C               ; Compare with name given
6F58: 23      	        INC     HL              ; Move on
6F59: C25E6F  	        JP      NZ,NXTARY       ; Different - Find next array
6F5C: 7E      	        LD      A,(HL)          ; Get first byte of name
6F5D: B8      	        CP      B               ; Compare with name given
6F5E: 23      	NXTARY: INC     HL              ; Move on
6F5F: 5E      	        LD      E,(HL)          ; Get LSB of next array address
6F60: 23      	        INC     HL
6F61: 56      	        LD      D,(HL)          ; Get MSB of next array address
6F62: 23      	        INC     HL
6F63: C24A6F  	        JP      NZ,FNDARY       ; Not found - Keep looking
6F66: 3AAC80  	        LD      A,(LCRFLG)      ; Found Locate or Create it?
6F69: B7      	        OR      A
6F6A: C29D63  	        JP      NZ,DDERR        ; Create - ?DD Error
6F6D: F1      	        POP     AF              ; Locate - Get number of dim'ns
6F6E: 44      	        LD      B,H             ; BC Points to array dim'ns
6F6F: 4D      	        LD      C,L
6F70: CA8C75  	        JP      Z,POPHRT        ; Jump if array load/save
6F73: 96      	        SUB     (HL)            ; Same number of dimensions?
6F74: CADA6F  	        JP      Z,FINDEL        ; Yes - Find element
6F77: 1E10    	BSERR:  LD      E,BS            ; ?BS Error
6F79: C3A863  	        JP      ERROR           ; Output error
              	
6F7C: 110400  	CREARY: LD      DE,4            ; 4 Bytes per entry
6F7F: F1      	        POP     AF              ; Array to save or 0 dim'ns?
6F80: CAC368  	        JP      Z,FCERR         ; Yes - ?FC Error
6F83: 71      	        LD      (HL),C          ; Save second byte of name
6F84: 23      	        INC     HL
6F85: 70      	        LD      (HL),B          ; Save first byte of name
6F86: 23      	        INC     HL
6F87: 4F      	        LD      C,A             ; Number of dimensions to C
6F88: CD7163  	        CALL    CHKSTK          ; Check if enough memory
6F8B: 23      	        INC     HL              ; Point to number of dimensions
6F8C: 23      	        INC     HL
6F8D: 22C580  	        LD      (CUROPR),HL     ; Save address of pointer
6F90: 71      	        LD      (HL),C          ; Set number of dimensions
6F91: 23      	        INC     HL
6F92: 3AAC80  	        LD      A,(LCRFLG)      ; Locate of Create?
6F95: 17      	        RLA                     ; Carry set = Create
6F96: 79      	        LD      A,C             ; Get number of dimensions
6F97: 010B00  	CRARLP: LD      BC,10+1         ; Default dimension size 10
6F9A: D29F6F  	        JP      NC,DEFSIZ       ; Locate - Set default size
6F9D: C1      	        POP     BC              ; Get specified dimension size
6F9E: 03      	        INC     BC              ; Include zero element
6F9F: 71      	DEFSIZ: LD      (HL),C          ; Save LSB of dimension size
6FA0: 23      	        INC     HL
6FA1: 70      	        LD      (HL),B          ; Save MSB of dimension size
6FA2: 23      	        INC     HL
6FA3: F5      	        PUSH    AF              ; Save num' of dim'ns an status
6FA4: E5      	        PUSH    HL              ; Save address of dim'n size
6FA5: CD3777  	        CALL    MLDEBC          ; Multiply DE by BC to find
6FA8: EB      	        EX      DE,HL           ; amount of mem needed (to DE)
6FA9: E1      	        POP     HL              ; Restore address of dimension
6FAA: F1      	        POP     AF              ; Restore number of dimensions
6FAB: 3D      	        DEC     A               ; Count them
6FAC: C2976F  	        JP      NZ,CRARLP       ; Do next dimension if more
6FAF: F5      	        PUSH    AF              ; Save locate/create flag
6FB0: 42      	        LD      B,D             ; MSB of memory needed
6FB1: 4B      	        LD      C,E             ; LSB of memory needed
6FB2: EB      	        EX      DE,HL
6FB3: 19      	        ADD     HL,DE           ; Add bytes to array start
6FB4: DA8963  	        JP      C,OMERR         ; Too big - Error
6FB7: CD7A63  	        CALL    ENFMEM          ; See if enough memory
6FBA: 22DA80  	        LD      (ARREND),HL     ; Save new end of array
              	
6FBD: 2B      	ZERARY: DEC     HL              ; Back through array data
6FBE: 3600    	        LD      (HL),0          ; Set array element to zero
6FC0: CD5C66  	        CALL    CPDEHL          ; All elements zeroed?
6FC3: C2BD6F  	        JP      NZ,ZERARY       ; No - Keep on going
6FC6: 03      	        INC     BC              ; Number of bytes + 1
6FC7: 57      	        LD      D,A             ; A=0
6FC8: 2AC580  	        LD      HL,(CUROPR)     ; Get address of array
6FCB: 5E      	        LD      E,(HL)          ; Number of dimensions
6FCC: EB      	        EX      DE,HL           ; To HL
6FCD: 29      	        ADD     HL,HL           ; Two bytes per dimension size
6FCE: 09      	        ADD     HL,BC           ; Add number of bytes
6FCF: EB      	        EX      DE,HL           ; Bytes needed to DE
6FD0: 2B      	        DEC     HL
6FD1: 2B      	        DEC     HL
6FD2: 73      	        LD      (HL),E          ; Save LSB of bytes needed
6FD3: 23      	        INC     HL
6FD4: 72      	        LD      (HL),D          ; Save MSB of bytes needed
6FD5: 23      	        INC     HL
6FD6: F1      	        POP     AF              ; Locate / Create?
6FD7: DAFE6F  	        JP      C,ENDDIM        ; A is 0 , End if create
6FDA: 47      	FINDEL: LD      B,A             ; Find array element
6FDB: 4F      	        LD      C,A
6FDC: 7E      	        LD      A,(HL)          ; Number of dimensions
6FDD: 23      	        INC     HL
6FDE: 16      	        .BYTE      16H             ; Skip "POP HL"
6FDF: E1      	FNDELP: POP     HL              ; Address of next dim' size
6FE0: 5E      	        LD      E,(HL)          ; Get LSB of dim'n size
6FE1: 23      	        INC     HL
6FE2: 56      	        LD      D,(HL)          ; Get MSB of dim'n size
6FE3: 23      	        INC     HL
6FE4: E3      	        EX      (SP),HL         ; Save address - Get index
6FE5: F5      	        PUSH    AF              ; Save number of dim'ns
6FE6: CD5C66  	        CALL    CPDEHL          ; Dimension too large?
6FE9: D2776F  	        JP      NC,BSERR        ; Yes - ?BS Error
6FEC: E5      	        PUSH    HL              ; Save index
6FED: CD3777  	        CALL    MLDEBC          ; Multiply previous by size
6FF0: D1      	        POP     DE              ; Index supplied to DE
6FF1: 19      	        ADD     HL,DE           ; Add index to pointer
6FF2: F1      	        POP     AF              ; Number of dimensions
6FF3: 3D      	        DEC     A               ; Count them
6FF4: 44      	        LD      B,H             ; MSB of pointer
6FF5: 4D      	        LD      C,L             ; LSB of pointer
6FF6: C2DF6F  	        JP      NZ,FNDELP       ; More - Keep going
6FF9: 29      	        ADD     HL,HL           ; 4 Bytes per element
6FFA: 29      	        ADD     HL,HL
6FFB: C1      	        POP     BC              ; Start of array
6FFC: 09      	        ADD     HL,BC           ; Point to element
6FFD: EB      	        EX      DE,HL           ; Address of element to DE
6FFE: 2AD080  	ENDDIM: LD      HL,(NXTOPR)     ; Got code string address
7001: C9      	        RET
              	
7002: 2ADA80  	FRE:    LD      HL,(ARREND)     ; Start of free memory
7005: EB      	        EX      DE,HL           ; To DE
7006: 210000  	        LD      HL,0            ; End of free memory
7009: 39      	        ADD     HL,SP           ; Current stack value
700A: 3AAD80  	        LD      A,(TYPE)        ; Dummy argument type
700D: B7      	        OR      A
700E: CA1E70  	        JP      Z,FRENUM        ; Numeric - Free variable space
7011: CD8572  	        CALL    GSTRCU          ; Current string to pool
7014: CD8571  	        CALL    GARBGE          ; Garbage collection
7017: 2A5A80  	        LD      HL,(STRSPC)     ; Bottom of string space in use
701A: EB      	        EX      DE,HL           ; To DE
701B: 2AC380  	        LD      HL,(STRBOT)     ; Bottom of string space
701E: 7D      	FRENUM: LD      A,L             ; Get LSB of end
701F: 93      	        SUB     E               ; Subtract LSB of beginning
7020: 4F      	        LD      C,A             ; Save difference if C
7021: 7C      	        LD      A,H             ; Get MSB of end
7022: 9A      	        SBC     A,D             ; Subtract MSB of beginning
7023: 41      	ACPASS: LD      B,C             ; Return integer AC
7024: 50      	ABPASS: LD      D,B             ; Return integer AB
7025: 1E00    	        LD      E,0
7027: 21AD80  	        LD      HL,TYPE         ; Point to type
702A: 73      	        LD      (HL),E          ; Set type to numeric
702B: 0690    	        LD      B,80H+16        ; 16 bit integer
702D: C36276  	        JP      RETINT          ; Return the integr
              	
7030: 3AAB80  	POS:    LD      A,(CURPOS)      ; Get cursor position
7033: 47      	PASSA:  LD      B,A             ; Put A into AB
7034: AF      	        XOR     A               ; Zero A
7035: C32470  	        JP      ABPASS          ; Return integer AB
              	
7038: CDBB70  	DEF:    CALL    CHEKFN          ; Get "FN" and name
703B: CDAD70  	        CALL    IDTEST          ; Test for illegal direct
703E: 019369  	        LD      BC,DATA         ; To get next statement
7041: C5      	        PUSH    BC              ; Save address for RETurn
7042: D5      	        PUSH    DE              ; Save address of function ptr
7043: CD6266  	        CALL    CHKSYN          ; Make sure "(" follows
7046: 28      	        .BYTE      "("
7047: CD5F6E  	        CALL    GETVAR          ; Get argument variable name
704A: E5      	        PUSH    HL              ; Save code string address
704B: EB      	        EX      DE,HL           ; Argument address to HL
704C: 2B      	        DEC     HL
704D: 56      	        LD      D,(HL)          ; Get first byte of arg name
704E: 2B      	        DEC     HL
704F: 5E      	        LD      E,(HL)          ; Get second byte of arg name
7050: E1      	        POP     HL              ; Restore code string address
7051: CD6C6C  	        CALL    TSTNUM          ; Make sure numeric argument
7054: CD6266  	        CALL    CHKSYN          ; Make sure ")" follows
7057: 29      	        .BYTE      ")"
7058: CD6266  	        CALL    CHKSYN          ; Make sure "=" follows
705B: B4      	        .BYTE      ZEQUAL          ; "=" token
705C: 44      	        LD      B,H             ; Code string address to BC
705D: 4D      	        LD      C,L
705E: E3      	        EX      (SP),HL         ; Save code str , Get FN ptr
705F: 71      	        LD      (HL),C          ; Save LSB of FN code string
7060: 23      	        INC     HL
7061: 70      	        LD      (HL),B          ; Save MSB of FN code string
7062: C3FA70  	        JP      SVSTAD          ; Save address and do function
              	
7065: CDBB70  	DOFN:   CALL    CHEKFN          ; Make sure FN follows
7068: D5      	        PUSH    DE              ; Save function pointer address
7069: CD406D  	        CALL    EVLPAR          ; Evaluate expression in "()"
706C: CD6C6C  	        CALL    TSTNUM          ; Make sure numeric result
706F: E3      	        EX      (SP),HL         ; Save code str , Get FN ptr
7070: 5E      	        LD      E,(HL)          ; Get LSB of FN code string
7071: 23      	        INC     HL
7072: 56      	        LD      D,(HL)          ; Get MSB of FN code string
7073: 23      	        INC     HL
7074: 7A      	        LD      A,D             ; And function DEFined?
7075: B3      	        OR      E
7076: CAA063  	        JP      Z,UFERR         ; No - ?UF Error
7079: 7E      	        LD      A,(HL)          ; Get LSB of argument address
707A: 23      	        INC     HL
707B: 66      	        LD      H,(HL)          ; Get MSB of argument address
707C: 6F      	        LD      L,A             ; HL = Arg variable address
707D: E5      	        PUSH    HL              ; Save it
707E: 2ADE80  	        LD      HL,(FNRGNM)     ; Get old argument name
7081: E3      	        EX      (SP),HL ;       ; Save old , Get new
7082: 22DE80  	        LD      (FNRGNM),HL     ; Set new argument name
7085: 2AE280  	        LD      HL,(FNARG+2)    ; Get LSB,NLSB of old arg value
7088: E5      	        PUSH    HL              ; Save it
7089: 2AE080  	        LD      HL,(FNARG)      ; Get MSB,EXP of old arg value
708C: E5      	        PUSH    HL              ; Save it
708D: 21E080  	        LD      HL,FNARG        ; HL = Value of argument
7090: D5      	        PUSH    DE              ; Save FN code string address
7091: CDA376  	        CALL    FPTHL           ; Move FPREG to argument
7094: E1      	        POP     HL              ; Get FN code string address
7095: CD696C  	        CALL    GETNUM          ; Get value from function
7098: 2B      	        DEC     HL              ; DEC 'cos GETCHR INCs
7099: CDFC67  	        CALL    GETCHR          ; Get next character
709C: C29463  	        JP      NZ,SNERR        ; Bad character in FN - Error
709F: E1      	        POP     HL              ; Get MSB,EXP of old arg
70A0: 22E080  	        LD      (FNARG),HL      ; Restore it
70A3: E1      	        POP     HL              ; Get LSB,NLSB of old arg
70A4: 22E280  	        LD      (FNARG+2),HL    ; Restore it
70A7: E1      	        POP     HL              ; Get name of old arg
70A8: 22DE80  	        LD      (FNRGNM),HL     ; Restore it
70AB: E1      	        POP     HL              ; Restore code string address
70AC: C9      	        RET
              	
70AD: E5      	IDTEST: PUSH    HL              ; Save code string address
70AE: 2A5C80  	        LD      HL,(LINEAT)     ; Get current line number
70B1: 23      	        INC     HL              ; -1 means direct statement
70B2: 7C      	        LD      A,H
70B3: B5      	        OR      L
70B4: E1      	        POP     HL              ; Restore code string address
70B5: C0      	        RET     NZ              ; Return if in program
70B6: 1E16    	        LD      E,ID            ; ?ID Error
70B8: C3A863  	        JP      ERROR
              	
70BB: CD6266  	CHEKFN: CALL    CHKSYN          ; Make sure FN follows
70BE: A7      	        .BYTE      ZFN             ; "FN" token
70BF: 3E80    	        LD      A,80H
70C1: 32CB80  	        LD      (FORFLG),A      ; Flag FN name to find
70C4: B6      	        OR      (HL)            ; FN name has bit 7 set
70C5: 47      	        LD      B,A             ; in first byte of name
70C6: CD646E  	        CALL    GTFNAM          ; Get FN name
70C9: C36C6C  	        JP      TSTNUM          ; Make sure numeric function
              	
70CC: CD6C6C  	STR:    CALL    TSTNUM          ; Make sure it's a number
70CF: CDF077  	        CALL    NUMASC          ; Turn number into text
70D2: CD0071  	STR1:   CALL    CRTST           ; Create string entry for it
70D5: CD8572  	        CALL    GSTRCU          ; Current string to pool
70D8: 01E072  	        LD      BC,TOPOOL       ; Save in string pool
70DB: C5      	        PUSH    BC              ; Save address on stack
              	
70DC: 7E      	SAVSTR: LD      A,(HL)          ; Get string length
70DD: 23      	        INC     HL
70DE: 23      	        INC     HL
70DF: E5      	        PUSH    HL              ; Save pointer to string
70E0: CD5B71  	        CALL    TESTR           ; See if enough string space
70E3: E1      	        POP     HL              ; Restore pointer to string
70E4: 4E      	        LD      C,(HL)          ; Get LSB of address
70E5: 23      	        INC     HL
70E6: 46      	        LD      B,(HL)          ; Get MSB of address
70E7: CDF470  	        CALL    CRTMST          ; Create string entry
70EA: E5      	        PUSH    HL              ; Save pointer to MSB of addr
70EB: 6F      	        LD      L,A             ; Length of string
70EC: CD7872  	        CALL    TOSTRA          ; Move to string area
70EF: D1      	        POP     DE              ; Restore pointer to MSB
70F0: C9      	        RET
              	
70F1: CD5B71  	MKTMST: CALL    TESTR           ; See if enough string space
70F4: 21BF80  	CRTMST: LD      HL,TMPSTR       ; Temporary string
70F7: E5      	        PUSH    HL              ; Save it
70F8: 77      	        LD      (HL),A          ; Save length of string
70F9: 23      	        INC     HL
70FA: 23      	SVSTAD: INC     HL
70FB: 73      	        LD      (HL),E          ; Save LSB of address
70FC: 23      	        INC     HL
70FD: 72      	        LD      (HL),D          ; Save MSB of address
70FE: E1      	        POP     HL              ; Restore pointer
70FF: C9      	        RET
              	
7100: 2B      	CRTST:  DEC     HL              ; DEC - INCed after
7101: 0622    	QTSTR:  LD      B,'"'           ; Terminating quote "
7103: 50      	        LD      D,B             ; Quote to D
7104: E5      	DTSTR:  PUSH    HL              ; Save start
7105: 0EFF    	        LD      C,-1            ; Set counter to -1
7107: 23      	QTSTLP: INC     HL              ; Move on
7108: 7E      	        LD      A,(HL)          ; Get byte
7109: 0C      	        INC     C               ; Count bytes
710A: B7      	        OR      A               ; End of line?
710B: CA1671  	        JP      Z,CRTSTE        ; Yes - Create string entry
710E: BA      	        CP      D               ; Terminator D found?
710F: CA1671  	        JP      Z,CRTSTE        ; Yes - Create string entry
7112: B8      	        CP      B               ; Terminator B found?
7113: C20771  	        JP      NZ,QTSTLP       ; No - Keep looking
7116: FE22    	CRTSTE: CP      '"'             ; End with '"'?
7118: CCFC67  	        CALL    Z,GETCHR        ; Yes - Get next character
711B: E3      	        EX      (SP),HL         ; Starting quote
711C: 23      	        INC     HL              ; First byte of string
711D: EB      	        EX      DE,HL           ; To DE
711E: 79      	        LD      A,C             ; Get length
711F: CDF470  	        CALL    CRTMST          ; Create string entry
7122: 11BF80  	TSTOPL: LD      DE,TMPSTR       ; Temporary string
7125: 2AB180  	        LD      HL,(TMSTPT)     ; Temporary string pool pointer
7128: 22E480  	        LD      (FPREG),HL      ; Save address of string ptr
712B: 3E01    	        LD      A,1
712D: 32AD80  	        LD      (TYPE),A        ; Set type to string
7130: CDA676  	        CALL    DETHL4          ; Move string to pool
7133: CD5C66  	        CALL    CPDEHL          ; Out of string pool?
7136: 22B180  	        LD      (TMSTPT),HL     ; Save new pointer
7139: E1      	        POP     HL              ; Restore code string address
713A: 7E      	        LD      A,(HL)          ; Get next code byte
713B: C0      	        RET     NZ              ; Return if pool OK
713C: 1E1E    	        LD      E,ST            ; ?ST Error
713E: C3A863  	        JP      ERROR           ; String pool overflow
              	
7141: 23      	PRNUMS: INC     HL              ; Skip leading space
7142: CD0071  	PRS:    CALL    CRTST           ; Create string entry for it
7145: CD8572  	PRS1:   CALL    GSTRCU          ; Current string to pool
7148: CD9A76  	        CALL    LOADFP          ; Move string block to BCDE
714B: 1C      	        INC     E               ; Length + 1
714C: 1D      	PRSLP:  DEC     E               ; Count characters
714D: C8      	        RET     Z               ; End of string
714E: 0A      	        LD      A,(BC)          ; Get byte to output
714F: CD6D66  	        CALL    OUTC            ; Output character in A
7152: FE0D    	        CP      CR              ; Return?
7154: CCAE6A  	        CALL    Z,DONULL        ; Yes - Do nulls
7157: 03      	        INC     BC              ; Next byte in string
7158: C34C71  	        JP      PRSLP           ; More characters to output
              	
715B: B7      	TESTR:  OR      A               ; Test if enough room
715C: 0E      	        .BYTE      0EH             ; No garbage collection done
715D: F1      	GRBDON: POP     AF              ; Garbage collection done
715E: F5      	        PUSH    AF              ; Save status
715F: 2A5A80  	        LD      HL,(STRSPC)     ; Bottom of string space in use
7162: EB      	        EX      DE,HL           ; To DE
7163: 2AC380  	        LD      HL,(STRBOT)     ; Bottom of string area
7166: 2F      	        CPL                     ; Negate length (Top down)
7167: 4F      	        LD      C,A             ; -Length to BC
7168: 06FF    	        LD      B,-1            ; BC = -ve length of string
716A: 09      	        ADD     HL,BC           ; Add to bottom of space in use
716B: 23      	        INC     HL              ; Plus one for 2's complement
716C: CD5C66  	        CALL    CPDEHL          ; Below string RAM area?
716F: DA7971  	        JP      C,TESTOS        ; Tidy up if not done else err
7172: 22C380  	        LD      (STRBOT),HL     ; Save new bottom of area
7175: 23      	        INC     HL              ; Point to first byte of string
7176: EB      	        EX      DE,HL           ; Address to DE
7177: F1      	POPAF:  POP     AF              ; Throw away status push
7178: C9      	        RET
              	
7179: F1      	TESTOS: POP     AF              ; Garbage collect been done?
717A: 1E1A    	        LD      E,OS            ; ?OS Error
717C: CAA863  	        JP      Z,ERROR         ; Yes - Not enough string apace
717F: BF      	        CP      A               ; Flag garbage collect done
7180: F5      	        PUSH    AF              ; Save status
7181: 015D71  	        LD      BC,GRBDON       ; Garbage collection done
7184: C5      	        PUSH    BC              ; Save for RETurn
7185: 2AAF80  	GARBGE: LD      HL,(LSTRAM)     ; Get end of RAM pointer
7188: 22C380  	GARBLP: LD      (STRBOT),HL     ; Reset string pointer
718B: 210000  	        LD      HL,0
718E: E5      	        PUSH    HL              ; Flag no string found
718F: 2A5A80  	        LD      HL,(STRSPC)     ; Get bottom of string space
7192: E5      	        PUSH    HL              ; Save bottom of string space
7193: 21B380  	        LD      HL,TMSTPL       ; Temporary string pool
7196: EB      	GRBLP:  EX      DE,HL
7197: 2AB180  	        LD      HL,(TMSTPT)     ; Temporary string pool pointer
719A: EB      	        EX      DE,HL
719B: CD5C66  	        CALL    CPDEHL          ; Temporary string pool done?
719E: 019671  	        LD      BC,GRBLP        ; Loop until string pool done
71A1: C2EA71  	        JP      NZ,STPOOL       ; No - See if in string area
71A4: 2AD680  	        LD      HL,(PROGND)     ; Start of simple variables
71A7: EB      	SMPVAR: EX      DE,HL
71A8: 2AD880  	        LD      HL,(VAREND)     ; End of simple variables
71AB: EB      	        EX      DE,HL
71AC: CD5C66  	        CALL    CPDEHL          ; All simple strings done?
71AF: CABD71  	        JP      Z,ARRLP         ; Yes - Do string arrays
71B2: 7E      	        LD      A,(HL)          ; Get type of variable
71B3: 23      	        INC     HL
71B4: 23      	        INC     HL
71B5: B7      	        OR      A               ; "S" flag set if string
71B6: CDED71  	        CALL    STRADD          ; See if string in string area
71B9: C3A771  	        JP      SMPVAR          ; Loop until simple ones done
              	
71BC: C1      	GNXARY: POP     BC              ; Scrap address of this array
71BD: EB      	ARRLP:  EX      DE,HL
71BE: 2ADA80  	        LD      HL,(ARREND)     ; End of string arrays
71C1: EB      	        EX      DE,HL
71C2: CD5C66  	        CALL    CPDEHL          ; All string arrays done?
71C5: CA1372  	        JP      Z,SCNEND        ; Yes - Move string if found
71C8: CD9A76  	        CALL    LOADFP          ; Get array name to BCDE
71CB: 7B      	        LD      A,E             ; Get type of array     
71CC: E5      	        PUSH    HL              ; Save address of num of dim'ns
71CD: 09      	        ADD     HL,BC           ; Start of next array
71CE: B7      	        OR      A               ; Test type of array
71CF: F2BC71  	        JP      P,GNXARY        ; Numeric array - Ignore it
71D2: 22C580  	        LD      (CUROPR),HL     ; Save address of next array
71D5: E1      	        POP     HL              ; Get address of num of dim'ns
71D6: 4E      	        LD      C,(HL)          ; BC = Number of dimensions
71D7: 0600    	        LD      B,0
71D9: 09      	        ADD     HL,BC           ; Two bytes per dimension size
71DA: 09      	        ADD     HL,BC
71DB: 23      	        INC     HL              ; Plus one for number of dim'ns
71DC: EB      	GRBARY: EX      DE,HL
71DD: 2AC580  	        LD      HL,(CUROPR)     ; Get address of next array
71E0: EB      	        EX      DE,HL
71E1: CD5C66  	        CALL    CPDEHL          ; Is this array finished?
71E4: CABD71  	        JP      Z,ARRLP         ; Yes - Get next one
71E7: 01DC71  	        LD      BC,GRBARY       ; Loop until array all done
71EA: C5      	STPOOL: PUSH    BC              ; Save return address
71EB: F680    	        OR      80H             ; Flag string type
71ED: 7E      	STRADD: LD      A,(HL)          ; Get string length
71EE: 23      	        INC     HL
71EF: 23      	        INC     HL
71F0: 5E      	        LD      E,(HL)          ; Get LSB of string address
71F1: 23      	        INC     HL
71F2: 56      	        LD      D,(HL)          ; Get MSB of string address
71F3: 23      	        INC     HL
71F4: F0      	        RET     P               ; Not a string - Return
71F5: B7      	        OR      A               ; Set flags on string length
71F6: C8      	        RET     Z               ; Null string - Return
71F7: 44      	        LD      B,H             ; Save variable pointer
71F8: 4D      	        LD      C,L
71F9: 2AC380  	        LD      HL,(STRBOT)     ; Bottom of new area
71FC: CD5C66  	        CALL    CPDEHL          ; String been done?
71FF: 60      	        LD      H,B             ; Restore variable pointer
7200: 69      	        LD      L,C
7201: D8      	        RET     C               ; String done - Ignore
7202: E1      	        POP     HL              ; Return address
7203: E3      	        EX      (SP),HL         ; Lowest available string area
7204: CD5C66  	        CALL    CPDEHL          ; String within string area?
7207: E3      	        EX      (SP),HL         ; Lowest available string area
7208: E5      	        PUSH    HL              ; Re-save return address
7209: 60      	        LD      H,B             ; Restore variable pointer
720A: 69      	        LD      L,C
720B: D0      	        RET     NC              ; Outside string area - Ignore
720C: C1      	        POP     BC              ; Get return , Throw 2 away
720D: F1      	        POP     AF              ; 
720E: F1      	        POP     AF              ; 
720F: E5      	        PUSH    HL              ; Save variable pointer
7210: D5      	        PUSH    DE              ; Save address of current
7211: C5      	        PUSH    BC              ; Put back return address
7212: C9      	        RET                     ; Go to it
              	
7213: D1      	SCNEND: POP     DE              ; Addresses of strings
7214: E1      	        POP     HL              ; 
7215: 7D      	        LD      A,L             ; HL = 0 if no more to do
7216: B4      	        OR      H
7217: C8      	        RET     Z               ; No more to do - Return
7218: 2B      	        DEC     HL
7219: 46      	        LD      B,(HL)          ; MSB of address of string
721A: 2B      	        DEC     HL
721B: 4E      	        LD      C,(HL)          ; LSB of address of string
721C: E5      	        PUSH    HL              ; Save variable address
721D: 2B      	        DEC     HL
721E: 2B      	        DEC     HL
721F: 6E      	        LD      L,(HL)          ; HL = Length of string
7220: 2600    	        LD      H,0
7222: 09      	        ADD     HL,BC           ; Address of end of string+1
7223: 50      	        LD      D,B             ; String address to DE
7224: 59      	        LD      E,C
7225: 2B      	        DEC     HL              ; Last byte in string
7226: 44      	        LD      B,H             ; Address to BC
7227: 4D      	        LD      C,L
7228: 2AC380  	        LD      HL,(STRBOT)     ; Current bottom of string area
722B: CD6363  	        CALL    MOVSTR          ; Move string to new address
722E: E1      	        POP     HL              ; Restore variable address
722F: 71      	        LD      (HL),C          ; Save new LSB of address
7230: 23      	        INC     HL
7231: 70      	        LD      (HL),B          ; Save new MSB of address
7232: 69      	        LD      L,C             ; Next string area+1 to HL
7233: 60      	        LD      H,B
7234: 2B      	        DEC     HL              ; Next string area address
7235: C38871  	        JP      GARBLP          ; Look for more strings
              	
7238: C5      	CONCAT: PUSH    BC              ; Save prec' opr & code string
7239: E5      	        PUSH    HL              ; 
723A: 2AE480  	        LD      HL,(FPREG)      ; Get first string
723D: E3      	        EX      (SP),HL         ; Save first string
723E: CDF26C  	        CALL    OPRND           ; Get second string
7241: E3      	        EX      (SP),HL         ; Restore first string
7242: CD6D6C  	        CALL    TSTSTR          ; Make sure it's a string
7245: 7E      	        LD      A,(HL)          ; Get length of second string
7246: E5      	        PUSH    HL              ; Save first string
7247: 2AE480  	        LD      HL,(FPREG)      ; Get second string
724A: E5      	        PUSH    HL              ; Save second string
724B: 86      	        ADD     A,(HL)          ; Add length of second string
724C: 1E1C    	        LD      E,LS            ; ?LS Error
724E: DAA863  	        JP      C,ERROR         ; String too long - Error
7251: CDF170  	        CALL    MKTMST          ; Make temporary string
7254: D1      	        POP     DE              ; Get second string to DE
7255: CD8972  	        CALL    GSTRDE          ; Move to string pool if needed
7258: E3      	        EX      (SP),HL         ; Get first string
7259: CD8872  	        CALL    GSTRHL          ; Move to string pool if needed
725C: E5      	        PUSH    HL              ; Save first string
725D: 2AC180  	        LD      HL,(TMPSTR+2)   ; Temporary string address
7260: EB      	        EX      DE,HL           ; To DE
7261: CD6F72  	        CALL    SSTSA           ; First string to string area
7264: CD6F72  	        CALL    SSTSA           ; Second string to string area
7267: 21876C  	        LD      HL,EVAL2        ; Return to evaluation loop
726A: E3      	        EX      (SP),HL         ; Save return,get code string
726B: E5      	        PUSH    HL              ; Save code string address
726C: C32271  	        JP      TSTOPL          ; To temporary string to pool
              	
726F: E1      	SSTSA:  POP     HL              ; Return address
7270: E3      	        EX      (SP),HL         ; Get string block,save return
7271: 7E      	        LD      A,(HL)          ; Get length of string
7272: 23      	        INC     HL
7273: 23      	        INC     HL
7274: 4E      	        LD      C,(HL)          ; Get LSB of string address
7275: 23      	        INC     HL
7276: 46      	        LD      B,(HL)          ; Get MSB of string address
7277: 6F      	        LD      L,A             ; Length to L
7278: 2C      	TOSTRA: INC     L               ; INC - DECed after
7279: 2D      	TSALP:  DEC     L               ; Count bytes moved
727A: C8      	        RET     Z               ; End of string - Return
727B: 0A      	        LD      A,(BC)          ; Get source
727C: 12      	        LD      (DE),A          ; Save destination
727D: 03      	        INC     BC              ; Next source
727E: 13      	        INC     DE              ; Next destination
727F: C37972  	        JP      TSALP           ; Loop until string moved
              	
7282: CD6D6C  	GETSTR: CALL    TSTSTR          ; Make sure it's a string
7285: 2AE480  	GSTRCU: LD      HL,(FPREG)      ; Get current string
7288: EB      	GSTRHL: EX      DE,HL           ; Save DE
7289: CDA372  	GSTRDE: CALL    BAKTMP          ; Was it last tmp-str?
728C: EB      	        EX      DE,HL           ; Restore DE
728D: C0      	        RET     NZ              ; No - Return
728E: D5      	        PUSH    DE              ; Save string
728F: 50      	        LD      D,B             ; String block address to DE
7290: 59      	        LD      E,C
7291: 1B      	        DEC     DE              ; Point to length
7292: 4E      	        LD      C,(HL)          ; Get string length
7293: 2AC380  	        LD      HL,(STRBOT)     ; Current bottom of string area
7296: CD5C66  	        CALL    CPDEHL          ; Last one in string area?
7299: C2A172  	        JP      NZ,POPHL        ; No - Return
729C: 47      	        LD      B,A             ; Clear B (A=0)
729D: 09      	        ADD     HL,BC           ; Remove string from str' area
729E: 22C380  	        LD      (STRBOT),HL     ; Save new bottom of str' area
72A1: E1      	POPHL:  POP     HL              ; Restore string
72A2: C9      	        RET
              	
72A3: 2AB180  	BAKTMP: LD      HL,(TMSTPT)     ; Get temporary string pool top
72A6: 2B      	        DEC     HL              ; Back
72A7: 46      	        LD      B,(HL)          ; Get MSB of address
72A8: 2B      	        DEC     HL              ; Back
72A9: 4E      	        LD      C,(HL)          ; Get LSB of address
72AA: 2B      	        DEC     HL              ; Back
72AB: 2B      	        DEC     HL              ; Back
72AC: CD5C66  	        CALL    CPDEHL          ; String last in string pool?
72AF: C0      	        RET     NZ              ; Yes - Leave it
72B0: 22B180  	        LD      (TMSTPT),HL     ; Save new string pool top
72B3: C9      	        RET
              	
72B4: 013370  	LEN:    LD      BC,PASSA        ; To return integer A
72B7: C5      	        PUSH    BC              ; Save address
72B8: CD8272  	GETLEN: CALL    GETSTR          ; Get string and its length
72BB: AF      	        XOR     A
72BC: 57      	        LD      D,A             ; Clear D
72BD: 32AD80  	        LD      (TYPE),A        ; Set type to numeric
72C0: 7E      	        LD      A,(HL)          ; Get length of string
72C1: B7      	        OR      A               ; Set status flags
72C2: C9      	        RET
              	
72C3: 013370  	ASC:    LD      BC,PASSA        ; To return integer A
72C6: C5      	        PUSH    BC              ; Save address
72C7: CDB872  	GTFLNM: CALL    GETLEN          ; Get length of string
72CA: CAC368  	        JP      Z,FCERR         ; Null string - Error
72CD: 23      	        INC     HL
72CE: 23      	        INC     HL
72CF: 5E      	        LD      E,(HL)          ; Get LSB of address
72D0: 23      	        INC     HL
72D1: 56      	        LD      D,(HL)          ; Get MSB of address
72D2: 1A      	        LD      A,(DE)          ; Get first byte of string
72D3: C9      	        RET
              	
72D4: 3E01    	CHR:    LD      A,1             ; One character string
72D6: CDF170  	        CALL    MKTMST          ; Make a temporary string
72D9: CDCD73  	        CALL    MAKINT          ; Make it integer A
72DC: 2AC180  	        LD      HL,(TMPSTR+2)   ; Get address of string
72DF: 73      	        LD      (HL),E          ; Save character
72E0: C1      	TOPOOL: POP     BC              ; Clean up stack
72E1: C32271  	        JP      TSTOPL          ; Temporary string to pool
              	
72E4: CD7D73  	LEFT:   CALL    LFRGNM          ; Get number and ending ")"
72E7: AF      	        XOR     A               ; Start at first byte in string
72E8: E3      	RIGHT1: EX      (SP),HL         ; Save code string,Get string
72E9: 4F      	        LD      C,A             ; Starting position in string
72EA: E5      	MID1:   PUSH    HL              ; Save string block address
72EB: 7E      	        LD      A,(HL)          ; Get length of string
72EC: B8      	        CP      B               ; Compare with number given
72ED: DAF272  	        JP      C,ALLFOL        ; All following bytes required
72F0: 78      	        LD      A,B             ; Get new length
72F1: 11      	        .BYTE      11H             ; Skip "LD C,0"
72F2: 0E00    	ALLFOL: LD      C,0             ; First byte of string
72F4: C5      	        PUSH    BC              ; Save position in string
72F5: CD5B71  	        CALL    TESTR           ; See if enough string space
72F8: C1      	        POP     BC              ; Get position in string
72F9: E1      	        POP     HL              ; Restore string block address
72FA: E5      	        PUSH    HL              ; And re-save it
72FB: 23      	        INC     HL
72FC: 23      	        INC     HL
72FD: 46      	        LD      B,(HL)          ; Get LSB of address
72FE: 23      	        INC     HL
72FF: 66      	        LD      H,(HL)          ; Get MSB of address
7300: 68      	        LD      L,B             ; HL = address of string
7301: 0600    	        LD      B,0             ; BC = starting address
7303: 09      	        ADD     HL,BC           ; Point to that byte
7304: 44      	        LD      B,H             ; BC = source string
7305: 4D      	        LD      C,L
7306: CDF470  	        CALL    CRTMST          ; Create a string entry
7309: 6F      	        LD      L,A             ; Length of new string
730A: CD7872  	        CALL    TOSTRA          ; Move string to string area
730D: D1      	        POP     DE              ; Clear stack
730E: CD8972  	        CALL    GSTRDE          ; Move to string pool if needed
7311: C32271  	        JP      TSTOPL          ; Temporary string to pool
              	
7314: CD7D73  	RIGHT:  CALL    LFRGNM          ; Get number and ending ")"
7317: D1      	        POP     DE              ; Get string length
7318: D5      	        PUSH    DE              ; And re-save
7319: 1A      	        LD      A,(DE)          ; Get length
731A: 90      	        SUB     B               ; Move back N bytes
731B: C3E872  	        JP      RIGHT1          ; Go and get sub-string
              	
731E: EB      	MID:    EX      DE,HL           ; Get code string address
731F: 7E      	        LD      A,(HL)          ; Get next byte ',' or ")"
7320: CD8273  	        CALL    MIDNUM          ; Get number supplied
7323: 04      	        INC     B               ; Is it character zero?
7324: 05      	        DEC     B
7325: CAC368  	        JP      Z,FCERR         ; Yes - Error
7328: C5      	        PUSH    BC              ; Save starting position
7329: 1EFF    	        LD      E,255           ; All of string
732B: FE29    	        CP      ')'             ; Any length given?
732D: CA3773  	        JP      Z,RSTSTR        ; No - Rest of string
7330: CD6266  	        CALL    CHKSYN          ; Make sure ',' follows
7333: 2C      	        .BYTE      ','
7334: CDCA73  	        CALL    GETINT          ; Get integer 0-255
7337: CD6266  	RSTSTR: CALL    CHKSYN          ; Make sure ")" follows
733A: 29      	        .BYTE      ")"
733B: F1      	        POP     AF              ; Restore starting position
733C: E3      	        EX      (SP),HL         ; Get string,8ave code string
733D: 01EA72  	        LD      BC,MID1         ; Continuation of MID$ routine
7340: C5      	        PUSH    BC              ; Save for return
7341: 3D      	        DEC     A               ; Starting position-1
7342: BE      	        CP      (HL)            ; Compare with length
7343: 0600    	        LD      B,0             ; Zero bytes length
7345: D0      	        RET     NC              ; Null string if start past end
7346: 4F      	        LD      C,A             ; Save starting position-1
7347: 7E      	        LD      A,(HL)          ; Get length of string
7348: 91      	        SUB     C               ; Subtract start
7349: BB      	        CP      E               ; Enough string for it?
734A: 47      	        LD      B,A             ; Save maximum length available
734B: D8      	        RET     C               ; Truncate string if needed
734C: 43      	        LD      B,E             ; Set specified length
734D: C9      	        RET                     ; Go and create string
              	
734E: CDB872  	VAL:    CALL    GETLEN          ; Get length of string
7351: CA6B74  	        JP      Z,RESZER        ; Result zero
7354: 5F      	        LD      E,A             ; Save length
7355: 23      	        INC     HL
7356: 23      	        INC     HL
7357: 7E      	        LD      A,(HL)          ; Get LSB of address
7358: 23      	        INC     HL
7359: 66      	        LD      H,(HL)          ; Get MSB of address
735A: 6F      	        LD      L,A             ; HL = String address
735B: E5      	        PUSH    HL              ; Save string address
735C: 19      	        ADD     HL,DE
735D: 46      	        LD      B,(HL)          ; Get end of string+1 byte
735E: 72      	        LD      (HL),D          ; Zero it to terminate
735F: E3      	        EX      (SP),HL         ; Save string end,get start
7360: C5      	        PUSH    BC              ; Save end+1 byte
7361: 7E      	        LD      A,(HL)          ; Get starting byte
7362: FE24    	    CP	'$'		; Hex number indicated? [function added]
7364: C26C73  	    JP	NZ,VAL1
7367: CD967B  	    CALL	HEXTFP		; Convert Hex to FPREG
736A: 180D    	    JR	VAL3
736C: FE25    	VAL1:	CP	'%'		; Binary number indicated? [function added]
736E: C27673  	    JP	NZ,VAL2
7371: CD067C  	    CALL	BINTFP		; Convert Bin to FPREG
7374: 1803    	    JR	VAL3
7376: CD5277  	VAL2:   CALL    ASCTFP          ; Convert ASCII string to FP
7379: C1      	VAL3:   POP     BC              ; Restore end+1 byte
737A: E1      	        POP     HL              ; Restore end+1 address
737B: 70      	        LD      (HL),B          ; Put back original byte
737C: C9      	        RET
              	
737D: EB      	LFRGNM: EX      DE,HL           ; Code string address to HL
737E: CD6266  	        CALL    CHKSYN          ; Make sure ")" follows
7381: 29      	        .BYTE      ")"
7382: C1      	MIDNUM: POP     BC              ; Get return address
7383: D1      	        POP     DE              ; Get number supplied
7384: C5      	        PUSH    BC              ; Re-save return address
7385: 43      	        LD      B,E             ; Number to B
7386: C9      	        RET
              	
7387: CDCD73  	INP:    CALL    MAKINT          ; Make it integer A               
738A: 323F80  	        LD      (INPORT),A      ; Set input port
738D: CD3E80  	        CALL    INPSUB          ; Get input from port
7390: C33370  	        JP      PASSA           ; Return integer A
              	
7393: CDB773  	POUT:   CALL    SETIO           ; Set up port number
7396: C30680  	        JP      OUTSUB          ; Output data and return
              	
7399: CDB773  	WAIT:   CALL    SETIO           ; Set up port number
739C: F5      	        PUSH    AF              ; Save AND mask
739D: 1E00    	        LD      E,0             ; Assume zero if none given
739F: 2B      	        DEC     HL              ; DEC 'cos GETCHR INCs
73A0: CDFC67  	        CALL    GETCHR          ; Get next character
73A3: CAAD73  	        JP      Z,NOXOR         ; No XOR byte given
73A6: CD6266  	        CALL    CHKSYN          ; Make sure ',' follows
73A9: 2C      	        .BYTE      ','
73AA: CDCA73  	        CALL    GETINT          ; Get integer 0-255 to XOR with
73AD: C1      	NOXOR:  POP     BC              ; Restore AND mask
73AE: CD3E80  	WAITLP: CALL    INPSUB          ; Get input
73B1: AB      	        XOR     E               ; Flip selected bits
73B2: A0      	        AND     B               ; Result non-zero?
73B3: CAAE73  	        JP      Z,WAITLP        ; No = keep waiting
73B6: C9      	        RET
              	
73B7: CDCA73  	SETIO:  CALL    GETINT          ; Get integer 0-255
73BA: 323F80  	        LD      (INPORT),A      ; Set input port
73BD: 320780  	        LD      (OTPORT),A      ; Set output port
73C0: CD6266  	        CALL    CHKSYN          ; Make sure ',' follows
73C3: 2C      	        .BYTE      ','
73C4: C3CA73  	        JP      GETINT          ; Get integer 0-255 and return
              	
73C7: CDFC67  	FNDNUM: CALL    GETCHR          ; Get next character
73CA: CD696C  	GETINT: CALL    GETNUM          ; Get a number from 0 to 255
73CD: CDA868  	MAKINT: CALL    DEPINT          ; Make sure value 0 - 255
73D0: 7A      	        LD      A,D             ; Get MSB of number
73D1: B7      	        OR      A               ; Zero?
73D2: C2C368  	        JP      NZ,FCERR        ; No - Error
73D5: 2B      	        DEC     HL              ; DEC 'cos GETCHR INCs
73D6: CDFC67  	        CALL    GETCHR          ; Get next character
73D9: 7B      	        LD      A,E             ; Get number to A
73DA: C9      	        RET
              	
73DB: CDAE68  	PEEK:   CALL    DEINT           ; Get memory address
73DE: 1A      	        LD      A,(DE)          ; Get byte in memory
73DF: C33370  	        JP      PASSA           ; Return integer A
              	
73E2: CD696C  	POKE:   CALL    GETNUM          ; Get memory address
73E5: CDAE68  	        CALL    DEINT           ; Get integer -32768 to 3276
73E8: D5      	        PUSH    DE              ; Save memory address
73E9: CD6266  	        CALL    CHKSYN          ; Make sure ',' follows
73EC: 2C      	        .BYTE      ','
73ED: CDCA73  	        CALL    GETINT          ; Get integer 0-255
73F0: D1      	        POP     DE              ; Restore memory address
73F1: 12      	        LD      (DE),A          ; Load it into memory
73F2: C9      	        RET
              	
73F3: 21C978  	ROUND:  LD      HL,HALF         ; Add 0.5 to FPREG
73F6: CD9A76  	ADDPHL: CALL    LOADFP          ; Load FP at (HL) to BCDE
73F9: C30574  	        JP      FPADD           ; Add BCDE to FPREG
              	
73FC: CD9A76  	SUBPHL: CALL    LOADFP          ; FPREG = -FPREG + number at HL
73FF: 21      	        .BYTE      21H             ; Skip "POP BC" and "POP DE"
7400: C1      	PSUB:   POP     BC              ; Get FP number from stack
7401: D1      	        POP     DE
7402: CD7476  	SUBCDE: CALL    INVSGN          ; Negate FPREG
7405: 78      	FPADD:  LD      A,B             ; Get FP exponent
7406: B7      	        OR      A               ; Is number zero?
7407: C8      	        RET     Z               ; Yes - Nothing to add
7408: 3AE780  	        LD      A,(FPEXP)       ; Get FPREG exponent
740B: B7      	        OR      A               ; Is this number zero?
740C: CA8C76  	        JP      Z,FPBCDE        ; Yes - Move BCDE to FPREG
740F: 90      	        SUB     B               ; BCDE number larger?
7410: D21F74  	        JP      NC,NOSWAP       ; No - Don't swap them
7413: 2F      	        CPL                     ; Two's complement
7414: 3C      	        INC     A               ;  FP exponent
7415: EB      	        EX      DE,HL
7416: CD7C76  	        CALL    STAKFP          ; Put FPREG on stack
7419: EB      	        EX      DE,HL
741A: CD8C76  	        CALL    FPBCDE          ; Move BCDE to FPREG
741D: C1      	        POP     BC              ; Restore number from stack
741E: D1      	        POP     DE
741F: FE19    	NOSWAP: CP      24+1            ; Second number insignificant?
7421: D0      	        RET     NC              ; Yes - First number is result
7422: F5      	        PUSH    AF              ; Save number of bits to scale
7423: CDB176  	        CALL    SIGNS           ; Set MSBs & sign of result
7426: 67      	        LD      H,A             ; Save sign of result
7427: F1      	        POP     AF              ; Restore scaling factor
7428: CDCA74  	        CALL    SCALE           ; Scale BCDE to same exponent
742B: B4      	        OR      H               ; Result to be positive?
742C: 21E480  	        LD      HL,FPREG        ; Point to FPREG
742F: F24574  	        JP      P,MINCDE        ; No - Subtract FPREG from CDE
7432: CDAA74  	        CALL    PLUCDE          ; Add FPREG to CDE
7435: D28B74  	        JP      NC,RONDUP       ; No overflow - Round it up
7438: 23      	        INC     HL              ; Point to exponent
7439: 34      	        INC     (HL)            ; Increment it
743A: CAA363  	        JP      Z,OVERR         ; Number overflowed - Error
743D: 2E01    	        LD      L,1             ; 1 bit to shift right
743F: CDE074  	        CALL    SHRT1           ; Shift result right
7442: C38B74  	        JP      RONDUP          ; Round it up
              	
7445: AF      	MINCDE: XOR     A               ; Clear A and carry
7446: 90      	        SUB     B               ; Negate exponent
7447: 47      	        LD      B,A             ; Re-save exponent
7448: 7E      	        LD      A,(HL)          ; Get LSB of FPREG
7449: 9B      	        SBC     A, E            ; Subtract LSB of BCDE
744A: 5F      	        LD      E,A             ; Save LSB of BCDE
744B: 23      	        INC     HL
744C: 7E      	        LD      A,(HL)          ; Get NMSB of FPREG
744D: 9A      	        SBC     A,D             ; Subtract NMSB of BCDE
744E: 57      	        LD      D,A             ; Save NMSB of BCDE
744F: 23      	        INC     HL
7450: 7E      	        LD      A,(HL)          ; Get MSB of FPREG
7451: 99      	        SBC     A,C             ; Subtract MSB of BCDE
7452: 4F      	        LD      C,A             ; Save MSB of BCDE
7453: DCB674  	CONPOS: CALL    C,COMPL         ; Overflow - Make it positive
              	
7456: 68      	BNORM:  LD      L,B             ; L = Exponent
7457: 63      	        LD      H,E             ; H = LSB
7458: AF      	        XOR     A
7459: 47      	BNRMLP: LD      B,A             ; Save bit count
745A: 79      	        LD      A,C             ; Get MSB
745B: B7      	        OR      A               ; Is it zero?
745C: C27874  	        JP      NZ,PNORM        ; No - Do it bit at a time
745F: 4A      	        LD      C,D             ; MSB = NMSB
7460: 54      	        LD      D,H             ; NMSB= LSB
7461: 65      	        LD      H,L             ; LSB = VLSB
7462: 6F      	        LD      L,A             ; VLSB= 0
7463: 78      	        LD      A,B             ; Get exponent
7464: D608    	        SUB     8               ; Count 8 bits
7466: FEE0    	        CP      -24-8           ; Was number zero?
7468: C25974  	        JP      NZ,BNRMLP       ; No - Keep normalising
746B: AF      	RESZER: XOR     A               ; Result is zero
746C: 32E780  	SAVEXP: LD      (FPEXP),A       ; Save result as zero
746F: C9      	        RET
              	
7470: 05      	NORMAL: DEC     B               ; Count bits
7471: 29      	        ADD     HL,HL           ; Shift HL left
7472: 7A      	        LD      A,D             ; Get NMSB
7473: 17      	        RLA                     ; Shift left with last bit
7474: 57      	        LD      D,A             ; Save NMSB
7475: 79      	        LD      A,C             ; Get MSB
7476: 8F      	        ADC     A,A             ; Shift left with last bit
7477: 4F      	        LD      C,A             ; Save MSB
7478: F27074  	PNORM:  JP      P,NORMAL        ; Not done - Keep going
747B: 78      	        LD      A,B             ; Number of bits shifted
747C: 5C      	        LD      E,H             ; Save HL in EB
747D: 45      	        LD      B,L
747E: B7      	        OR      A               ; Any shifting done?
747F: CA8B74  	        JP      Z,RONDUP        ; No - Round it up
7482: 21E780  	        LD      HL,FPEXP        ; Point to exponent
7485: 86      	        ADD     A,(HL)          ; Add shifted bits
7486: 77      	        LD      (HL),A          ; Re-save exponent
7487: D26B74  	        JP      NC,RESZER       ; Underflow - Result is zero
748A: C8      	        RET     Z               ; Result is zero
748B: 78      	RONDUP: LD      A,B             ; Get VLSB of number
748C: 21E780  	RONDB:  LD      HL,FPEXP        ; Point to exponent
748F: B7      	        OR      A               ; Any rounding?
7490: FC9D74  	        CALL    M,FPROND        ; Yes - Round number up
7493: 46      	        LD      B,(HL)          ; B = Exponent
7494: 23      	        INC     HL
7495: 7E      	        LD      A,(HL)          ; Get sign of result
7496: E680    	        AND     10000000B       ; Only bit 7 needed
7498: A9      	        XOR     C               ; Set correct sign
7499: 4F      	        LD      C,A             ; Save correct sign in number
749A: C38C76  	        JP      FPBCDE          ; Move BCDE to FPREG
              	
749D: 1C      	FPROND: INC     E               ; Round LSB
749E: C0      	        RET     NZ              ; Return if ok
749F: 14      	        INC     D               ; Round NMSB
74A0: C0      	        RET     NZ              ; Return if ok
74A1: 0C      	        INC     C               ; Round MSB
74A2: C0      	        RET     NZ              ; Return if ok
74A3: 0E80    	        LD      C,80H           ; Set normal value
74A5: 34      	        INC     (HL)            ; Increment exponent
74A6: C0      	        RET     NZ              ; Return if ok
74A7: C3A363  	        JP      OVERR           ; Overflow error
              	
74AA: 7E      	PLUCDE: LD      A,(HL)          ; Get LSB of FPREG
74AB: 83      	        ADD     A,E             ; Add LSB of BCDE
74AC: 5F      	        LD      E,A             ; Save LSB of BCDE
74AD: 23      	        INC     HL
74AE: 7E      	        LD      A,(HL)          ; Get NMSB of FPREG
74AF: 8A      	        ADC     A,D             ; Add NMSB of BCDE
74B0: 57      	        LD      D,A             ; Save NMSB of BCDE
74B1: 23      	        INC     HL
74B2: 7E      	        LD      A,(HL)          ; Get MSB of FPREG
74B3: 89      	        ADC     A,C             ; Add MSB of BCDE
74B4: 4F      	        LD      C,A             ; Save MSB of BCDE
74B5: C9      	        RET
              	
74B6: 21E880  	COMPL:  LD      HL,SGNRES       ; Sign of result
74B9: 7E      	        LD      A,(HL)          ; Get sign of result
74BA: 2F      	        CPL                     ; Negate it
74BB: 77      	        LD      (HL),A          ; Put it back
74BC: AF      	        XOR     A
74BD: 6F      	        LD      L,A             ; Set L to zero
74BE: 90      	        SUB     B               ; Negate exponent,set carry
74BF: 47      	        LD      B,A             ; Re-save exponent
74C0: 7D      	        LD      A,L             ; Load zero
74C1: 9B      	        SBC     A,E             ; Negate LSB
74C2: 5F      	        LD      E,A             ; Re-save LSB
74C3: 7D      	        LD      A,L             ; Load zero
74C4: 9A      	        SBC     A,D             ; Negate NMSB
74C5: 57      	        LD      D,A             ; Re-save NMSB
74C6: 7D      	        LD      A,L             ; Load zero
74C7: 99      	        SBC     A,C             ; Negate MSB
74C8: 4F      	        LD      C,A             ; Re-save MSB
74C9: C9      	        RET
              	
74CA: 0600    	SCALE:  LD      B,0             ; Clear underflow
74CC: D608    	SCALLP: SUB     8               ; 8 bits (a whole byte)?
74CE: DAD974  	        JP      C,SHRITE        ; No - Shift right A bits
74D1: 43      	        LD      B,E             ; <- Shift
74D2: 5A      	        LD      E,D             ; <- right
74D3: 51      	        LD      D,C             ; <- eight
74D4: 0E00    	        LD      C,0             ; <- bits
74D6: C3CC74  	        JP      SCALLP          ; More bits to shift
              	
74D9: C609    	SHRITE: ADD     A,8+1           ; Adjust count
74DB: 6F      	        LD      L,A             ; Save bits to shift
74DC: AF      	SHRLP:  XOR     A               ; Flag for all done
74DD: 2D      	        DEC     L               ; All shifting done?
74DE: C8      	        RET     Z               ; Yes - Return
74DF: 79      	        LD      A,C             ; Get MSB
74E0: 1F      	SHRT1:  RRA                     ; Shift it right
74E1: 4F      	        LD      C,A             ; Re-save
74E2: 7A      	        LD      A,D             ; Get NMSB
74E3: 1F      	        RRA                     ; Shift right with last bit
74E4: 57      	        LD      D,A             ; Re-save it
74E5: 7B      	        LD      A,E             ; Get LSB
74E6: 1F      	        RRA                     ; Shift right with last bit
74E7: 5F      	        LD      E,A             ; Re-save it
74E8: 78      	        LD      A,B             ; Get underflow
74E9: 1F      	        RRA                     ; Shift right with last bit
74EA: 47      	        LD      B,A             ; Re-save underflow
74EB: C3DC74  	        JP      SHRLP           ; More bits to do
              	
74EE: 00000081	UNITY:  .BYTE       000H,000H,000H,081H    ; 1.00000
              	
74F2: 03      	LOGTAB: .BYTE      3                       ; Table used by LOG
74F3: AA561980	        .BYTE      0AAH,056H,019H,080H     ; 0.59898
74F7: F1227680	        .BYTE      0F1H,022H,076H,080H     ; 0.96147
74FB: 45AA3882	        .BYTE      045H,0AAH,038H,082H     ; 2.88539
              	
74FF: CD4B76  	LOG:    CALL    TSTSGN          ; Test sign of value
7502: B7      	        OR      A
7503: EAC368  	        JP      PE,FCERR        ; ?FC Error if <= zero
7506: 21E780  	        LD      HL,FPEXP        ; Point to exponent
7509: 7E      	        LD      A,(HL)          ; Get exponent
750A: 013580  	        LD      BC,8035H        ; BCDE = SQR(1/2)
750D: 11F304  	        LD      DE,04F3H
7510: 90      	        SUB     B               ; Scale value to be < 1
7511: F5      	        PUSH    AF              ; Save scale factor
7512: 70      	        LD      (HL),B          ; Save new exponent
7513: D5      	        PUSH    DE              ; Save SQR(1/2)
7514: C5      	        PUSH    BC
7515: CD0574  	        CALL    FPADD           ; Add SQR(1/2) to value
7518: C1      	        POP     BC              ; Restore SQR(1/2)
7519: D1      	        POP     DE
751A: 04      	        INC     B               ; Make it SQR(2)
751B: CDA175  	        CALL    DVBCDE          ; Divide by SQR(2)
751E: 21EE74  	        LD      HL,UNITY        ; Point to 1.
7521: CDFC73  	        CALL    SUBPHL          ; Subtract FPREG from 1
7524: 21F274  	        LD      HL,LOGTAB       ; Coefficient table
7527: CD9379  	        CALL    SUMSER          ; Evaluate sum of series
752A: 018080  	        LD      BC,8080H        ; BCDE = -0.5
752D: 110000  	        LD      DE,0000H
7530: CD0574  	        CALL    FPADD           ; Subtract 0.5 from FPREG
7533: F1      	        POP     AF              ; Restore scale factor
7534: CDC677  	        CALL    RSCALE          ; Re-scale number
7537: 013180  	MULLN2: LD      BC,8031H        ; BCDE = Ln(2)
753A: 111872  	        LD      DE,7218H
753D: 21      	        .BYTE      21H             ; Skip "POP BC" and "POP DE"
              	
753E: C1      	MULT:   POP     BC              ; Get number from stack
753F: D1      	        POP     DE
7540: CD4B76  	FPMULT: CALL    TSTSGN          ; Test sign of FPREG
7543: C8      	        RET     Z               ; Return zero if zero
7544: 2E00    	        LD      L,0             ; Flag add exponents
7546: CD0976  	        CALL    ADDEXP          ; Add exponents
7549: 79      	        LD      A,C             ; Get MSB of multiplier
754A: 32F680  	        LD      (MULVAL),A      ; Save MSB of multiplier
754D: EB      	        EX      DE,HL
754E: 22F780  	        LD      (MULVAL+1),HL   ; Save rest of multiplier
7551: 010000  	        LD      BC,0            ; Partial product (BCDE) = zero
7554: 50      	        LD      D,B
7555: 58      	        LD      E,B
7556: 215674  	        LD      HL,BNORM        ; Address of normalise
7559: E5      	        PUSH    HL              ; Save for return
755A: 216275  	        LD      HL,MULT8        ; Address of 8 bit multiply
755D: E5      	        PUSH    HL              ; Save for NMSB,MSB
755E: E5      	        PUSH    HL              ; 
755F: 21E480  	        LD      HL,FPREG        ; Point to number
7562: 7E      	MULT8:  LD      A,(HL)          ; Get LSB of number
7563: 23      	        INC     HL              ; Point to NMSB
7564: B7      	        OR      A               ; Test LSB
7565: CA8E75  	        JP      Z,BYTSFT        ; Zero - shift to next byte
7568: E5      	        PUSH    HL              ; Save address of number
7569: 2E08    	        LD      L,8             ; 8 bits to multiply by
756B: 1F      	MUL8LP: RRA                     ; Shift LSB right
756C: 67      	        LD      H,A             ; Save LSB
756D: 79      	        LD      A,C             ; Get MSB
756E: D27C75  	        JP      NC,NOMADD       ; Bit was zero - Don't add
7571: E5      	        PUSH    HL              ; Save LSB and count
7572: 2AF780  	        LD      HL,(MULVAL+1)   ; Get LSB and NMSB
7575: 19      	        ADD     HL,DE           ; Add NMSB and LSB
7576: EB      	        EX      DE,HL           ; Leave sum in DE
7577: E1      	        POP     HL              ; Restore MSB and count
7578: 3AF680  	        LD      A,(MULVAL)      ; Get MSB of multiplier
757B: 89      	        ADC     A,C             ; Add MSB
757C: 1F      	NOMADD: RRA                     ; Shift MSB right
757D: 4F      	        LD      C,A             ; Re-save MSB
757E: 7A      	        LD      A,D             ; Get NMSB
757F: 1F      	        RRA                     ; Shift NMSB right
7580: 57      	        LD      D,A             ; Re-save NMSB
7581: 7B      	        LD      A,E             ; Get LSB
7582: 1F      	        RRA                     ; Shift LSB right
7583: 5F      	        LD      E,A             ; Re-save LSB
7584: 78      	        LD      A,B             ; Get VLSB
7585: 1F      	        RRA                     ; Shift VLSB right
7586: 47      	        LD      B,A             ; Re-save VLSB
7587: 2D      	        DEC     L               ; Count bits multiplied
7588: 7C      	        LD      A,H             ; Get LSB of multiplier
7589: C26B75  	        JP      NZ,MUL8LP       ; More - Do it
758C: E1      	POPHRT: POP     HL              ; Restore address of number
758D: C9      	        RET
              	
758E: 43      	BYTSFT: LD      B,E             ; Shift partial product left
758F: 5A      	        LD      E,D
7590: 51      	        LD      D,C
7591: 4F      	        LD      C,A
7592: C9      	        RET
              	
7593: CD7C76  	DIV10:  CALL    STAKFP          ; Save FPREG on stack
7596: 012084  	        LD      BC,8420H        ; BCDE = 10.
7599: 110000  	        LD      DE,0000H
759C: CD8C76  	        CALL    FPBCDE          ; Move 10 to FPREG
              	
759F: C1      	DIV:    POP     BC              ; Get number from stack
75A0: D1      	        POP     DE
75A1: CD4B76  	DVBCDE: CALL    TSTSGN          ; Test sign of FPREG
75A4: CA9763  	        JP      Z,DZERR         ; Error if division by zero
75A7: 2EFF    	        LD      L,-1            ; Flag subtract exponents
75A9: CD0976  	        CALL    ADDEXP          ; Subtract exponents
75AC: 34      	        INC     (HL)            ; Add 2 to exponent to adjust
75AD: 34      	        INC     (HL)
75AE: 2B      	        DEC     HL              ; Point to MSB
75AF: 7E      	        LD      A,(HL)          ; Get MSB of dividend
75B0: 321280  	        LD      (DIV3),A        ; Save for subtraction
75B3: 2B      	        DEC     HL
75B4: 7E      	        LD      A,(HL)          ; Get NMSB of dividend
75B5: 320E80  	        LD      (DIV2),A        ; Save for subtraction
75B8: 2B      	        DEC     HL
75B9: 7E      	        LD      A,(HL)          ; Get MSB of dividend
75BA: 320A80  	        LD      (DIV1),A        ; Save for subtraction
75BD: 41      	        LD      B,C             ; Get MSB
75BE: EB      	        EX      DE,HL           ; NMSB,LSB to HL
75BF: AF      	        XOR     A
75C0: 4F      	        LD      C,A             ; Clear MSB of quotient
75C1: 57      	        LD      D,A             ; Clear NMSB of quotient
75C2: 5F      	        LD      E,A             ; Clear LSB of quotient
75C3: 321580  	        LD      (DIV4),A        ; Clear overflow count
75C6: E5      	DIVLP:  PUSH    HL              ; Save divisor
75C7: C5      	        PUSH    BC
75C8: 7D      	        LD      A,L             ; Get LSB of number
75C9: CD0980  	        CALL    DIVSUP          ; Subt' divisor from dividend
75CC: DE00    	        SBC     A,0             ; Count for overflows
75CE: 3F      	        CCF
75CF: D2D975  	        JP      NC,RESDIV       ; Restore divisor if borrow
75D2: 321580  	        LD      (DIV4),A        ; Re-save overflow count
75D5: F1      	        POP     AF              ; Scrap divisor
75D6: F1      	        POP     AF
75D7: 37      	        SCF                     ; Set carry to
75D8: D2      	        .BYTE      0D2H            ; Skip "POP BC" and "POP HL"
              	
75D9: C1      	RESDIV: POP     BC              ; Restore divisor
75DA: E1      	        POP     HL
75DB: 79      	        LD      A,C             ; Get MSB of quotient
75DC: 3C      	        INC     A
75DD: 3D      	        DEC     A
75DE: 1F      	        RRA                     ; Bit 0 to bit 7
75DF: FA8C74  	        JP      M,RONDB         ; Done - Normalise result
75E2: 17      	        RLA                     ; Restore carry
75E3: 7B      	        LD      A,E             ; Get LSB of quotient
75E4: 17      	        RLA                     ; Double it
75E5: 5F      	        LD      E,A             ; Put it back
75E6: 7A      	        LD      A,D             ; Get NMSB of quotient
75E7: 17      	        RLA                     ; Double it
75E8: 57      	        LD      D,A             ; Put it back
75E9: 79      	        LD      A,C             ; Get MSB of quotient
75EA: 17      	        RLA                     ; Double it
75EB: 4F      	        LD      C,A             ; Put it back
75EC: 29      	        ADD     HL,HL           ; Double NMSB,LSB of divisor
75ED: 78      	        LD      A,B             ; Get MSB of divisor
75EE: 17      	        RLA                     ; Double it
75EF: 47      	        LD      B,A             ; Put it back
75F0: 3A1580  	        LD      A,(DIV4)        ; Get VLSB of quotient
75F3: 17      	        RLA                     ; Double it
75F4: 321580  	        LD      (DIV4),A        ; Put it back
75F7: 79      	        LD      A,C             ; Get MSB of quotient
75F8: B2      	        OR      D               ; Merge NMSB
75F9: B3      	        OR      E               ; Merge LSB
75FA: C2C675  	        JP      NZ,DIVLP        ; Not done - Keep dividing
75FD: E5      	        PUSH    HL              ; Save divisor
75FE: 21E780  	        LD      HL,FPEXP        ; Point to exponent
7601: 35      	        DEC     (HL)            ; Divide by 2
7602: E1      	        POP     HL              ; Restore divisor
7603: C2C675  	        JP      NZ,DIVLP        ; Ok - Keep going
7606: C3A363  	        JP      OVERR           ; Overflow error
              	
7609: 78      	ADDEXP: LD      A,B             ; Get exponent of dividend
760A: B7      	        OR      A               ; Test it
760B: CA2D76  	        JP      Z,OVTST3        ; Zero - Result zero
760E: 7D      	        LD      A,L             ; Get add/subtract flag
760F: 21E780  	        LD      HL,FPEXP        ; Point to exponent
7612: AE      	        XOR     (HL)            ; Add or subtract it
7613: 80      	        ADD     A,B             ; Add the other exponent
7614: 47      	        LD      B,A             ; Save new exponent
7615: 1F      	        RRA                     ; Test exponent for overflow
7616: A8      	        XOR     B
7617: 78      	        LD      A,B             ; Get exponent
7618: F22C76  	        JP      P,OVTST2        ; Positive - Test for overflow
761B: C680    	        ADD     A,80H           ; Add excess 128
761D: 77      	        LD      (HL),A          ; Save new exponent
761E: CA8C75  	        JP      Z,POPHRT        ; Zero - Result zero
7621: CDB176  	        CALL    SIGNS           ; Set MSBs and sign of result
7624: 77      	        LD      (HL),A          ; Save new exponent
7625: 2B      	        DEC     HL              ; Point to MSB
7626: C9      	        RET
              	
7627: CD4B76  	OVTST1: CALL    TSTSGN          ; Test sign of FPREG
762A: 2F      	        CPL                     ; Invert sign
762B: E1      	        POP     HL              ; Clean up stack
762C: B7      	OVTST2: OR      A               ; Test if new exponent zero
762D: E1      	OVTST3: POP     HL              ; Clear off return address
762E: F26B74  	        JP      P,RESZER        ; Result zero
7631: C3A363  	        JP      OVERR           ; Overflow error
              	
7634: CD9776  	MLSP10: CALL    BCDEFP          ; Move FPREG to BCDE
7637: 78      	        LD      A,B             ; Get exponent
7638: B7      	        OR      A               ; Is it zero?
7639: C8      	        RET     Z               ; Yes - Result is zero
763A: C602    	        ADD     A,2             ; Multiply by 4
763C: DAA363  	        JP      C,OVERR         ; Overflow - ?OV Error
763F: 47      	        LD      B,A             ; Re-save exponent
7640: CD0574  	        CALL    FPADD           ; Add BCDE to FPREG (Times 5)
7643: 21E780  	        LD      HL,FPEXP        ; Point to exponent
7646: 34      	        INC     (HL)            ; Double number (Times 10)
7647: C0      	        RET     NZ              ; Ok - Return
7648: C3A363  	        JP      OVERR           ; Overflow error
              	
764B: 3AE780  	TSTSGN: LD      A,(FPEXP)       ; Get sign of FPREG
764E: B7      	        OR      A
764F: C8      	        RET     Z               ; RETurn if number is zero
7650: 3AE680  	        LD      A,(FPREG+2)     ; Get MSB of FPREG
7653: FE      	        .BYTE      0FEH            ; Test sign
7654: 2F      	RETREL: CPL                     ; Invert sign
7655: 17      	        RLA                     ; Sign bit to carry
7656: 9F      	FLGDIF: SBC     A,A             ; Carry to all bits of A
7657: C0      	        RET     NZ              ; Return -1 if negative
7658: 3C      	        INC     A               ; Bump to +1
7659: C9      	        RET                     ; Positive - Return +1
              	
765A: CD4B76  	SGN:    CALL    TSTSGN          ; Test sign of FPREG
765D: 0688    	FLGREL: LD      B,80H+8         ; 8 bit integer in exponent
765F: 110000  	        LD      DE,0            ; Zero NMSB and LSB
7662: 21E780  	RETINT: LD      HL,FPEXP        ; Point to exponent
7665: 4F      	        LD      C,A             ; CDE = MSB,NMSB and LSB
7666: 70      	        LD      (HL),B          ; Save exponent
7667: 0600    	        LD      B,0             ; CDE = integer to normalise
7669: 23      	        INC     HL              ; Point to sign of result
766A: 3680    	        LD      (HL),80H        ; Set sign of result
766C: 17      	        RLA                     ; Carry = sign of integer
766D: C35374  	        JP      CONPOS          ; Set sign of result
              	
7670: CD4B76  	ABS:    CALL    TSTSGN          ; Test sign of FPREG
7673: F0      	        RET     P               ; Return if positive
7674: 21E680  	INVSGN: LD      HL,FPREG+2      ; Point to MSB
7677: 7E      	        LD      A,(HL)          ; Get sign of mantissa
7678: EE80    	        XOR     80H             ; Invert sign of mantissa
767A: 77      	        LD      (HL),A          ; Re-save sign of mantissa
767B: C9      	        RET
              	
767C: EB      	STAKFP: EX      DE,HL           ; Save code string address
767D: 2AE480  	        LD      HL,(FPREG)      ; LSB,NLSB of FPREG
7680: E3      	        EX      (SP),HL         ; Stack them,get return
7681: E5      	        PUSH    HL              ; Re-save return
7682: 2AE680  	        LD      HL,(FPREG+2)    ; MSB and exponent of FPREG
7685: E3      	        EX      (SP),HL         ; Stack them,get return
7686: E5      	        PUSH    HL              ; Re-save return
7687: EB      	        EX      DE,HL           ; Restore code string address
7688: C9      	        RET
              	
7689: CD9A76  	PHLTFP: CALL    LOADFP          ; Number at HL to BCDE
768C: EB      	FPBCDE: EX      DE,HL           ; Save code string address
768D: 22E480  	        LD      (FPREG),HL      ; Save LSB,NLSB of number
7690: 60      	        LD      H,B             ; Exponent of number
7691: 69      	        LD      L,C             ; MSB of number
7692: 22E680  	        LD      (FPREG+2),HL    ; Save MSB and exponent
7695: EB      	        EX      DE,HL           ; Restore code string address
7696: C9      	        RET
              	
7697: 21E480  	BCDEFP: LD      HL,FPREG        ; Point to FPREG
769A: 5E      	LOADFP: LD      E,(HL)          ; Get LSB of number
769B: 23      	        INC     HL
769C: 56      	        LD      D,(HL)          ; Get NMSB of number
769D: 23      	        INC     HL
769E: 4E      	        LD      C,(HL)          ; Get MSB of number
769F: 23      	        INC     HL
76A0: 46      	        LD      B,(HL)          ; Get exponent of number
76A1: 23      	INCHL:  INC     HL              ; Used for conditional "INC HL"
76A2: C9      	        RET
              	
76A3: 11E480  	FPTHL:  LD      DE,FPREG        ; Point to FPREG
76A6: 0604    	DETHL4: LD      B,4             ; 4 bytes to move
76A8: 1A      	DETHLB: LD      A,(DE)          ; Get source
76A9: 77      	        LD      (HL),A          ; Save destination
76AA: 13      	        INC     DE              ; Next source
76AB: 23      	        INC     HL              ; Next destination
76AC: 05      	        DEC     B               ; Count bytes
76AD: C2A876  	        JP      NZ,DETHLB       ; Loop if more
76B0: C9      	        RET
              	
76B1: 21E680  	SIGNS:  LD      HL,FPREG+2      ; Point to MSB of FPREG
76B4: 7E      	        LD      A,(HL)          ; Get MSB
76B5: 07      	        RLCA                    ; Old sign to carry
76B6: 37      	        SCF                     ; Set MSBit
76B7: 1F      	        RRA                     ; Set MSBit of MSB
76B8: 77      	        LD      (HL),A          ; Save new MSB
76B9: 3F      	        CCF                     ; Complement sign
76BA: 1F      	        RRA                     ; Old sign to carry
76BB: 23      	        INC     HL
76BC: 23      	        INC     HL
76BD: 77      	        LD      (HL),A          ; Set sign of result
76BE: 79      	        LD      A,C             ; Get MSB
76BF: 07      	        RLCA                    ; Old sign to carry
76C0: 37      	        SCF                     ; Set MSBit
76C1: 1F      	        RRA                     ; Set MSBit of MSB
76C2: 4F      	        LD      C,A             ; Save MSB
76C3: 1F      	        RRA
76C4: AE      	        XOR     (HL)            ; New sign of result
76C5: C9      	        RET
              	
76C6: 78      	CMPNUM: LD      A,B             ; Get exponent of number
76C7: B7      	        OR      A
76C8: CA4B76  	        JP      Z,TSTSGN        ; Zero - Test sign of FPREG
76CB: 215476  	        LD      HL,RETREL       ; Return relation routine
76CE: E5      	        PUSH    HL              ; Save for return
76CF: CD4B76  	        CALL    TSTSGN          ; Test sign of FPREG
76D2: 79      	        LD      A,C             ; Get MSB of number
76D3: C8      	        RET     Z               ; FPREG zero - Number's MSB
76D4: 21E680  	        LD      HL,FPREG+2      ; MSB of FPREG
76D7: AE      	        XOR     (HL)            ; Combine signs
76D8: 79      	        LD      A,C             ; Get MSB of number
76D9: F8      	        RET     M               ; Exit if signs different
76DA: CDE076  	        CALL    CMPFP           ; Compare FP numbers
76DD: 1F      	        RRA                     ; Get carry to sign
76DE: A9      	        XOR     C               ; Combine with MSB of number
76DF: C9      	        RET
              	
76E0: 23      	CMPFP:  INC     HL              ; Point to exponent
76E1: 78      	        LD      A,B             ; Get exponent
76E2: BE      	        CP      (HL)            ; Compare exponents
76E3: C0      	        RET     NZ              ; Different
76E4: 2B      	        DEC     HL              ; Point to MBS
76E5: 79      	        LD      A,C             ; Get MSB
76E6: BE      	        CP      (HL)            ; Compare MSBs
76E7: C0      	        RET     NZ              ; Different
76E8: 2B      	        DEC     HL              ; Point to NMSB
76E9: 7A      	        LD      A,D             ; Get NMSB
76EA: BE      	        CP      (HL)            ; Compare NMSBs
76EB: C0      	        RET     NZ              ; Different
76EC: 2B      	        DEC     HL              ; Point to LSB
76ED: 7B      	        LD      A,E             ; Get LSB
76EE: 96      	        SUB     (HL)            ; Compare LSBs
76EF: C0      	        RET     NZ              ; Different
76F0: E1      	        POP     HL              ; Drop RETurn
76F1: E1      	        POP     HL              ; Drop another RETurn
76F2: C9      	        RET
              	
76F3: 47      	FPINT:  LD      B,A             ; <- Move
76F4: 4F      	        LD      C,A             ; <- exponent
76F5: 57      	        LD      D,A             ; <- to all
76F6: 5F      	        LD      E,A             ; <- bits
76F7: B7      	        OR      A               ; Test exponent
76F8: C8      	        RET     Z               ; Zero - Return zero
76F9: E5      	        PUSH    HL              ; Save pointer to number
76FA: CD9776  	        CALL    BCDEFP          ; Move FPREG to BCDE
76FD: CDB176  	        CALL    SIGNS           ; Set MSBs & sign of result
7700: AE      	        XOR     (HL)            ; Combine with sign of FPREG
7701: 67      	        LD      H,A             ; Save combined signs
7702: FC1777  	        CALL    M,DCBCDE        ; Negative - Decrement BCDE
7705: 3E98    	        LD      A,80H+24        ; 24 bits
7707: 90      	        SUB     B               ; Bits to shift
7708: CDCA74  	        CALL    SCALE           ; Shift BCDE
770B: 7C      	        LD      A,H             ; Get combined sign
770C: 17      	        RLA                     ; Sign to carry
770D: DC9D74  	        CALL    C,FPROND        ; Negative - Round number up
7710: 0600    	        LD      B,0             ; Zero exponent
7712: DCB674  	        CALL    C,COMPL         ; If negative make positive
7715: E1      	        POP     HL              ; Restore pointer to number
7716: C9      	        RET
              	
7717: 1B      	DCBCDE: DEC     DE              ; Decrement BCDE
7718: 7A      	        LD      A,D             ; Test LSBs
7719: A3      	        AND     E
771A: 3C      	        INC     A
771B: C0      	        RET     NZ              ; Exit if LSBs not FFFF
771C: 0B      	        DEC     BC              ; Decrement MSBs
771D: C9      	        RET
              	
771E: 21E780  	INT:    LD      HL,FPEXP        ; Point to exponent
7721: 7E      	        LD      A,(HL)          ; Get exponent
7722: FE98    	        CP      80H+24          ; Integer accuracy only?
7724: 3AE480  	        LD      A,(FPREG)       ; Get LSB
7727: D0      	        RET     NC              ; Yes - Already integer
7728: 7E      	        LD      A,(HL)          ; Get exponent
7729: CDF376  	        CALL    FPINT           ; F.P to integer
772C: 3698    	        LD      (HL),80H+24     ; Save 24 bit integer
772E: 7B      	        LD      A,E             ; Get LSB of number
772F: F5      	        PUSH    AF              ; Save LSB
7730: 79      	        LD      A,C             ; Get MSB of number
7731: 17      	        RLA                     ; Sign to carry
7732: CD5374  	        CALL    CONPOS          ; Set sign of result
7735: F1      	        POP     AF              ; Restore LSB of number
7736: C9      	        RET
              	
7737: 210000  	MLDEBC: LD      HL,0            ; Clear partial product
773A: 78      	        LD      A,B             ; Test multiplier
773B: B1      	        OR      C
773C: C8      	        RET     Z               ; Return zero if zero
773D: 3E10    	        LD      A,16            ; 16 bits
773F: 29      	MLDBLP: ADD     HL,HL           ; Shift P.P left
7740: DA776F  	        JP      C,BSERR         ; ?BS Error if overflow
7743: EB      	        EX      DE,HL
7744: 29      	        ADD     HL,HL           ; Shift multiplier left
7745: EB      	        EX      DE,HL
7746: D24D77  	        JP      NC,NOMLAD       ; Bit was zero - No add
7749: 09      	        ADD     HL,BC           ; Add multiplicand
774A: DA776F  	        JP      C,BSERR         ; ?BS Error if overflow
774D: 3D      	NOMLAD: DEC     A               ; Count bits
774E: C23F77  	        JP      NZ,MLDBLP       ; More
7751: C9      	        RET
              	
7752: FE2D    	ASCTFP: CP      '-'             ; Negative?
7754: F5      	        PUSH    AF              ; Save it and flags
7755: CA5E77  	        JP      Z,CNVNUM        ; Yes - Convert number
7758: FE2B    	        CP      '+'             ; Positive?
775A: CA5E77  	        JP      Z,CNVNUM        ; Yes - Convert number
775D: 2B      	        DEC     HL              ; DEC 'cos GETCHR INCs
775E: CD6B74  	CNVNUM: CALL    RESZER          ; Set result to zero
7761: 47      	        LD      B,A             ; Digits after point counter
7762: 57      	        LD      D,A             ; Sign of exponent
7763: 5F      	        LD      E,A             ; Exponent of ten
7764: 2F      	        CPL
7765: 4F      	        LD      C,A             ; Before or after point flag
7766: CDFC67  	MANLP:  CALL    GETCHR          ; Get next character
7769: DAAF77  	        JP      C,ADDIG         ; Digit - Add to number
776C: FE2E    	        CP      '.'
776E: CA8A77  	        JP      Z,DPOINT        ; '.' - Flag point
7771: FE45    	        CP      'E'
7773: C28E77  	        JP      NZ,CONEXP       ; Not 'E' - Scale number
7776: CDFC67  	        CALL    GETCHR          ; Get next character
7779: CDA26D  	        CALL    SGNEXP          ; Get sign of exponent
777C: CDFC67  	EXPLP:  CALL    GETCHR          ; Get next character
777F: DAD177  	        JP      C,EDIGIT        ; Digit - Add to exponent
7782: 14      	        INC     D               ; Is sign negative?
7783: C28E77  	        JP      NZ,CONEXP       ; No - Scale number
7786: AF      	        XOR     A
7787: 93      	        SUB     E               ; Negate exponent
7788: 5F      	        LD      E,A             ; And re-save it
7789: 0C      	        INC     C               ; Flag end of number
778A: 0C      	DPOINT: INC     C               ; Flag point passed
778B: CA6677  	        JP      Z,MANLP         ; Zero - Get another digit
778E: E5      	CONEXP: PUSH    HL              ; Save code string address
778F: 7B      	        LD      A,E             ; Get exponent
7790: 90      	        SUB     B               ; Subtract digits after point
7791: F4A777  	SCALMI: CALL    P,SCALPL        ; Positive - Multiply number
7794: F29D77  	        JP      P,ENDCON        ; Positive - All done
7797: F5      	        PUSH    AF              ; Save number of times to /10
7798: CD9375  	        CALL    DIV10           ; Divide by 10
779B: F1      	        POP     AF              ; Restore count
779C: 3C      	        INC     A               ; Count divides
              	
779D: C29177  	ENDCON: JP      NZ,SCALMI       ; More to do
77A0: D1      	        POP     DE              ; Restore code string address
77A1: F1      	        POP     AF              ; Restore sign of number
77A2: CC7476  	        CALL    Z,INVSGN        ; Negative - Negate number
77A5: EB      	        EX      DE,HL           ; Code string address to HL
77A6: C9      	        RET
              	
77A7: C8      	SCALPL: RET     Z               ; Exit if no scaling needed
77A8: F5      	MULTEN: PUSH    AF              ; Save count
77A9: CD3476  	        CALL    MLSP10          ; Multiply number by 10
77AC: F1      	        POP     AF              ; Restore count
77AD: 3D      	        DEC     A               ; Count multiplies
77AE: C9      	        RET
              	
77AF: D5      	ADDIG:  PUSH    DE              ; Save sign of exponent
77B0: 57      	        LD      D,A             ; Save digit
77B1: 78      	        LD      A,B             ; Get digits after point
77B2: 89      	        ADC     A,C             ; Add one if after point
77B3: 47      	        LD      B,A             ; Re-save counter
77B4: C5      	        PUSH    BC              ; Save point flags
77B5: E5      	        PUSH    HL              ; Save code string address
77B6: D5      	        PUSH    DE              ; Save digit
77B7: CD3476  	        CALL    MLSP10          ; Multiply number by 10
77BA: F1      	        POP     AF              ; Restore digit
77BB: D630    	        SUB     '0'             ; Make it absolute
77BD: CDC677  	        CALL    RSCALE          ; Re-scale number
77C0: E1      	        POP     HL              ; Restore code string address
77C1: C1      	        POP     BC              ; Restore point flags
77C2: D1      	        POP     DE              ; Restore sign of exponent
77C3: C36677  	        JP      MANLP           ; Get another digit
              	
77C6: CD7C76  	RSCALE: CALL    STAKFP          ; Put number on stack
77C9: CD5D76  	        CALL    FLGREL          ; Digit to add to FPREG
77CC: C1      	PADD:   POP     BC              ; Restore number
77CD: D1      	        POP     DE
77CE: C30574  	        JP      FPADD           ; Add BCDE to FPREG and return
              	
77D1: 7B      	EDIGIT: LD      A,E             ; Get digit
77D2: 07      	        RLCA                    ; Times 2
77D3: 07      	        RLCA                    ; Times 4
77D4: 83      	        ADD     A,E             ; Times 5
77D5: 07      	        RLCA                    ; Times 10
77D6: 86      	        ADD     A,(HL)          ; Add next digit
77D7: D630    	        SUB     '0'             ; Make it absolute
77D9: 5F      	        LD      E,A             ; Save new digit
77DA: C37C77  	        JP      EXPLP           ; Look for another digit
              	
77DD: E5      	LINEIN: PUSH    HL              ; Save code string address
77DE: 212C63  	        LD      HL,INMSG        ; Output " in "
77E1: CD4271  	        CALL    PRS             ; Output string at HL
77E4: E1      	        POP     HL              ; Restore code string address
77E5: EB      	PRNTHL: EX      DE,HL           ; Code string address to DE
77E6: AF      	        XOR     A
77E7: 0698    	        LD      B,80H+24        ; 24 bits
77E9: CD6276  	        CALL    RETINT          ; Return the integer
77EC: 214171  	        LD      HL,PRNUMS       ; Print number string
77EF: E5      	        PUSH    HL              ; Save for return
77F0: 21E980  	NUMASC: LD      HL,PBUFF        ; Convert number to ASCII
77F3: E5      	        PUSH    HL              ; Save for return
77F4: CD4B76  	        CALL    TSTSGN          ; Test sign of FPREG
77F7: 3620    	        LD      (HL),' '        ; Space at start
77F9: F2FE77  	        JP      P,SPCFST        ; Positive - Space to start
77FC: 362D    	        LD      (HL),'-'        ; '-' sign at start
77FE: 23      	SPCFST: INC     HL              ; First byte of number
77FF: 3630    	        LD      (HL),'0'        ; '0' if zero
7801: CAB478  	        JP      Z,JSTZER        ; Return '0' if zero
7804: E5      	        PUSH    HL              ; Save buffer address
7805: FC7476  	        CALL    M,INVSGN        ; Negate FPREG if negative
7808: AF      	        XOR     A               ; Zero A
7809: F5      	        PUSH    AF              ; Save it
780A: CDBA78  	        CALL    RNGTST          ; Test number is in range
780D: 014391  	SIXDIG: LD      BC,9143H        ; BCDE - 99999.9
7810: 11F84F  	        LD      DE,4FF8H
7813: CDC676  	        CALL    CMPNUM          ; Compare numbers
7816: B7      	        OR      A
7817: E22B78  	        JP      PO,INRNG        ; > 99999.9 - Sort it out
781A: F1      	        POP     AF              ; Restore count
781B: CDA877  	        CALL    MULTEN          ; Multiply by ten
781E: F5      	        PUSH    AF              ; Re-save count
781F: C30D78  	        JP      SIXDIG          ; Test it again
              	
7822: CD9375  	GTSIXD: CALL    DIV10           ; Divide by 10
7825: F1      	        POP     AF              ; Get count
7826: 3C      	        INC     A               ; Count divides
7827: F5      	        PUSH    AF              ; Re-save count
7828: CDBA78  	        CALL    RNGTST          ; Test number is in range
782B: CDF373  	INRNG:  CALL    ROUND           ; Add 0.5 to FPREG
782E: 3C      	        INC     A
782F: CDF376  	        CALL    FPINT           ; F.P to integer
7832: CD8C76  	        CALL    FPBCDE          ; Move BCDE to FPREG
7835: 010603  	        LD      BC,0306H        ; 1E+06 to 1E-03 range
7838: F1      	        POP     AF              ; Restore count
7839: 81      	        ADD     A,C             ; 6 digits before point
783A: 3C      	        INC     A               ; Add one
783B: FA4778  	        JP      M,MAKNUM        ; Do it in 'E' form if < 1E-02
783E: FE08    	        CP      6+1+1           ; More than 999999 ?
7840: D24778  	        JP      NC,MAKNUM       ; Yes - Do it in 'E' form
7843: 3C      	        INC     A               ; Adjust for exponent
7844: 47      	        LD      B,A             ; Exponent of number
7845: 3E02    	        LD      A,2             ; Make it zero after
              	
7847: 3D      	MAKNUM: DEC     A               ; Adjust for digits to do
7848: 3D      	        DEC     A
7849: E1      	        POP     HL              ; Restore buffer address
784A: F5      	        PUSH    AF              ; Save count
784B: 11CD78  	        LD      DE,POWERS       ; Powers of ten
784E: 05      	        DEC     B               ; Count digits before point
784F: C25878  	        JP      NZ,DIGTXT       ; Not zero - Do number
7852: 362E    	        LD      (HL),'.'        ; Save point
7854: 23      	        INC     HL              ; Move on
7855: 3630    	        LD      (HL),'0'        ; Save zero
7857: 23      	        INC     HL              ; Move on
7858: 05      	DIGTXT: DEC     B               ; Count digits before point
7859: 362E    	        LD      (HL),'.'        ; Save point in case
785B: CCA176  	        CALL    Z,INCHL         ; Last digit - move on
785E: C5      	        PUSH    BC              ; Save digits before point
785F: E5      	        PUSH    HL              ; Save buffer address
7860: D5      	        PUSH    DE              ; Save powers of ten
7861: CD9776  	        CALL    BCDEFP          ; Move FPREG to BCDE
7864: E1      	        POP     HL              ; Powers of ten table
7865: 062F    	        LD      B, '0'-1        ; ASCII '0' - 1
7867: 04      	TRYAGN: INC     B               ; Count subtractions
7868: 7B      	        LD      A,E             ; Get LSB
7869: 96      	        SUB     (HL)            ; Subtract LSB
786A: 5F      	        LD      E,A             ; Save LSB
786B: 23      	        INC     HL
786C: 7A      	        LD      A,D             ; Get NMSB
786D: 9E      	        SBC     A,(HL)          ; Subtract NMSB
786E: 57      	        LD      D,A             ; Save NMSB
786F: 23      	        INC     HL
7870: 79      	        LD      A,C             ; Get MSB
7871: 9E      	        SBC     A,(HL)          ; Subtract MSB
7872: 4F      	        LD      C,A             ; Save MSB
7873: 2B      	        DEC     HL              ; Point back to start
7874: 2B      	        DEC     HL
7875: D26778  	        JP      NC,TRYAGN       ; No overflow - Try again
7878: CDAA74  	        CALL    PLUCDE          ; Restore number
787B: 23      	        INC     HL              ; Start of next number
787C: CD8C76  	        CALL    FPBCDE          ; Move BCDE to FPREG
787F: EB      	        EX      DE,HL           ; Save point in table
7880: E1      	        POP     HL              ; Restore buffer address
7881: 70      	        LD      (HL),B          ; Save digit in buffer
7882: 23      	        INC     HL              ; And move on
7883: C1      	        POP     BC              ; Restore digit count
7884: 0D      	        DEC     C               ; Count digits
7885: C25878  	        JP      NZ,DIGTXT       ; More - Do them
7888: 05      	        DEC     B               ; Any decimal part?
7889: CA9878  	        JP      Z,DOEBIT        ; No - Do 'E' bit
788C: 2B      	SUPTLZ: DEC     HL              ; Move back through buffer
788D: 7E      	        LD      A,(HL)          ; Get character
788E: FE30    	        CP      '0'             ; '0' character?
7890: CA8C78  	        JP      Z,SUPTLZ        ; Yes - Look back for more
7893: FE2E    	        CP      '.'             ; A decimal point?
7895: C4A176  	        CALL    NZ,INCHL        ; Move back over digit
              	
7898: F1      	DOEBIT: POP     AF              ; Get 'E' flag
7899: CAB778  	        JP      Z,NOENED        ; No 'E' needed - End buffer
789C: 3645    	        LD      (HL),'E'        ; Put 'E' in buffer
789E: 23      	        INC     HL              ; And move on
789F: 362B    	        LD      (HL),'+'        ; Put '+' in buffer
78A1: F2A878  	        JP      P,OUTEXP        ; Positive - Output exponent
78A4: 362D    	        LD      (HL),'-'        ; Put '-' in buffer
78A6: 2F      	        CPL                     ; Negate exponent
78A7: 3C      	        INC     A
78A8: 062F    	OUTEXP: LD      B,'0'-1         ; ASCII '0' - 1
78AA: 04      	EXPTEN: INC     B               ; Count subtractions
78AB: D60A    	        SUB     10              ; Tens digit
78AD: D2AA78  	        JP      NC,EXPTEN       ; More to do
78B0: C63A    	        ADD     A,'0'+10        ; Restore and make ASCII
78B2: 23      	        INC     HL              ; Move on
78B3: 70      	        LD      (HL),B          ; Save MSB of exponent
78B4: 23      	JSTZER: INC     HL              ;
78B5: 77      	        LD      (HL),A          ; Save LSB of exponent
78B6: 23      	        INC     HL
78B7: 71      	NOENED: LD      (HL),C          ; Mark end of buffer
78B8: E1      	        POP     HL              ; Restore code string address
78B9: C9      	        RET
              	
78BA: 017494  	RNGTST: LD      BC,9474H        ; BCDE = 999999.
78BD: 11F723  	        LD      DE,23F7H
78C0: CDC676  	        CALL    CMPNUM          ; Compare numbers
78C3: B7      	        OR      A
78C4: E1      	        POP     HL              ; Return address to HL
78C5: E22278  	        JP      PO,GTSIXD       ; Too big - Divide by ten
78C8: E9      	        JP      (HL)            ; Otherwise return to caller
              	
78C9: 00000080	HALF:   .BYTE      00H,00H,00H,80H ; 0.5
              	
78CD: A08601  	POWERS: .BYTE      0A0H,086H,001H  ; 100000
78D0: 102700  	        .BYTE      010H,027H,000H  ;  10000
78D3: E80300  	        .BYTE      0E8H,003H,000H  ;   1000
78D6: 640000  	        .BYTE      064H,000H,000H  ;    100
78D9: 0A0000  	        .BYTE      00AH,000H,000H  ;     10
78DC: 010000  	        .BYTE      001H,000H,000H  ;      1
              	
78DF: 217476  	NEGAFT: LD  HL,INVSGN           ; Negate result
78E2: E3      	        EX      (SP),HL         ; To be done after caller
78E3: E9      	        JP      (HL)            ; Return to caller
              	
78E4: CD7C76  	SQR:    CALL    STAKFP          ; Put value on stack
78E7: 21C978  	        LD      HL,HALF         ; Set power to 1/2
78EA: CD8976  	        CALL    PHLTFP          ; Move 1/2 to FPREG
              	
78ED: C1      	POWER:  POP     BC              ; Get base
78EE: D1      	        POP     DE
78EF: CD4B76  	        CALL    TSTSGN          ; Test sign of power
78F2: 78      	        LD      A,B             ; Get exponent of base
78F3: CA3279  	        JP      Z,EXP           ; Make result 1 if zero
78F6: F2FD78  	        JP      P,POWER1        ; Positive base - Ok
78F9: B7      	        OR      A               ; Zero to negative power?
78FA: CA9763  	        JP      Z,DZERR         ; Yes - ?/0 Error
78FD: B7      	POWER1: OR      A               ; Base zero?
78FE: CA6C74  	        JP      Z,SAVEXP        ; Yes - Return zero
7901: D5      	        PUSH    DE              ; Save base
7902: C5      	        PUSH    BC
7903: 79      	        LD      A,C             ; Get MSB of base
7904: F67F    	        OR      01111111B       ; Get sign status
7906: CD9776  	        CALL    BCDEFP          ; Move power to BCDE
7909: F21A79  	        JP      P,POWER2        ; Positive base - Ok
790C: D5      	        PUSH    DE              ; Save power
790D: C5      	        PUSH    BC
790E: CD1E77  	        CALL    INT             ; Get integer of power
7911: C1      	        POP     BC              ; Restore power
7912: D1      	        POP     DE
7913: F5      	        PUSH    AF              ; MSB of base
7914: CDC676  	        CALL    CMPNUM          ; Power an integer?
7917: E1      	        POP     HL              ; Restore MSB of base
7918: 7C      	        LD      A,H             ; but don't affect flags
7919: 1F      	        RRA                     ; Exponent odd or even?
791A: E1      	POWER2: POP     HL              ; Restore MSB and exponent
791B: 22E680  	        LD      (FPREG+2),HL    ; Save base in FPREG
791E: E1      	        POP     HL              ; LSBs of base
791F: 22E480  	        LD      (FPREG),HL      ; Save in FPREG
7922: DCDF78  	        CALL    C,NEGAFT        ; Odd power - Negate result
7925: CC7476  	        CALL    Z,INVSGN        ; Negative base - Negate it
7928: D5      	        PUSH    DE              ; Save power
7929: C5      	        PUSH    BC
792A: CDFF74  	        CALL    LOG             ; Get LOG of base
792D: C1      	        POP     BC              ; Restore power
792E: D1      	        POP     DE
792F: CD4075  	        CALL    FPMULT          ; Multiply LOG by power
              	
7932: CD7C76  	EXP:    CALL    STAKFP          ; Put value on stack
7935: 013881  	        LD      BC,08138H       ; BCDE = 1/Ln(2)
7938: 113BAA  	        LD      DE,0AA3BH
793B: CD4075  	        CALL    FPMULT          ; Multiply value by 1/LN(2)
793E: 3AE780  	        LD      A,(FPEXP)       ; Get exponent
7941: FE88    	        CP      80H+8           ; Is it in range?
7943: D22776  	        JP      NC,OVTST1       ; No - Test for overflow
7946: CD1E77  	        CALL    INT             ; Get INT of FPREG
7949: C680    	        ADD     A,80H           ; For excess 128
794B: C602    	        ADD     A,2             ; Exponent > 126?
794D: DA2776  	        JP      C,OVTST1        ; Yes - Test for overflow
7950: F5      	        PUSH    AF              ; Save scaling factor
7951: 21EE74  	        LD      HL,UNITY        ; Point to 1.
7954: CDF673  	        CALL    ADDPHL          ; Add 1 to FPREG
7957: CD3775  	        CALL    MULLN2          ; Multiply by LN(2)
795A: F1      	        POP     AF              ; Restore scaling factor
795B: C1      	        POP     BC              ; Restore exponent
795C: D1      	        POP     DE
795D: F5      	        PUSH    AF              ; Save scaling factor
795E: CD0274  	        CALL    SUBCDE          ; Subtract exponent from FPREG
7961: CD7476  	        CALL    INVSGN          ; Negate result
7964: 217279  	        LD      HL,EXPTAB       ; Coefficient table
7967: CDA279  	        CALL    SMSER1          ; Sum the series
796A: 110000  	        LD      DE,0            ; Zero LSBs
796D: C1      	        POP     BC              ; Scaling factor
796E: 4A      	        LD      C,D             ; Zero MSB
796F: C34075  	        JP      FPMULT          ; Scale result to correct value
              	
7972: 08      	EXPTAB: .BYTE      8                       ; Table used by EXP
7973: 402E9474	        .BYTE      040H,02EH,094H,074H     ; -1/7! (-1/5040)
7977: 704F2E77	        .BYTE      070H,04FH,02EH,077H     ;  1/6! ( 1/720)
797B: 6E02887A	        .BYTE      06EH,002H,088H,07AH     ; -1/5! (-1/120)
797F: E6A02A7C	        .BYTE      0E6H,0A0H,02AH,07CH     ;  1/4! ( 1/24)
7983: 50AAAA7E	        .BYTE      050H,0AAH,0AAH,07EH     ; -1/3! (-1/6)
7987: FFFF7F7F	        .BYTE      0FFH,0FFH,07FH,07FH     ;  1/2! ( 1/2)
798B: 00008081	        .BYTE      000H,000H,080H,081H     ; -1/1! (-1/1)
798F: 00000081	        .BYTE      000H,000H,000H,081H     ;  1/0! ( 1/1)
              	
7993: CD7C76  	SUMSER: CALL    STAKFP          ; Put FPREG on stack
7996: 113E75  	        LD      DE,MULT         ; Multiply by "X"
7999: D5      	        PUSH    DE              ; To be done after
799A: E5      	        PUSH    HL              ; Save address of table
799B: CD9776  	        CALL    BCDEFP          ; Move FPREG to BCDE
799E: CD4075  	        CALL    FPMULT          ; Square the value
79A1: E1      	        POP     HL              ; Restore address of table
79A2: CD7C76  	SMSER1: CALL    STAKFP          ; Put value on stack
79A5: 7E      	        LD      A,(HL)          ; Get number of coefficients
79A6: 23      	        INC     HL              ; Point to start of table
79A7: CD8976  	        CALL    PHLTFP          ; Move coefficient to FPREG
79AA: 06      	        .BYTE      06H             ; Skip "POP AF"
79AB: F1      	SUMLP:  POP     AF              ; Restore count
79AC: C1      	        POP     BC              ; Restore number
79AD: D1      	        POP     DE
79AE: 3D      	        DEC     A               ; Cont coefficients
79AF: C8      	        RET     Z               ; All done
79B0: D5      	        PUSH    DE              ; Save number
79B1: C5      	        PUSH    BC
79B2: F5      	        PUSH    AF              ; Save count
79B3: E5      	        PUSH    HL              ; Save address in table
79B4: CD4075  	        CALL    FPMULT          ; Multiply FPREG by BCDE
79B7: E1      	        POP     HL              ; Restore address in table
79B8: CD9A76  	        CALL    LOADFP          ; Number at HL to BCDE
79BB: E5      	        PUSH    HL              ; Save address in table
79BC: CD0574  	        CALL    FPADD           ; Add coefficient to FPREG
79BF: E1      	        POP     HL              ; Restore address in table
79C0: C3AB79  	        JP      SUMLP           ; More coefficients
              	
79C3: CD4B76  	RND:    CALL    TSTSGN          ; Test sign of FPREG
79C6: 211980  	        LD      HL,SEED+2       ; Random number seed
79C9: FA247A  	        JP      M,RESEED        ; Negative - Re-seed
79CC: 213A80  	        LD      HL,LSTRND       ; Last random number
79CF: CD8976  	        CALL    PHLTFP          ; Move last RND to FPREG
79D2: 211980  	        LD      HL,SEED+2       ; Random number seed
79D5: C8      	        RET     Z               ; Return if RND(0)
79D6: 86      	        ADD     A,(HL)          ; Add (SEED)+2)
79D7: E607    	        AND     00000111B       ; 0 to 7
79D9: 0600    	        LD      B,0
79DB: 77      	        LD      (HL),A          ; Re-save seed
79DC: 23      	        INC     HL              ; Move to coefficient table
79DD: 87      	        ADD     A,A             ; 4 bytes
79DE: 87      	        ADD     A,A             ; per entry
79DF: 4F      	        LD      C,A             ; BC = Offset into table
79E0: 09      	        ADD     HL,BC           ; Point to coefficient
79E1: CD9A76  	        CALL    LOADFP          ; Coefficient to BCDE
79E4: CD4075  	        CALL    FPMULT  ;       ; Multiply FPREG by coefficient
79E7: 3A1880  	        LD      A,(SEED+1)      ; Get (SEED+1)
79EA: 3C      	        INC     A               ; Add 1
79EB: E603    	        AND     00000011B       ; 0 to 3
79ED: 0600    	        LD      B,0
79EF: FE01    	        CP      1               ; Is it zero?
79F1: 88      	        ADC     A,B             ; Yes - Make it 1
79F2: 321880  	        LD      (SEED+1),A      ; Re-save seed
79F5: 21287A  	        LD      HL,RNDTAB-4     ; Addition table
79F8: 87      	        ADD     A,A             ; 4 bytes
79F9: 87      	        ADD     A,A             ; per entry
79FA: 4F      	        LD      C,A             ; BC = Offset into table
79FB: 09      	        ADD     HL,BC           ; Point to value
79FC: CDF673  	        CALL    ADDPHL          ; Add value to FPREG
79FF: CD9776  	RND1:   CALL    BCDEFP          ; Move FPREG to BCDE
7A02: 7B      	        LD      A,E             ; Get LSB
7A03: 59      	        LD      E,C             ; LSB = MSB
7A04: EE4F    	        XOR     01001111B       ; Fiddle around
7A06: 4F      	        LD      C,A             ; New MSB
7A07: 3680    	        LD      (HL),80H        ; Set exponent
7A09: 2B      	        DEC     HL              ; Point to MSB
7A0A: 46      	        LD      B,(HL)          ; Get MSB
7A0B: 3680    	        LD      (HL),80H        ; Make value -0.5
7A0D: 211780  	        LD      HL,SEED         ; Random number seed
7A10: 34      	        INC     (HL)            ; Count seed
7A11: 7E      	        LD      A,(HL)          ; Get seed
7A12: D6AB    	        SUB     171             ; Do it modulo 171
7A14: C21B7A  	        JP      NZ,RND2         ; Non-zero - Ok
7A17: 77      	        LD      (HL),A          ; Zero seed
7A18: 0C      	        INC     C               ; Fillde about
7A19: 15      	        DEC     D               ; with the
7A1A: 1C      	        INC     E               ; number
7A1B: CD5674  	RND2:   CALL    BNORM           ; Normalise number
7A1E: 213A80  	        LD      HL,LSTRND       ; Save random number
7A21: C3A376  	        JP      FPTHL           ; Move FPREG to last and return
              	
7A24: 77      	RESEED: LD      (HL),A          ; Re-seed random numbers
7A25: 2B      	        DEC     HL
7A26: 77      	        LD      (HL),A
7A27: 2B      	        DEC     HL
7A28: 77      	        LD      (HL),A
7A29: C3FF79  	        JP      RND1            ; Return RND seed
              	
7A2C: 68B14668	RNDTAB: .BYTE   068H,0B1H,046H,068H     ; Table used by RND
7A30: 99E99269	        .BYTE   099H,0E9H,092H,069H
7A34: 10D17568	        .BYTE   010H,0D1H,075H,068H
              	
7A38: 21827A  	COS:    LD      HL,HALFPI       ; Point to PI/2
7A3B: CDF673  	        CALL    ADDPHL          ; Add it to PPREG
7A3E: CD7C76  	SIN:    CALL    STAKFP          ; Put angle on stack
7A41: 014983  	        LD      BC,8349H        ; BCDE = 2 PI
7A44: 11DB0F  	        LD      DE,0FDBH
7A47: CD8C76  	        CALL    FPBCDE          ; Move 2 PI to FPREG
7A4A: C1      	        POP     BC              ; Restore angle
7A4B: D1      	        POP     DE
7A4C: CDA175  	        CALL    DVBCDE          ; Divide angle by 2 PI
7A4F: CD7C76  	        CALL    STAKFP          ; Put it on stack
7A52: CD1E77  	        CALL    INT             ; Get INT of result
7A55: C1      	        POP     BC              ; Restore number
7A56: D1      	        POP     DE
7A57: CD0274  	        CALL    SUBCDE          ; Make it 0 <= value < 1
7A5A: 21867A  	        LD      HL,QUARTR       ; Point to 0.25
7A5D: CDFC73  	        CALL    SUBPHL          ; Subtract value from 0.25
7A60: CD4B76  	        CALL    TSTSGN          ; Test sign of value
7A63: 37      	        SCF                     ; Flag positive
7A64: F26E7A  	        JP      P,SIN1          ; Positive - Ok
7A67: CDF373  	        CALL    ROUND           ; Add 0.5 to value
7A6A: CD4B76  	        CALL    TSTSGN          ; Test sign of value
7A6D: B7      	        OR      A               ; Flag negative
7A6E: F5      	SIN1:   PUSH    AF              ; Save sign
7A6F: F47476  	        CALL    P,INVSGN        ; Negate value if positive
7A72: 21867A  	        LD      HL,QUARTR       ; Point to 0.25
7A75: CDF673  	        CALL    ADDPHL          ; Add 0.25 to value
7A78: F1      	        POP     AF              ; Restore sign
7A79: D47476  	        CALL    NC,INVSGN       ; Negative - Make positive
7A7C: 218A7A  	        LD      HL,SINTAB       ; Coefficient table
7A7F: C39379  	        JP      SUMSER          ; Evaluate sum of series
              	
7A82: DB0F4981	HALFPI: .BYTE   0DBH,00FH,049H,081H     ; 1.5708 (PI/2)
              	
7A86: 0000007F	QUARTR: .BYTE   000H,000H,000H,07FH     ; 0.25
              	
7A8A: 05      	SINTAB: .BYTE   5                       ; Table used by SIN
7A8B: BAD71E86	        .BYTE   0BAH,0D7H,01EH,086H     ; 39.711
7A8F: 64269987	        .BYTE   064H,026H,099H,087H     ;-76.575
7A93: 58342387	        .BYTE   058H,034H,023H,087H     ; 81.602
7A97: E05DA586	        .BYTE   0E0H,05DH,0A5H,086H     ;-41.342
7A9B: DA0F4983	        .BYTE   0DAH,00FH,049H,083H     ;  6.2832
              	
7A9F: CD7C76  	TAN:    CALL    STAKFP          ; Put angle on stack
7AA2: CD3E7A  	        CALL    SIN             ; Get SIN of angle
7AA5: C1      	        POP     BC              ; Restore angle
7AA6: E1      	        POP     HL
7AA7: CD7C76  	        CALL    STAKFP          ; Save SIN of angle
7AAA: EB      	        EX      DE,HL           ; BCDE = Angle
7AAB: CD8C76  	        CALL    FPBCDE          ; Angle to FPREG
7AAE: CD387A  	        CALL    COS             ; Get COS of angle
7AB1: C39F75  	        JP      DIV             ; TAN = SIN / COS
              	
7AB4: CD4B76  	ATN:    CALL    TSTSGN          ; Test sign of value
7AB7: FCDF78  	        CALL    M,NEGAFT        ; Negate result after if -ve
7ABA: FC7476  	        CALL    M,INVSGN        ; Negate value if -ve
7ABD: 3AE780  	        LD      A,(FPEXP)       ; Get exponent
7AC0: FE81    	        CP      81H             ; Number less than 1?
7AC2: DAD17A  	        JP      C,ATN1          ; Yes - Get arc tangnt
7AC5: 010081  	        LD      BC,8100H        ; BCDE = 1
7AC8: 51      	        LD      D,C
7AC9: 59      	        LD      E,C
7ACA: CDA175  	        CALL    DVBCDE          ; Get reciprocal of number
7ACD: 21FC73  	        LD      HL,SUBPHL       ; Sub angle from PI/2
7AD0: E5      	        PUSH    HL              ; Save for angle > 1
7AD1: 21DB7A  	ATN1:   LD      HL,ATNTAB       ; Coefficient table
7AD4: CD9379  	        CALL    SUMSER          ; Evaluate sum of series
7AD7: 21827A  	        LD      HL,HALFPI       ; PI/2 - angle in case > 1
7ADA: C9      	        RET                     ; Number > 1 - Sub from PI/2
              	
7ADB: 09      	ATNTAB: .BYTE   9                       ; Table used by ATN
7ADC: 4AD73B78	        .BYTE   04AH,0D7H,03BH,078H     ; 1/17
7AE0: 026E847B	        .BYTE   002H,06EH,084H,07BH     ;-1/15
7AE4: FEC12F7C	        .BYTE   0FEH,0C1H,02FH,07CH     ; 1/13
7AE8: 74319A7D	        .BYTE   074H,031H,09AH,07DH     ;-1/11
7AEC: 843D5A7D	        .BYTE   084H,03DH,05AH,07DH     ; 1/9
7AF0: C87F917E	        .BYTE   0C8H,07FH,091H,07EH     ;-1/7
7AF4: E4BB4C7E	        .BYTE   0E4H,0BBH,04CH,07EH     ; 1/5
7AF8: 6CAAAA7F	        .BYTE   06CH,0AAH,0AAH,07FH     ;-1/3
7AFC: 00000081	        .BYTE   000H,000H,000H,081H     ; 1/1
              	
              	
7B00: C9      	ARET:   RET                     ; A RETurn instruction
              	
7B01: D7      	GETINP: RST	    10H             ;input a character
7B02: C9      	        RET
              	
7B03:         	CLS: 
7B03: 3E0C    	        LD      A,CS            ; ASCII Clear screen
7B05: C33D7C  	        JP      MONOUT          ; Output character
              	
7B08: CDCA73  	WIDTH:  CALL    GETINT          ; Get integer 0-255
7B0B: 7B      	        LD      A,E             ; Width to A
7B0C: 324280  	        LD      (LWIDTH),A      ; Set width
7B0F: C9      	        RET
              	
7B10: CD696C  	LINES:  CALL    GETNUM          ; Get a number
7B13: CDAE68  	        CALL    DEINT           ; Get integer -32768 to 32767
7B16: ED534680	        LD      (LINESC),DE     ; Set lines counter
7B1A: ED534880	        LD      (LINESN),DE     ; Set lines number
7B1E: C9      	        RET
              	
7B1F: CDAE68  	DEEK:   CALL    DEINT           ; Get integer -32768 to 32767
7B22: D5      	        PUSH    DE              ; Save number
7B23: E1      	        POP     HL              ; Number to HL
7B24: 46      	        LD      B,(HL)          ; Get LSB of contents
7B25: 23      	        INC     HL
7B26: 7E      	        LD      A,(HL)          ; Get MSB of contents
7B27: C32470  	        JP      ABPASS          ; Return integer AB
              	
7B2A: CD696C  	DOKE:   CALL    GETNUM          ; Get a number
7B2D: CDAE68  	        CALL    DEINT           ; Get integer -32768 to 32767
7B30: D5      	        PUSH    DE              ; Save address
7B31: CD6266  	        CALL    CHKSYN          ; Make sure ',' follows
7B34: 2C      	        .BYTE      ','
7B35: CD696C  	        CALL    GETNUM          ; Get a number
7B38: CDAE68  	        CALL    DEINT           ; Get integer -32768 to 32767
7B3B: E3      	        EX      (SP),HL         ; Save value,get address
7B3C: 73      	        LD      (HL),E          ; Save LSB of value
7B3D: 23      	        INC     HL
7B3E: 72      	        LD      (HL),D          ; Save MSB of value
7B3F: E1      	        POP     HL              ; Restore code string address
7B40: C9      	        RET
              	
              	
              	; HEX$(nn) Convert 16 bit number to Hexadecimal string
              	
7B41: CD6C6C  	HEX: 	CALL	TSTNUM          ; Verify it's a number
7B44: CDAE68  	        CALL	DEINT           ; Get integer -32768 to 32767
7B47: C5      	        PUSH	BC              ; Save contents of BC
7B48: 21E980  	        LD	    HL,PBUFF
7B4B: 7A      	        LD	    A,D             ; Get high order into A
7B4C: FE00    	        CP      $0
7B4E: 280C    			JR      Z,HEX2          ; Skip output if both high digits are zero
7B50: CD797B  	        CALL    BYT2ASC         ; Convert D to ASCII
7B53: 78      			LD      A,B
7B54: FE30    			CP      '0'
7B56: 2802    			JR      Z,HEX1          ; Don't store high digit if zero
7B58: 70      	        LD	    (HL),B          ; Store it to PBUFF
7B59: 23      	        INC	    HL              ; Next location
7B5A: 71      	HEX1:   LD	    (HL),C          ; Store C to PBUFF+1
7B5B: 23      	        INC     HL              ; Next location
7B5C: 7B      	HEX2:   LD	    A,E             ; Get lower byte
7B5D: CD797B  	        CALL    BYT2ASC         ; Convert E to ASCII
7B60: 7A      			LD      A,D
7B61: FE00    	        CP      $0
7B63: 2005    			JR      NZ,HEX3         ; If upper byte was not zero then always print lower byte
7B65: 78      			LD      A,B
7B66: FE30    			CP      '0'             ; If high digit of lower byte is zero then don't print
7B68: 2802    			JR      Z,HEX4
7B6A: 70      	HEX3:   LD      (HL),B          ; to PBUFF+2
7B6B: 23      	        INC     HL              ; Next location
7B6C: 71      	HEX4:   LD      (HL),C          ; to PBUFF+3
7B6D: 23      	        INC     HL              ; PBUFF+4 to zero
7B6E: AF      	        XOR     A               ; Terminating character
7B6F: 77      	        LD      (HL),A          ; Store zero to terminate
7B70: 23      	        INC     HL              ; Make sure PBUFF is terminated
7B71: 77      	        LD      (HL),A          ; Store the double zero there
7B72: C1      	        POP     BC              ; Get BC back
7B73: 21E980  	        LD      HL,PBUFF        ; Reset to start of PBUFF
7B76: C3D270  	        JP      STR1            ; Convert the PBUFF to a string and return it
              	
7B79: 47      	BYT2ASC	LD      B,A             ; Save original value
7B7A: E60F    	        AND     $0F             ; Strip off upper nybble
7B7C: FE0A    	        CP      $0A             ; 0-9?
7B7E: 3802    	        JR      C,ADD30         ; If A-F, add 7 more
7B80: C607    	        ADD     A,$07           ; Bring value up to ASCII A-F
7B82: C630    	ADD30	ADD     A,$30           ; And make ASCII
7B84: 4F      	        LD      C,A             ; Save converted char to C
7B85: 78      	        LD      A,B             ; Retrieve original value
7B86: 0F      	        RRCA                    ; and Rotate it right
7B87: 0F      	        RRCA
7B88: 0F      	        RRCA
7B89: 0F      	        RRCA
7B8A: E60F    	        AND     $0F             ; Mask off upper nybble
7B8C: FE0A    	        CP      $0A             ; 0-9? < A hex?
7B8E: 3802    	        JR      C,ADD301        ; Skip Add 7
7B90: C607    	        ADD     A,$07           ; Bring it up to ASCII A-F
7B92: C630    	ADD301	ADD     A,$30           ; And make it full ASCII
7B94: 47      	        LD      B,A             ; Store high order byte
7B95: C9      	        RET	
              	
              	; Convert "&Hnnnn" to FPREG
              	; Gets a character from (HL) checks for Hexadecimal ASCII numbers "&Hnnnn"
              	; Char is in A, NC if char is ;<=>?@ A-z, CY is set if 0-9
7B96: EB      	HEXTFP  EX      DE,HL           ; Move code string pointer to DE
7B97: 210000  	        LD      HL,$0000        ; Zero out the value
7B9A: CDAF7B  	        CALL    GETHEX          ; Check the number for valid hex
7B9D: DACF7B  	        JP      C,HXERR         ; First value wasn't hex, HX error
7BA0: 1805    	        JR      HEXLP1          ; Convert first character
7BA2: CDAF7B  	HEXLP   CALL    GETHEX          ; Get second and addtional characters
7BA5: 381F    	        JR      C,HEXIT         ; Exit if not a hex character
7BA7: 29      	HEXLP1  ADD     HL,HL           ; Rotate 4 bits to the left
7BA8: 29      	        ADD     HL,HL
7BA9: 29      	        ADD     HL,HL
7BAA: 29      	        ADD     HL,HL
7BAB: B5      	        OR      L               ; Add in D0-D3 into L
7BAC: 6F      	        LD      L,A             ; Save new value
7BAD: 18F3    	        JR      HEXLP           ; And continue until all hex characters are in
              	
7BAF: 13      	GETHEX  INC     DE              ; Next location
7BB0: 1A      	        LD      A,(DE)          ; Load character at pointer
7BB1: FE20    	        CP      ' '
7BB3: CAAF7B  	        JP      Z,GETHEX        ; Skip spaces
7BB6: D630    	        SUB     $30             ; Get absolute value
7BB8: D8      	        RET     C               ; < "0", error
7BB9: FE0A    	        CP      $0A
7BBB: 3805    	        JR      C,NOSUB7        ; Is already in the range 0-9
7BBD: D607    	        SUB     $07             ; Reduce to A-F
7BBF: FE0A    	        CP      $0A             ; Value should be $0A-$0F at this point
7BC1: D8      	        RET     C               ; CY set if was :            ; < = > ? @
7BC2: FE10    	NOSUB7  CP      $10             ; > Greater than "F"?
7BC4: 3F      	        CCF
7BC5: C9      	        RET                     ; CY set if it wasn't valid hex
              	    
7BC6: EB      	HEXIT   EX      DE,HL           ; Value into DE, Code string into HL
7BC7: 7A      	        LD      A,D             ; Load DE into AC
7BC8: 4B      	        LD      C,E             ; For prep to 
7BC9: E5      	        PUSH    HL
7BCA: CD2370  	        CALL    ACPASS          ; ACPASS to set AC as integer into FPREG
7BCD: E1      	        POP     HL
7BCE: C9      	        RET
              	
7BCF: 1E26    	HXERR:  LD      E,HX            ; ?HEX Error
7BD1: C3A863  	        JP      ERROR
              	
              	; BIN$(NN) Convert integer to a 1-16 char binary string
7BD4: CD6C6C  	BIN:    CALL    TSTNUM          ; Verify it's a number
7BD7: CDAE68  	        CALL    DEINT           ; Get integer -32768 to 32767
7BDA: C5      	BIN2:   PUSH    BC              ; Save contents of BC
7BDB: 21E980  	        LD      HL,PBUFF
7BDE: 0611    	        LD      B,17            ; One higher than max char count
7BE0:         	ZEROSUP:                        ; Suppress leading zeros
7BE0: 05      	        DEC     B               ; Max 16 chars
7BE1: 78      	        LD      A,B
7BE2: FE01    	        CP      $01
7BE4: 2808    	        JR      Z,BITOUT        ; Always output at least one character
7BE6: CB13    	        RL      E
7BE8: CB12    	        RL      D
7BEA: 30F4    	        JR      NC,ZEROSUP
7BEC: 1804    	        JR      BITOUT2
7BEE:         	BITOUT:      
7BEE: CB13    	        RL      E
7BF0: CB12    	        RL      D               ; Top bit now in carry
7BF2:         	BITOUT2:
7BF2: 3E30    	        LD      A,'0'           ; Char for '0'
7BF4: CE00    	        ADC     A,0             ; If carry set then '0' --> '1'
7BF6: 77      	        LD      (HL),A
7BF7: 23      	        INC     HL
7BF8: 05      	        DEC     B
7BF9: 20F3    	        JR      NZ,BITOUT
7BFB: AF      	        XOR     A               ; Terminating character
7BFC: 77      	        LD      (HL),A          ; Store zero to terminate
7BFD: 23      	        INC     HL              ; Make sure PBUFF is terminated
7BFE: 77      	        LD      (HL),A          ; Store the double zero there
7BFF: C1      	        POP     BC
7C00: 21E980  	        LD      HL,PBUFF
7C03: C3D270  	        JP      STR1
              	
              	; Convert "&Bnnnn" to FPREG
              	; Gets a character from (HL) checks for Binary ASCII numbers "&Bnnnn"
7C06: EB      	BINTFP: EX      DE,HL           ; Move code string pointer to DE
7C07: 210000  	        LD      HL,$0000        ; Zero out the value
7C0A: CD237C  	        CALL    CHKBIN          ; Check the number for valid bin
7C0D: DA317C  	        JP      C,BINERR        ; First value wasn't bin, HX error
7C10: D630    	BINIT:  SUB     '0'
7C12: 29      	        ADD     HL,HL           ; Rotate HL left
7C13: B5      	        OR      L
7C14: 6F      	        LD      L,A
7C15: CD237C  	        CALL    CHKBIN          ; Get second and addtional characters
7C18: 30F6    	        JR      NC,BINIT        ; Process if a bin character
7C1A: EB      	        EX      DE,HL           ; Value into DE, Code string into HL
7C1B: 7A      	        LD      A,D             ; Load DE into AC
7C1C: 4B      	        LD      C,E             ; For prep to 
7C1D: E5      	        PUSH    HL
7C1E: CD2370  	        CALL    ACPASS          ; ACPASS to set AC as integer into FPREG
7C21: E1      	        POP     HL
7C22: C9      	        RET
              	
              	; Char is in A, NC if char is 0 or 1
7C23: 13      	CHKBIN: INC     DE
7C24: 1A      	        LD      A,(DE)
7C25: FE20    	        CP      ' '
7C27: CA237C  	        JP      Z,CHKBIN        ; Skip spaces
7C2A: FE30    	        CP      '0'             ; Set C if < '0'
7C2C: D8      	        RET     C
7C2D: FE32    	        CP      '2'
7C2F: 3F      	        CCF                     ; Set C if > '1'
7C30: C9      	        RET
              	
7C31: 1E28    	BINERR: LD      E,BN            ; ?BIN Error
7C33: C3A863  	        JP      ERROR
              	
              	
7C36:         	JJUMP1: 
7C36: DD21FFFF	        LD      IX,-1           ; Flag cold start
7C3A: C31160  	        JP      CSTART          ; Go and initialise
              	
7C3D:         	MONOUT: 
7C3D: C30800  	        JP      $0008           ; output a char
              	
              	
7C40:         	MONITR: 
7C40: C30000  	        JP      $0000           ; Restart (Normally Monitor Start)
              	
              	
7C43: 3E00    	INITST: LD      A,0             ; Clear break flag
7C45: 324D80  	        LD      (BRKFLG),A
7C48: C31860  	        JP      INIT
              	
7C4B: ED45    	ARETN:  RETN                    ; Return from NMI
              	
              	
7C4D: F5      	TSTBIT: PUSH    AF              ; Save bit mask
7C4E: A0      	        AND     B               ; Get common bits
7C4F: C1      	        POP     BC              ; Restore bit mask
7C50: B8      	        CP      B               ; Same bit set?
7C51: 3E00    	        LD      A,0             ; Return 0 in A
7C53: C9      	        RET
              	
7C54: CD6D66  	OUTNCR: CALL    OUTC            ; Output character in A
7C57: C3A46A  	        JP      PRNTCRLF        ; Output CRLF
              	
7C5A:         	EELOAD:
7C5A: F5      	        PUSH AF
7C5B: E5      	        PUSH HL
7C5C: D5      	        PUSH DE
7C5D: C5      	        PUSH BC
              	
7C5E: 110000  	        LD DE, $0000
7C61: 210080  	        LD HL, $8000 ; BASIC
7C64: 010020  	        LD BC, $2000 ; copy 8kb from EEPROM I2C
              	        ;CALL I2CMEMTOCPU_BASIC
              	
7C67: 3E0D    	        LD A, CR ; new line
7C69: CD3D7C  	        CALL MONOUT
              	
7C6C: C1      	        POP BC
7C6D: D1      	        POP DE
7C6E: E1      	        POP HL
7C6F: F1      	        POP AF 
7C70: C9      	        RET
              	
              	
7C71:         	EESAVE:
7C71: F5      	        PUSH AF
7C72: E5      	        PUSH HL
7C73: D5      	        PUSH DE
7C74: C5      	        PUSH BC
              	
7C75: 210080  	        LD HL, $8000
7C78: 110000  	        LD DE, $0000
7C7B: 010020  	        LD BC, $2000 ; save 8kb to EEPROM I2C
              	        ;CALL I2CCPUTOMEM_BASIC
              	
7C7E: 3E0D    	        LD A, CR ; new line
7C80: CD3D7C  	        CALL MONOUT
              	
7C83: C1      	        POP BC
7C84: D1      	        POP DE
7C85: E1      	        POP HL
7C86: F1      	        POP AF
7C87: C9      	        RET
              	
              	
7C88:         	diego:
7C88: 3E01    	        LD a, 1
7C8A: D310    	        OUT($10),A
7C8C: C3DF63  	        JP PRNTOK
              	
7C8F:         	cruz:
7C8F: CDCA73  	        CALL GETINT
7C92: 7B      	        LD A, E
7C93: D310    	        OUT($10), A 
7C95: C9      	        RET
7C96: C3DF63  	        JP PRNTOK
              	
              	;.end
              	
              	
              	
              	; RAM AREA
              	.ORG $F000              ;Start location
              	
              	; DISPLAY GRAFICO
0780:         	SBUF:   EQU 16 * $78     ;Scroll Buffer size  16 * 60 = 960 byte (10 lines), change to 20 lines (16 * 120($78))
F000: FFFFFFFF	        DS SBUF         ;Scroll Buffer space abover GBUF 
F004: FF...   	
F780: FFFFFFFF	GBUF:   DS 0400H        ;Graphics Buffer 16 * 64 = 1024 byte
F784: FF...   	
F780:         	TGBUF:  EQU GBUF        ;Terminal GBUF
FB80: 80F7    	VPORT:  DW GBUF         ;View port start address
FB82: 80F7    	TBUF:   DW GBUF         ;Top of Buffer pointer
FB84: 0000    	ENDPT:  DW 0000H        ;End Point for Line
FB86: 00      	SX:     DB 00H          ;Sign of X
FB87: 00      	SY:     DB 00H          ;Sign of Y
FB88: 0000    	DX:     DW 0000H        ;Change of X
FB8A: 0000    	DY:     DW 0000H        ;Change of Y
FB8C: 0000    	ERR:    DW 0000H        ;Error Rate
FB8E: 0000    	RAD:    DW 0000H        ;Radius
FB90: 00      	CLRBUF: DB 00H          ;Clear Buffer Flag on LCD Displaying
FB91: 0000    	CURSOR_XY: DW 0000H     ;Cursor Address X,Y
FB91:         	CURSOR_Y: EQU CURSOR_XY   ;Cursor Y
FB92:         	CURSOR_X: EQU CURSOR_XY+1 ;Cursor X
FB93: 00      	CURSOR_YS: DB 00H       ;Start Y row for new line
FB94: 00      	CURSOR_ON: DB 00H       ;Cursor on/off flag
FB95: 00      	INVERSE: DB 00H         ;Inverse Flag
FB96: 00      	PIXEL_X: DB 00H         ;Pixel X length
FB97: 00      	ULINE: DB 00H   ;Underline flag
FB98: 00      	AUTO_LF: DB 00H   ;Auto line feed flag
FB99: 00      	PLOT_ALWAYS: DB 00H   ;Plot always flag
              	
              	; PORTA SERIAL
FB9A: 0000    	PUTCH:  DW  0000H       ; Serial
FB9C: 0000    	GETCH:  DW  0000H       ; Serial
              	
              	; TECLADO
FB9E: 00      	MEN_SHIFT: DB 00H
FB9F: 00      	KEY_PRESS: DB 00H
              	
              	; COMANDOS
FBA0: FFFFFFFF	LINEBUF:    DS 80          ; Buffer de linha de comando
FBA4: FF...   	
FBF0: FFFFFFFF	HEXBUF:     DS 6           ; Buffer temporário hex
FBF4: FFFF    	
FBF6: 0000    	ADDR_TMP:   DW $0000       ; Endereço temporário de trabalho
              	
              	; IHEX
FBF8: FF      	LOAD_FIRST_FLAG:    .DB    $FF   ; FF=virgem  01=primeira linha  00=demais
FBF9: 0000    	LOAD_START_ADDR:    .DW    $0000 ; Endereco inicial do carregamento
FBFB: 0000    	LOAD_END_ADDR:      .DW    $0000 ; Endereco final do carregamento
              	
              	; I2C
FBFD: 00      	I2CA_BLOCK:         .DB    $00   ; I2C device addess: 24LC256 (Copy from/to Mem) dir, del, save, load
FBFE: 00      	I2C_RAMCPY:         .DB    $00   ; 1 byte - RAM copy of output port
FBFF: 00      	I2C_ADDR            .DB    $00   ; 1 byte - device address
FC00: 00      	I2C_RR              .DB    $00   ; 1 byte - register
FC01: 00      	I2C_DD              .DB    $00   ; 1 byte - data
              	
              	; FS
FC02: 00      	FS_CUR:     .DB $00         ; 1b: entrada corrente do dir
FC03: FFFFFFFF	FS_WRKBUF:  .DS $20         ; 32b: buffer entrada dir
FC07: FF...   	
FC23: FFFFFFFF	FS_NAMBUF:  .DS $0A         ; 9b: nome digitado
FC27: FF...   	
FC2D: 00      	FS_TMP1:    .DB $00         ; 1b: uso geral
FC2E: 0000    	FS_TMPSZ:   .DW $0000       ; 2b: tamanho restante
FC30: 0000    	FS_TMPRAM:  .DW $0000       ; 2b: ponteiro RAM atual
FC32: 00      	FS_CURPG:   .DB $00         ; 1b: pagina corrente
FC33: 00      	FS_SLOTBK:  .DB $00         ; 1b: backup slot dir
FC34: 00      	FS_BMPADDR: .DB $00         ; 1b: endereco EEPROM do byte do bitmap
FC35: 00      	FS_INFOTMP: .DB $00         ; 1b: temp para FS_INFO (paginas livres)
              	; Buffer de pagina em RAM (256 bytes) - longe do codigo
FC36: FFFFFFFF	PG_BUF:     .DS $FF
FC3A: FF...   	


; +++ segments +++

#CODE          = $0000 =     0,  size = $FD35 = 64821

; +++ global symbols +++

ABPASS        = $7024 = 28708          MSBASIC.asm:2451
ABS           = $7670 = 30320          MSBASIC.asm:3474
ABSHL         = $04F8 =  1272          GLCD.asm:384
ACCSUM        = $688D = 26765          MSBASIC.asm:1353 (unused)
ACPASS        = $7023 = 28707          MSBASIC.asm:2450
ADD30         = $7B82 = 31618          MSBASIC.asm:4222
ADD301        = $7B92 = 31634          MSBASIC.asm:4233
ADDEXP        = $7609 = 30217          MSBASIC.asm:3409
ADDIG         = $77AF = 30639          MSBASIC.asm:3697
ADDPHL        = $73F6 = 29686          MSBASIC.asm:3056
ADDR_TMP      = $FBF6 = 64502          Main.asm:462
ALLFOL        = $72F2 = 29426          MSBASIC.asm:2898
ANTVLU        = $6B8D = 27533          MSBASIC.asm:1760
ARET          = $7B00 = 31488          MSBASIC.asm:4137 (unused)
ARETN         = $7C4B = 31819          MSBASIC.asm:4365 (unused)
ARLDSV        = $6F44 = 28484          MSBASIC.asm:2306
ARREND        = $80DA = 32986          MSBASIC.asm:88
ARRLP         = $71BD = 29117          MSBASIC.asm:2689
ASC           = $72C3 = 29379          MSBASIC.asm:2868
ASCTFP        = $7752 = 30546          MSBASIC.asm:3643
ASPCS         = $6AEF = 27375          MSBASIC.asm:1683
ATN           = $7AB4 = 31412          MSBASIC.asm:4108
ATN1          = $7AD1 = 31441          MSBASIC.asm:4120
ATNTAB        = $7ADB = 31451          MSBASIC.asm:4125
ATOH          = $68C8 = 26824          MSBASIC.asm:1386
AUTO_LF       = $FB98 = 64408          Main.asm:448
BADINP        = $6B14 = 27412          MSBASIC.asm:1695
BAKSTK        = $633D = 25405          MSBASIC.asm:534
BAKTMP        = $72A3 = 29347          MSBASIC.asm:2846
BASE_COL      = $061B =  1563          GLCD.asm:634
BASTXT        = $805E = 32862          MSBASIC.asm:64
BCDEFP        = $7697 = 30359          MSBASIC.asm:3501
BCTOA         = $1675 =  5749          IHEX.asm:204
BCTOA1        = $167E =  5758          IHEX.asm:209
BCTOA2        = $168C =  5772          IHEX.asm:219
BFREE         = $60AD = 24749          MSBASIC.asm:217
BIN           = $7BD4 = 31700          MSBASIC.asm:4282
BIN2          = $7BDA = 31706          MSBASIC.asm:4284 (unused)
BINERR        = $7C31 = 31793          MSBASIC.asm:4345
BINIT         = $7C10 = 31760          MSBASIC.asm:4320
BINTFP        = $7C06 = 31750          MSBASIC.asm:4316
BITOUT        = $7BEE = 31726          MSBASIC.asm:4296
BITOUT2       = $7BF2 = 31730          MSBASIC.asm:4299
BKSP          = $0008 =     8          Main.asm:145
BN            = $0028 =    40          MSBASIC.asm:122
BNORM         = $7456 = 29782          MSBASIC.asm:3115
BNRMLP        = $7459 = 29785          MSBASIC.asm:3118
BOTTOM        = $0428 =  1064          GLCD.asm:200
BRK           = $683F = 26687          MSBASIC.asm:1308
BRKFLG        = $804D = 32845          MSBASIC.asm:57
BRKLIN        = $80CE = 32974          MSBASIC.asm:82
BRKMSG        = $6337 = 25399          MSBASIC.asm:532
BRKRET        = $60A7 = 24743          MSBASIC.asm:214
BS            = $0010 =    16          MSBASIC.asm:110
BSERR         = $6F77 = 28535          MSBASIC.asm:2337
BUFFER        = $8061 = 32865          MSBASIC.asm:65
BYT2ASC       = $7B79 = 31609          MSBASIC.asm:4217
BYTSFT        = $758E = 30094          MSBASIC.asm:3326
B_LEFT        = $0432 =  1074          GLCD.asm:209
B_RIGHT       = $043D =  1085          GLCD.asm:219
BkS           = $0008 =     8          COMANDOS.asm:5
CALL_8000     = $10B5 =  4277          COMANDOS.asm:152
CALL_BAD      = $11F8 =  4600          COMANDOS.asm:398
CALL_CMD      = $11EE =  4590          COMANDOS.asm:391
CALL_IHEX     = $157E =  5502          IHEX.asm:32
CFEVAL        = $6EDA = 28378          MSBASIC.asm:2237
CHANGE_DRIVE_A = $10A5 =  4261          COMANDOS.asm:129
CHANGE_DRIVE_B = $10AB =  4267          COMANDOS.asm:137
CHARTY        = $6E88 = 28296          MSBASIC.asm:2193
CHECK_FF      = $0767 =  1895          GLCD.asm:886
CHEKFN        = $70BB = 28859          MSBASIC.asm:2542
CHKBIN        = $7C23 = 31779          MSBASIC.asm:4335
CHKKEY        = $0290 =   656          TECLADO.asm:10
CHKLTR        = $689A = 26778          MSBASIC.asm:1362
CHKSTK        = $6371 = 25457          MSBASIC.asm:571
CHKSUM        = $804A = 32842          MSBASIC.asm:55
CHKSYN        = $6662 = 26210          MSBASIC.asm:1007
CHKTYP        = $6C6E = 27758          MSBASIC.asm:1875
CHR           = $72D4 = 29396          MSBASIC.asm:2880
CIRCLE_LOOP   = $051E =  1310          GLCD.asm:434
CKSIOA        = $0F94 =  3988          SERIAL.asm:107
CKSIOB        = $0FB3 =  4019          SERIAL.asm:162
CKSUMERR      = $16CA =  5834          IHEX.asm:280
CLEAR         = $68ED = 26861          MSBASIC.asm:1410
CLOTST        = $6697 = 26263          MSBASIC.asm:1039
CLRBUF        = $FB90 = 64400          Main.asm:439
CLREG         = $64C6 = 25798          MSBASIC.asm:779
CLRPTR        = $64A1 = 25761          MSBASIC.asm:759
CLR_ROWS      = $03FD =  1021          GLCD.asm:162
CLR_X         = $03CC =   972          GLCD.asm:133
CLR_Y         = $03DE =   990          GLCD.asm:143
CLS           = $7B03 = 31491          MSBASIC.asm:4142
CLS_CMD       = $10BC =  4284          COMANDOS.asm:161
CMD_DISPATCH  = $0FF6 =  4086          COMANDOS.asm:52
CMD_SCAN      = $0FDB =  4059          COMANDOS.asm:31
CMD_TABLE     = $1011 =  4113          COMANDOS.asm:77
CMD_UNKNOWN   = $100A =  4106          COMANDOS.asm:71
CMPFP         = $76E0 = 30432          MSBASIC.asm:3559
CMPLG1        = $6DEE = 28142          MSBASIC.asm:2099
CMPLOG        = $6DEC = 28140          MSBASIC.asm:2098
CMPNUM        = $76C6 = 30406          MSBASIC.asm:3542
CMPRES        = $6E30 = 28208          MSBASIC.asm:2147
CMPSTR        = $6E18 = 28184          MSBASIC.asm:2127
CN            = $0020 =    32          MSBASIC.asm:118
CNVNUM        = $775E = 30558          MSBASIC.asm:3649
COLD          = $6000 = 24576          MSBASIC.asm:126
COMMAN        = $8043 = 32835          MSBASIC.asm:50
COMPL         = $74B6 = 29878          MSBASIC.asm:3189
CONCAT        = $7238 = 29240          MSBASIC.asm:2779
CONEXP        = $778E = 30606          MSBASIC.asm:3673
CONIN         = $02AA =   682          TECLADO.asm:34
CONIN_NOT_LOOP = $02B4 =   692          TECLADO.asm:50
CONOUT        = $0378 =   888          GLCD.asm:64
CONPOS        = $7453 = 29779          MSBASIC.asm:3113
CONT          = $6872 = 26738          MSBASIC.asm:1336
CONTAD        = $80D4 = 32980          MSBASIC.asm:85
CONVAR        = $6D59 = 27993          MSBASIC.asm:1999
COPY          = $6020 = 24608          MSBASIC.asm:143
COS           = $7A38 = 31288          MSBASIC.asm:4056
COUNT         = $6707 = 26375          MSBASIC.asm:1105
CPDEHL        = $665C = 26204          MSBASIC.asm:1000
CPYLIT        = $6598 = 26008          MSBASIC.asm:897
CR            = $000D =    13          Main.asm:149
CRARLP        = $6F97 = 28567          MSBASIC.asm:2357
CREARY        = $6F7C = 28540          MSBASIC.asm:2340
CRESTR        = $69EC = 27116          MSBASIC.asm:1549
CRLF          = $0394 =   916          GLCD.asm:93
CRNCLP        = $64F9 = 25849          MSBASIC.asm:805
CRTMST        = $70F4 = 28916          MSBASIC.asm:2575
CRTST         = $7100 = 28928          MSBASIC.asm:2586
CRTSTE        = $7116 = 28950          MSBASIC.asm:2600
CRUNCH        = $64F0 = 25840          MSBASIC.asm:801
CS            = $000C =    12          Main.asm:148
CSTART        = $6011 = 24593          MSBASIC.asm:136
CTLOFG        = $8045 = 32837          MSBASIC.asm:52
CTRLC         = $0003 =     3          MSBASIC.asm:18
CTRLG         = $0007 =     7          MSBASIC.asm:19
CTRLO         = $000F =    15          MSBASIC.asm:24
CTRLQ         = $0011 =    17          MSBASIC.asm:25
CTRLR         = $0012 =    18          MSBASIC.asm:26
CTRLS         = $0013 =    19          MSBASIC.asm:27
CTRLU         = $0015 =    21          MSBASIC.asm:28
CUROPR        = $80C5 = 32965          MSBASIC.asm:76
CURPOS        = $80AB = 32939          MSBASIC.asm:67
CURSOR        = $008F =   143          Main.asm:151 (unused)
CURSOR_ON     = $FB94 = 64404          Main.asm:444
CURSOR_X      = $FB92 = 64402          Main.asm:442
CURSOR_XY     = $FB91 = 64401          Main.asm:440
CURSOR_Y      = $FB91 = 64401          Main.asm:441
CURSOR_YS     = $FB93 = 64403          Main.asm:443
DATA          = $6993 = 27027          MSBASIC.asm:1501
DATFLG        = $80AE = 32942          MSBASIC.asm:70
DATLIN        = $80C9 = 32969          MSBASIC.asm:78
DATSNR        = $638E = 25486          MSBASIC.asm:591
DB_INNER      = $00F0 =   240          TECLADO.asm:2
DB_INNER_LOOP = $031F =   799          TECLADO.asm:149
DB_OUTER      = $0016 =    22          TECLADO.asm:1
DB_OUTER_LOOP = $031D =   797          TECLADO.asm:147
DCBCDE        = $7717 = 30487          MSBASIC.asm:3602
DD            = $0012 =    18          MSBASIC.asm:111
DDERR         = $639D = 25501          MSBASIC.asm:599
DEBOUNCE      = $031A =   794          TECLADO.asm:144
DEC_CURSOR    = $0830 =  2096          GLCD.asm:1040
DEEK          = $7B1F = 31519          MSBASIC.asm:4157
DEF           = $7038 = 28728          MSBASIC.asm:2463
DEFSIZ        = $6F9F = 28575          MSBASIC.asm:2361
DEINT         = $68AE = 26798          MSBASIC.asm:1373
DEL           = $007F =   127          COMANDOS.asm:6
DELAY_500MS   = $1F7C =  8060          API.asm:3
DELCHR        = $65C8 = 26056          MSBASIC.asm:927
DEPINT        = $68A8 = 26792          MSBASIC.asm:1371
DETHL4        = $76A6 = 30374          MSBASIC.asm:3513
DETHLB        = $76A8 = 30376          MSBASIC.asm:3514
DIGTXT        = $7858 = 30808          MSBASIC.asm:3795
DIM           = $6E5A = 28250          MSBASIC.asm:2173
DIMRET        = $6E51 = 28241          MSBASIC.asm:2168
DINPOS        = $6691 = 26257          MSBASIC.asm:1034
DIV           = $759F = 30111          MSBASIC.asm:3337
DIV1          = $800A = 32778          MSBASIC.asm:40
DIV10         = $7593 = 30099          MSBASIC.asm:3332
DIV2          = $800E = 32782          MSBASIC.asm:41
DIV3          = $8012 = 32786          MSBASIC.asm:42
DIV4          = $8015 = 32789          MSBASIC.asm:43
DIVLP         = $75C6 = 30150          MSBASIC.asm:3361
DIVSUP        = $8009 = 32777          MSBASIC.asm:39
DN            = $00F7 =   247          GLCD.asm:54
DOAGN         = $64DF = 25823          MSBASIC.asm:792
DOCOM         = $6AC0 = 27328          MSBASIC.asm:1659
DODEL         = $65A8 = 26024          MSBASIC.asm:911
DOEBIT        = $7898 = 30872          MSBASIC.asm:3838
DOFN          = $7065 = 28773          MSBASIC.asm:2491
DOKE          = $7B2A = 31530          MSBASIC.asm:4165
DONULL        = $6AAE = 27310          MSBASIC.asm:1648
DOSPC         = $6AEA = 27370          MSBASIC.asm:1680
DOTAB         = $6AD7 = 27351          MSBASIC.asm:1670
DO_BS         = $071A =  1818          GLCD.asm:835 (unused)
DO_CHAR       = $073E =  1854          GLCD.asm:851
DO_CR         = $06F5 =  1781          GLCD.asm:815
DO_FF         = $0716 =  1814          GLCD.asm:832
DO_LOOKUP     = $0326 =   806          TECLADO.asm:158
DO_SCRL_DN    = $06ED =  1773          GLCD.asm:810
DO_SCRL_UP    = $06E2 =  1762          GLCD.asm:804 (unused)
DO_TAB        = $0729 =  1833          GLCD.asm:842
DPOINT        = $778A = 30602          MSBASIC.asm:3671
DRAW_A        = $077B =  1915          GLCD.asm:901
DRAW_CURSOR   = $0744 =  1860          GLCD.asm:854
DS1           = $058A =  1418          GLCD.asm:502
DS2           = $05AE =  1454          GLCD.asm:521
DS3           = $05C1 =  1473          GLCD.asm:533
DS_EXIT       = $067D =  1661          GLCD.asm:710
DS_LOOP       = $0671 =  1649          GLCD.asm:702
DTSTR         = $7104 = 28932          MSBASIC.asm:2589
DUMP_BAD_ADDR = $10FD =  4349          COMANDOS.asm:210
DUMP_CMD      = $10C2 =  4290          COMANDOS.asm:170
DUMP_HEX      = $10E2 =  4322          COMANDOS.asm:191
DUMP_LINE     = $10CC =  4300          COMANDOS.asm:178
DVBCDE        = $75A1 = 30113          MSBASIC.asm:3339
DX            = $FB88 = 64392          Main.asm:435
DY            = $FB8A = 64394          Main.asm:436
DZ            = $0014 =    20          MSBASIC.asm:112
DZERR         = $6397 = 25495          MSBASIC.asm:595
ECHDEL        = $65BC = 26044          MSBASIC.asm:920
EDIGIT        = $77D1 = 30673          MSBASIC.asm:3720
EDIT_BAD      = $11A6 =  4518          COMANDOS.asm:324
EDIT_CMD      = $1158 =  4440          COMANDOS.asm:278
EDIT_KEEP     = $119D =  4509          COMANDOS.asm:318
EDIT_LOOP     = $1160 =  4448          COMANDOS.asm:283
EEDRIVE_A     = $00A0 =   160          Main.asm:131
EEDRIVE_B     = $00AE =   174          Main.asm:132
EELOAD        = $7C5A = 31834          MSBASIC.asm:4378
EESAVE        = $7C71 = 31857          MSBASIC.asm:4399
ENDBUF        = $659F = 26015          MSBASIC.asm:903
ENDCON        = $779D = 30621          MSBASIC.asm:3683
ENDDIM        = $6FFE = 28670          MSBASIC.asm:2430
ENDINP        = $6A9F = 27295          MSBASIC.asm:1642
ENDNAM        = $6E7C = 28284          MSBASIC.asm:2189
ENDPRG        = $684E = 26702          MSBASIC.asm:1319
ENDPT         = $FB84 = 64388          Main.asm:432
ENFMEM        = $637A = 25466          MSBASIC.asm:577
ERR           = $FB8C = 64396          Main.asm:437
ERRIN         = $63C8 = 25544          MSBASIC.asm:621
ERRLIN        = $80D2 = 32978          MSBASIC.asm:84
ERRMSG        = $6325 = 25381          MSBASIC.asm:528
ERROR         = $63A8 = 25512          MSBASIC.asm:607
ERRORS        = $629B = 25243          MSBASIC.asm:457
ERR_JAM       = $0001 =     1          I2C.asm:98 (unused)
ERR_NOACK     = $0002 =     2          I2C.asm:99
ERR_NONE      = $0000 =     0          I2C.asm:97 (unused)
ERR_TOUT      = $0003 =     3          I2C.asm:100
ESC           = $001B =    27          COMANDOS.asm:7
EVAL          = $6C7B = 27771          MSBASIC.asm:1883
EVAL1         = $6C7E = 27774          MSBASIC.asm:1885
EVAL2         = $6C87 = 27783          MSBASIC.asm:1889
EVAL3         = $6C8A = 27786          MSBASIC.asm:1890
EVLPAR        = $6D40 = 27968          MSBASIC.asm:1985
EVNOT         = $6E3A = 28218          MSBASIC.asm:2155
EXCUTE        = $67CC = 26572          MSBASIC.asm:1216
EXP           = $7932 = 31026          MSBASIC.asm:3925
EXPLP         = $777C = 30588          MSBASIC.asm:3663
EXPTAB        = $7972 = 31090          MSBASIC.asm:3953
EXPTEN        = $78AA = 30890          MSBASIC.asm:3848
EXTIG         = $6BE9 = 27625          MSBASIC.asm:1808
FANDT         = $6C13 = 27667          MSBASIC.asm:1826
FC            = $0008 =     8          MSBASIC.asm:106
FCERR         = $68C3 = 26819          MSBASIC.asm:1383
FDTLP         = $6BFA = 27642          MSBASIC.asm:1810
FF            = $000C =    12          GLCD.asm:55
FIM           = $0350 =   848          TECLADO.asm:198
FINDEL        = $6FDA = 28634          MSBASIC.asm:2402
FIND_ROW      = $0357 =   855          TECLADO.asm:206
FLGDIF        = $7656 = 30294          MSBASIC.asm:3457
FLGREL        = $765D = 30301          MSBASIC.asm:3463
FLIP_BIT      = $08F6 =  2294          GLCD.asm:1208
FLIP_BIT1     = $0913 =  2323          GLCD.asm:1227
FNARG         = $80E0 = 32992          MSBASIC.asm:91
FNCTAB        = $60DA = 24794          MSBASIC.asm:228
FNDARY        = $6F4A = 28490          MSBASIC.asm:2310
FNDELP        = $6FDF = 28639          MSBASIC.asm:2407
FNDEND        = $6474 = 25716          MSBASIC.asm:722
FNDNUM        = $73C7 = 29639          MSBASIC.asm:3030
FNDTOK        = $66E6 = 26342          MSBASIC.asm:1085
FNDVAR        = $6EC1 = 28353          MSBASIC.asm:2221
FNDWRD        = $6523 = 25891          MSBASIC.asm:825
FNOFST        = $6D6A = 28010          MSBASIC.asm:2009
FNRGNM        = $80DE = 32990          MSBASIC.asm:90
FNTHR         = $6ECF = 28367          MSBASIC.asm:2229
FNVAL         = $6D91 = 28049          MSBASIC.asm:2031
FONT_DATA     = $092D =  2349          GLCD.asm:1253
FOPRND        = $6CB3 = 27827          MSBASIC.asm:1911
FOR           = $6733 = 26419          MSBASIC.asm:1127
FORFLG        = $80CB = 32971          MSBASIC.asm:79
FORFND        = $6763 = 26467          MSBASIC.asm:1155
FORSLP        = $6747 = 26439          MSBASIC.asm:1136
FPADD         = $7405 = 29701          MSBASIC.asm:3064
FPBCDE        = $768C = 30348          MSBASIC.asm:3493
FPEXP         = $80E7 = 32999          MSBASIC.asm:93
FPINT         = $76F3 = 30451          MSBASIC.asm:3579
FPMULT        = $7540 = 30016          MSBASIC.asm:3275
FPREG         = $80E4 = 32996          MSBASIC.asm:92
FPROND        = $749D = 29853          MSBASIC.asm:3165
FPSINT        = $68A2 = 26786          MSBASIC.asm:1369
FPTHL         = $76A3 = 30371          MSBASIC.asm:3512
FRE           = $7002 = 28674          MSBASIC.asm:2433
FRENUM        = $701E = 28702          MSBASIC.asm:2445
FRMEVL        = $6D5C = 27996          MSBASIC.asm:2000
FS_ABORT      = $1E4F =  7759          FS.asm:1043
FS_ALLOC_PG   = $1C4B =  7243          FS.asm:604
FS_AP_FOUND   = $1C81 =  7297          FS.asm:647
FS_AP_LOOP    = $1C5A =  7258          FS.asm:614
FS_AP_MKINV   = $1CA2 =  7330          FS.asm:673
FS_AP_MKSHL   = $1C9B =  7323          FS.asm:668
FS_AP_TBIT    = $1C6F =  7279          FS.asm:631
FS_AP_TBIT_DONE = $1C76 =  7286          FS.asm:636
FS_BMPADDR    = $FC34 = 64564          Main.asm:485
FS_CHK_SIG    = $1BB5 =  7093          FS.asm:453 (unused)
FS_CLEAR_NUL  = $1BD4 =  7124          FS.asm:502
FS_COPY_NAME_FROM_BUFFER = $1BCE =  7118          FS.asm:498
FS_COPY_NAME_FROM_BUFFER_LOOP = $1BDD =  7133          FS.asm:509
FS_CUR        = $FC02 = 64514          Main.asm:477
FS_CURPG      = $FC32 = 64562          Main.asm:483
FS_DATAPG     = $00FF =   255          FS.asm:10
FS_DIR        = $18E3 =  6371          FS.asm:29
FS_DIR_AFT    = $1917 =  6423          FS.asm:59
FS_DIR_CNT    = $1958 =  6488          FS.asm:92
FS_DIR_INC    = $1944 =  6468          FS.asm:81
FS_DIR_LOOP   = $18F4 =  6388          FS.asm:37
FS_DIR_NM     = $1907 =  6407          FS.asm:46
FS_DIR_PAD    = $1911 =  6417          FS.asm:54
FS_DIR_SKIP   = $1943 =  6467          FS.asm:79
FS_DL_255     = $19D2 =  6610          FS.asm:162
FS_DL_DONE    = $1A01 =  6657          FS.asm:194
FS_DL_LT      = $19D7 =  6615          FS.asm:165
FS_DL_PG      = $19B3 =  6579          FS.asm:141
FS_DL_RD      = $19DA =  6618          FS.asm:169
FS_DO_LOAD    = $1997 =  6551          FS.asm:127
FS_ENTRY_SZ   = $0020 =    32          FS.asm:8
FS_ERASE      = $1AFA =  6906          FS.asm:342
FS_ERR_FULL   = $1E41 =  7745          FS.asm:1035
FS_ERR_I2C    = $1E32 =  7730          FS.asm:1026
FS_ERR_I2C_POP = $1E39 =  7737          FS.asm:1030
FS_ERR_NOSPACE = $1E48 =  7752          FS.asm:1039
FS_ER_CFM     = $1B1E =  6942          FS.asm:361
FS_ER_CLR     = $1B43 =  6979          FS.asm:379
FS_ER_DIR     = $1B3D =  6973          FS.asm:375
FS_ER_FOUND   = $1B10 =  6928          FS.asm:351
FS_ER_NM      = $1B15 =  6933          FS.asm:354
FS_EXEC       = $1AC9 =  6857          FS.asm:312
FS_EX_DO      = $1ADF =  6879          FS.asm:321
FS_EX_ERR     = $1AF6 =  6902          FS.asm:333
FS_FC_ERR     = $1D43 =  7491          FS.asm:813
FS_FC_ERR2    = $1D4D =  7501          FS.asm:819
FS_FC_LP      = $1D16 =  7446          FS.asm:778
FS_FC_WAIT    = $1D2B =  7467          FS.asm:795
FS_FF_ERR     = $1C46 =  7238          FS.asm:593
FS_FF_FOUND   = $1C43 =  7235          FS.asm:589
FS_FF_LP      = $1C26 =  7206          FS.asm:574
FS_FIND_FREE  = $1C20 =  7200          FS.asm:570
FS_FIND_NAME  = $1DF4 =  7668          FS.asm:980
FS_FLAG_FREE  = $00FF =   255          FS.asm:12
FS_FLAG_USED  = $0001 =     1          FS.asm:13
FS_FMT_1      = $1B7A =  7034          FS.asm:416
FS_FMT_2      = $1B81 =  7041          FS.asm:421
FS_FMT_3      = $1B9A =  7066          FS.asm:435
FS_FN_CMP     = $1E10 =  7696          FS.asm:994
FS_FN_ERR     = $1E2D =  7725          FS.asm:1016
FS_FN_LP      = $1DFA =  7674          FS.asm:984
FS_FN_NXT     = $1E1F =  7711          FS.asm:1007
FS_FORMAT     = $1B59 =  7001          FS.asm:396
FS_FP_DONE    = $1D0F =  7439          FS.asm:765
FS_FP_ERR     = $1D07 =  7431          FS.asm:756
FS_FP_OR      = $1CEE =  7406          FS.asm:741
FS_FP_SHL     = $1CE7 =  7399          FS.asm:735
FS_FREE_CHAIN = $1D14 =  7444          FS.asm:774
FS_FREE_PG    = $1CB8 =  7352          FS.asm:696
FS_INFOTMP    = $FC35 = 64565          Main.asm:486 (unused)
FS_LOAD_CMD   = $1962 =  6498          FS.asm:101
FS_LOAD_DO    = $1978 =  6520          FS.asm:111
FS_MAXFILES   = $0008 =     8          FS.asm:7
FS_NAMBUF     = $FC23 = 64547          Main.asm:479
FS_NAME_SZ    = $0008 =     8          FS.asm:9
FS_O_FLAGS    = $000D =    13          FS.asm:22
FS_O_FSTPG    = $0008 =     8          FS.asm:17
FS_O_NAME     = $0000 =     0          FS.asm:16
FS_O_RADRH    = $000B =    11          FS.asm:20
FS_O_RADRL    = $000C =    12          FS.asm:21
FS_O_SIZEH    = $0009 =     9          FS.asm:18
FS_O_SIZEL    = $000A =    10          FS.asm:19
FS_PG_BMP     = $0000 =     0          FS.asm:4 (unused)
FS_PG_DATA    = $0002 =     2          FS.asm:6 (unused)
FS_PG_DIR     = $0001 =     1          FS.asm:5 (unused)
FS_RD_ENTRY   = $1BEA =  7146          FS.asm:524
FS_SAVE       = $1A03 =  6659          FS.asm:205
FS_SET_NEXT   = $1DDD =  7645          FS.asm:959
FS_SIG        = $00A5 =   165          FS.asm:3
FS_SLOTBK     = $FC33 = 64563          Main.asm:484
FS_SV_CLR     = $1A51 =  6737          FS.asm:246
FS_SV_DO      = $1A45 =  6725          FS.asm:238
FS_SV_DONE    = $1AB6 =  6838          FS.asm:299
FS_SV_LOOP    = $1A8E =  6798          FS.asm:280
FS_SV_NM      = $1A5E =  6750          FS.asm:254
FS_SV_OVERW   = $1A38 =  6712          FS.asm:231
FS_TMP1       = $FC2D = 64557          Main.asm:480
FS_TMPRAM     = $FC30 = 64560          Main.asm:482
FS_TMPSZ      = $FC2E = 64558          Main.asm:481
FS_WP_COPY    = $1D78 =  7544          FS.asm:857
FS_WP_CPLOOP  = $1D84 =  7556          FS.asm:873
FS_WP_ERR     = $1DD5 =  7637          FS.asm:948
FS_WP_NOPAD   = $1D9A =  7578          FS.asm:892
FS_WP_PADLOOP = $1D94 =  7572          FS.asm:887
FS_WP_UPD255  = $1DBB =  7611          FS.asm:928
FS_WP_UPDATE  = $1DC3 =  7619          FS.asm:935
FS_WP_UPDLT   = $1DC0 =  7616          FS.asm:931
FS_WP_USE255  = $1D73 =  7539          FS.asm:851
FS_WP_USELT   = $1D77 =  7543          FS.asm:854
FS_WRITE_PG   = $1D63 =  7523          FS.asm:837
FS_WRKBUF     = $FC03 = 64515          Main.asm:478
FS_WR_ENTRY   = $1C05 =  7173          FS.asm:547
GARBGE        = $7185 = 29061          MSBASIC.asm:2662
GARBLP        = $7188 = 29064          MSBASIC.asm:2663
GBUF          = $F780 = 63360          Main.asm:428
GET2          = $1664 =  5732          IHEX.asm:189
GETCH         = $FB9C = 64412          Main.asm:453
GETCHR        = $67FC = 26620          MSBASIC.asm:1261
GETCHR_S      = $1659 =  5721          IHEX.asm:177
GETCMD        = $63EC = 25580          MSBASIC.asm:639
GETHEX        = $7BAF = 31663          MSBASIC.asm:4255
GETINP        = $7B01 = 31489          MSBASIC.asm:4139
GETINT        = $73CA = 29642          MSBASIC.asm:3031
GETLEN        = $72B8 = 29368          MSBASIC.asm:2860
GETLIN        = $65D9 = 26073          MSBASIC.asm:935
GETLINE       = $1277 =  4727          COMANDOS.asm:474
GETLINE_BS    = $12B0 =  4784          COMANDOS.asm:505
GETLINE_DONE  = $12C8 =  4808          COMANDOS.asm:518
GETLINE_LOOP  = $127C =  4732          COMANDOS.asm:477
GETLN         = $68C9 = 26825          MSBASIC.asm:1387
GETNUM        = $6C69 = 27753          MSBASIC.asm:1872
GETNXT        = $653E = 25918          MSBASIC.asm:840
GETSTR        = $7282 = 29314          MSBASIC.asm:2826
GETVAR        = $6E5F = 28255          MSBASIC.asm:2176
GET_ROW_DATA  = $08B0 =  2224          GLCD.asm:1155
GLCD_DATA     = $0071 =   113          Main.asm:138
GLCD_INST     = $0070 =   112          Main.asm:137
GNXARY        = $71BC = 29116          MSBASIC.asm:2688
GOFUNC        = $6D99 = 28057          MSBASIC.asm:2035
GOSUB         = $693F = 26943          MSBASIC.asm:1452
GOTO          = $6950 = 26960          MSBASIC.asm:1464
GO_BAD        = $11E7 =  4583          COMANDOS.asm:381
GO_CMD        = $11E1 =  4577          COMANDOS.asm:376
GRBARY        = $71DC = 29148          MSBASIC.asm:2707
GRBDON        = $715D = 29021          MSBASIC.asm:2637
GRBLP         = $7196 = 29078          MSBASIC.asm:2669
GRET          = $02A5 =   677          TECLADO.asm:24
GSTRCU        = $7285 = 29317          MSBASIC.asm:2827
GSTRDE        = $7289 = 29321          MSBASIC.asm:2829
GSTRHL        = $7288 = 29320          MSBASIC.asm:2828
GTFLNM        = $72C7 = 29383          MSBASIC.asm:2870 (unused)
GTFNAM        = $6E64 = 28260          MSBASIC.asm:2179
GTLNLP        = $68CC = 26828          MSBASIC.asm:1388
GTSIXD        = $7822 = 30754          MSBASIC.asm:3764
GTVLUS        = $6B65 = 27493          MSBASIC.asm:1738
GetKeycode    = $02D1 =   721          TECLADO.asm:75
HALF          = $78C9 = 30921          MSBASIC.asm:3869
HALFPI        = $7A82 = 31362          MSBASIC.asm:4087
HELP_CMD      = $11FF =  4607          COMANDOS.asm:407
HEX           = $7B41 = 31553          MSBASIC.asm:4182
HEX1          = $7B5A = 31578          MSBASIC.asm:4195
HEX2          = $7B5C = 31580          MSBASIC.asm:4197
HEX3          = $7B6A = 31594          MSBASIC.asm:4205
HEX4          = $7B6C = 31596          MSBASIC.asm:4207
HEXBUF        = $FBF0 = 64496          Main.asm:461
HEXIT         = $7BC6 = 31686          MSBASIC.asm:4270
HEXLP         = $7BA2 = 31650          MSBASIC.asm:4245
HEXLP1        = $7BA7 = 31655          MSBASIC.asm:4247
HEXTFP        = $7B96 = 31638          MSBASIC.asm:4240
HX            = $0026 =    38          MSBASIC.asm:121
HXERR         = $7BCF = 31695          MSBASIC.asm:4278
H_Delay       = $027B =   635          Main.asm:353
HexOut        = $18CA =  6346          I2C.asm:457
HexOutHex     = $18D7 =  6359          I2C.asm:467
HexOutSkip    = $18DD =  6365          I2C.asm:470
I2CA_BLOCK    = $FBFD = 64509          Main.asm:470
I2CLIST       = $182D =  6189          I2C.asm:325
I2C_ADDR      = $FBFF = 64511          Main.asm:472 (unused)
I2C_Close     = $175E =  5982          I2C.asm:22
I2C_DD        = $FC01 = 64513          Main.asm:474 (unused)
I2C_INIT      = $17E4 =  6116          I2C.asm:228
I2C_LIST_MSG  = $1817 =  6167          I2C.asm:273
I2C_MemRd     = $185B =  6235          I2C.asm:368
I2C_MemRdRead = $1882 =  6274          I2C.asm:392
I2C_MemRdReady = $1871 =  6257          I2C.asm:383
I2C_MemRdRepeat = $185F =  6239          I2C.asm:370
I2C_MemWr     = $1893 =  6291          I2C.asm:416
I2C_MemWrBlock = $18AA =  6314          I2C.asm:432 (unused)
I2C_MemWrReady = $18A9 =  6313          I2C.asm:431
I2C_MemWrRepeat = $1897 =  6295          I2C.asm:418
I2C_MemWrStore = $18C2 =  6338          I2C.asm:447
I2C_MemWrWrite = $18B2 =  6322          I2C.asm:436
I2C_Open      = $1757 =  5975          I2C.asm:10
I2C_PORT      = $0021 =    33          I2C.asm:88
I2C_QUIES     = $0081 =   129          I2C.asm:93
I2C_RAMCPY    = $FBFE = 64510          Main.asm:471
I2C_RR        = $FC00 = 64512          Main.asm:473 (unused)
I2C_RdPort    = $180E =  6158          I2C.asm:254
I2C_Read      = $179E =  6046          I2C.asm:163
I2C_ReadNoAck = $17C0 =  6080          I2C.asm:183
I2C_ReadRd_Loop = $17A6 =  6054          I2C.asm:168
I2C_ReadRotate = $17B2 =  6066          I2C.asm:174
I2C_SCL_HI    = $17E8 =  6120          I2C.asm:231
I2C_SCL_LO    = $17EF =  6127          I2C.asm:235
I2C_SCL_RD    = $0000 =     0          I2C.asm:92 (unused)
I2C_SCL_WR    = $0000 =     0          I2C.asm:91
I2C_SDA_HI    = $17F6 =  6134          I2C.asm:239
I2C_SDA_LO    = $17FD =  6141          I2C.asm:243
I2C_SDA_RD    = $0007 =     7          I2C.asm:90
I2C_SDA_WR    = $0007 =     7          I2C.asm:89
I2C_Start     = $17CB =  6091          I2C.asm:198
I2C_Stop      = $17D6 =  6102          I2C.asm:214
I2C_WrPort    = $1802 =  6146          I2C.asm:246
I2C_Write     = $1761 =  5985          I2C.asm:116
I2C_WriteBit_Clk = $1772 =  6002          I2C.asm:125
I2C_WriteBit_Hi = $176F =  5999          I2C.asm:124
I2C_WriteNoAck = $178F =  6031          I2C.asm:143
I2C_WriteWr_Loop = $1766 =  5990          I2C.asm:120
ID            = $0016 =    22          MSBASIC.asm:113
IDTEST        = $70AD = 28845          MSBASIC.asm:2532
IF            = $6A22 = 27170          MSBASIC.asm:1582
IFGO          = $6A30 = 27184          MSBASIC.asm:1589
IFJMP         = $67D3 = 26579          MSBASIC.asm:1219
INCH          = $0F76 =  3958          SERIAL.asm:58
INCHL         = $76A1 = 30369          MSBASIC.asm:3509
INCLEN        = $668D = 26253          MSBASIC.asm:1032
INC_CURSOR    = $07B0 =  1968          GLCD.asm:955
INC_ROW       = $07BD =  1981          GLCD.asm:962
INDFND        = $6357 = 25431          MSBASIC.asm:553
INEWLN        = $643C = 25660          MSBASIC.asm:682
INICIO        = $0220 =   544          Main.asm:277
INICIO1       = $0225 =   549          Main.asm:286 (unused)
INIT          = $6018 = 24600          MSBASIC.asm:140
INITAB        = $62C5 = 25285          MSBASIC.asm:481
INITBE        = $6325 = 25381          MSBASIC.asm:524
INITST        = $7C43 = 31811          MSBASIC.asm:4361
INIT_BASIC    = $0929 =  2345          GLCD.asm:1243
INMSG         = $632C = 25388          MSBASIC.asm:529
INP           = $7387 = 29575          MSBASIC.asm:2999
INPBIN        = $6BB7 = 27575          MSBASIC.asm:1782
INPBRK        = $684B = 26699          MSBASIC.asm:1317
INPORT        = $803F = 32831          MSBASIC.asm:47
INPSUB        = $803E = 32830          MSBASIC.asm:46
INPUT         = $6B25 = 27429          MSBASIC.asm:1703
INRNG         = $782B = 30763          MSBASIC.asm:3769
INT           = $771E = 30494          MSBASIC.asm:3610
INTVAR        = $64B0 = 25776          MSBASIC.asm:770
INVERSE       = $FB95 = 64405          Main.asm:445
INVSGN        = $7674 = 30324          MSBASIC.asm:3476
INV_BIT       = $08BD =  2237          GLCD.asm:1167
IN_BAD        = $11DA =  4570          COMANDOS.asm:367
IN_CMD        = $11CB =  4555          COMANDOS.asm:358
IS_HEX        = $12EA =  4842          COMANDOS.asm:560
IS_HEX_BAD    = $1302 =  4866          COMANDOS.asm:575
IS_HEX_DIG    = $12FF =  4863          COMANDOS.asm:572
ITMSEP        = $6BA8 = 27560          MSBASIC.asm:1773
JJUMP1        = $7C36 = 31798          MSBASIC.asm:4349 (unused)
JSTZER        = $78B4 = 30900          MSBASIC.asm:3854
JUST_PLOT     = $0747 =  1863          GLCD.asm:856
KEYBOARD      = $0040 =    64          Main.asm:140
KEYMAP_NORMAL = $01A0 =   416          Main.asm:256
KEYMAP_SHIFT  = $01E0 =   480          Main.asm:266
KEY_PRESS     = $FB9F = 64415          Main.asm:457
KILFOR        = $6C59 = 27737          MSBASIC.asm:1863
KILIN         = $65D3 = 26067          MSBASIC.asm:932
LCD_SCROLL    = $1272 =  4722          COMANDOS.asm:467
LCRFLG        = $80AC = 32940          MSBASIC.asm:68
LDETXT        = $16DB =  5851          IHEX.asm:284
LDETXTLCD     = $16F4 =  5876          IHEX.asm:288
LEFT          = $72E4 = 29412          MSBASIC.asm:2888
LEN           = $72B4 = 29364          MSBASIC.asm:2858
LET           = $69AA = 27050          MSBASIC.asm:1517
LETNUM        = $69FD = 27133          MSBASIC.asm:1559
LETSTR        = $69C5 = 27077          MSBASIC.asm:1530
LF            = $000A =    10          Main.asm:147
LFRGNM        = $737D = 29565          MSBASIC.asm:2990
LINEAT        = $805C = 32860          MSBASIC.asm:63
LINEBUF       = $FBA0 = 64416          Main.asm:460
LINEIN        = $77DD = 30685          MSBASIC.asm:3730
LINES         = $7B10 = 31504          MSBASIC.asm:4151
LINESC        = $8046 = 32838          MSBASIC.asm:53
LINESN        = $8048 = 32840          MSBASIC.asm:54
LINE_LOOP     = $04B2 =  1202          GLCD.asm:334
LINFND        = $6425 = 25637          MSBASIC.asm:668
LIST          = $66A8 = 26280          MSBASIC.asm:1049
LISTLOOP      = $1835 =  6197          I2C.asm:329
LISTLP        = $66B4 = 26292          MSBASIC.asm:1055
LISTNEXT      = $1846 =  6214          I2C.asm:338
LISTTEST      = $1852 =  6226          I2C.asm:351
LL2           = $04DD =  1245          GLCD.asm:366
LL3           = $04EA =  1258          GLCD.asm:374
LOAD          = $1586 =  5510          IHEX.asm:49
LOAD00        = $15DB =  5595          IHEX.asm:110
LOAD2         = $15A4 =  5540          IHEX.asm:69
LOAD2_SKIP    = $15B3 =  5555          IHEX.asm:78
LOAD3         = $15C4 =  5572          IHEX.asm:91
LOADERR       = $15CD =  5581          IHEX.asm:98
LOADFP        = $769A = 30362          MSBASIC.asm:3502
LOAD_BAD      = $1151 =  4433          COMANDOS.asm:267
LOAD_BYTE     = $1132 =  4402          COMANDOS.asm:248
LOAD_CMD      = $1104 =  4356          COMANDOS.asm:220
LOAD_END_ADDR = $FBFB = 64507          Main.asm:467
LOAD_FIRST_FLAG = $FBF8 = 64504          Main.asm:465
LOAD_HEX_CMD  = $10B1 =  4273          COMANDOS.asm:145
LOAD_LOOP     = $1112 =  4370          COMANDOS.asm:227
LOAD_NEXT_LINE = $114F =  4431          COMANDOS.asm:264
LOAD_START_ADDR = $FBF9 = 64505          Main.asm:466
LOG           = $74FF = 29951          MSBASIC.asm:3243
LOGTAB        = $74F2 = 29938          MSBASIC.asm:3238
LOKFOR        = $6341 = 25409          MSBASIC.asm:536
LOOPST        = $80C7 = 32967          MSBASIC.asm:77
LS            = $001C =    28          MSBASIC.asm:116
LSTBIN        = $80CC = 32972          MSBASIC.asm:80
LSTLP2        = $66D4 = 26324          MSBASIC.asm:1076
LSTLP3        = $66D7 = 26327          MSBASIC.asm:1077
LSTRAM        = $80AF = 32943          MSBASIC.asm:71
LSTRND        = $803A = 32826          MSBASIC.asm:45
LTSTND        = $6BC2 = 27586          MSBASIC.asm:1787
LWIDTH        = $8042 = 32834          MSBASIC.asm:49
LoopBC        = $0281 =   641          Main.asm:359
LoopDE        = $027E =   638          Main.asm:357
MAIN_LOOP     = $024F =   591          Main.asm:317
MAKINT        = $73CD = 29645          MSBASIC.asm:3032
MAKNUM        = $7847 = 30791          MSBASIC.asm:3784
MANLP         = $7766 = 30566          MSBASIC.asm:3655
MATCH         = $6570 = 25968          MSBASIC.asm:872
MEMMSG        = $60CF = 24783          MSBASIC.asm:224
MEN_SHIFT     = $FB9E = 64414          Main.asm:456
MID           = $731E = 29470          MSBASIC.asm:2928
MID1          = $72EA = 29418          MSBASIC.asm:2892
MIDNUM        = $7382 = 29570          MSBASIC.asm:2993
MINCDE        = $7445 = 29765          MSBASIC.asm:3099
MINUS         = $6D48 = 27976          MSBASIC.asm:1990
MKTMST        = $70F1 = 28913          MSBASIC.asm:2574
MLDBLP        = $773F = 30527          MSBASIC.asm:3631
MLDEBC        = $7737 = 30519          MSBASIC.asm:3626
MLOOP         = $6048 = 24648          MSBASIC.asm:161
MLSP10        = $7634 = 30260          MSBASIC.asm:3437
MO            = $0024 =    36          MSBASIC.asm:120
MONITR        = $7C40 = 31808          MSBASIC.asm:4357
MONOUT        = $7C3D = 31805          MSBASIC.asm:4353
MORDT         = $6BCE = 27598          MSBASIC.asm:1792
MORINP        = $65E2 = 26082          MSBASIC.asm:940
MOVBUF        = $645B = 25691          MSBASIC.asm:703
MOVDIR        = $6578 = 25976          MSBASIC.asm:880
MOVE_DOWN     = $0825 =  2085          GLCD.asm:1030
MOVE_UP       = $0817 =  2071          GLCD.asm:1021 (unused)
MOVE_VPORT    = $0810 =  2064          GLCD.asm:1016
MOVLP         = $6366 = 25446          MSBASIC.asm:563
MOVSTR        = $6363 = 25443          MSBASIC.asm:560
MOVUP         = $6360 = 25440          MSBASIC.asm:559
MRPRNT        = $6A42 = 27202          MSBASIC.asm:1596
MSG_BAD_ADDR  = $13BC =  5052          COMANDOS.asm:720
MSG_HELP_L0   = $141E =  5150          COMANDOS.asm:732
MSG_HELP_L1   = $1428 =  5160          COMANDOS.asm:733
MSG_HELP_L10  = $147F =  5247          COMANDOS.asm:742
MSG_HELP_L11  = $148C =  5260          COMANDOS.asm:743
MSG_HELP_L12  = $14A0 =  5280          COMANDOS.asm:744
MSG_HELP_L13  = $14B5 =  5301          COMANDOS.asm:745
MSG_HELP_L14  = $14C7 =  5319          COMANDOS.asm:746
MSG_HELP_L15  = $14D9 =  5337          COMANDOS.asm:747
MSG_HELP_L16  = $14EB =  5355          COMANDOS.asm:748
MSG_HELP_L17  = $14FE =  5374          COMANDOS.asm:749
MSG_HELP_L18  = $1516 =  5398          COMANDOS.asm:750
MSG_HELP_L19  = $1528 =  5416          COMANDOS.asm:751 (unused)
MSG_HELP_L2   = $142F =  5167          COMANDOS.asm:734
MSG_HELP_L20  = $153C =  5436          COMANDOS.asm:752 (unused)
MSG_HELP_L3   = $1434 =  5172          COMANDOS.asm:735
MSG_HELP_L4   = $143F =  5183          COMANDOS.asm:736
MSG_HELP_L5   = $144B =  5195          COMANDOS.asm:737
MSG_HELP_L6   = $1456 =  5206          COMANDOS.asm:738
MSG_HELP_L7   = $1461 =  5217          COMANDOS.asm:739
MSG_HELP_L8   = $1469 =  5225          COMANDOS.asm:740
MSG_HELP_L9   = $1474 =  5236          COMANDOS.asm:741
MSG_LOAD_HELP = $1715 =  5909          IHEX.asm:305
MSG_LOAD_HELP_LCD = $1717 =  5911          IHEX.asm:306
MSG_LOAD_HINT = $13E6 =  5094          COMANDOS.asm:729
MSG_OK        = $13E2 =  5090          COMANDOS.asm:726
MSG_PROMPT    = $1396 =  5014          COMANDOS.asm:714 (unused)
MSG_SYNTAX    = $13D0 =  5072          COMANDOS.asm:723
MSG_UNKNOWN   = $139B =  5019          COMANDOS.asm:717
MSIZE         = $6035 = 24629          MSBASIC.asm:154
MUL8LP        = $756B = 30059          MSBASIC.asm:3298
MULLN2        = $7537 = 30007          MSBASIC.asm:3269
MULT          = $753E = 30014          MSBASIC.asm:3273
MULT8         = $7562 = 30050          MSBASIC.asm:3292
MULTEN        = $77A8 = 30632          MSBASIC.asm:3691
MULVAL        = $80F6 = 33014          MSBASIC.asm:96
MVSTPT        = $69F4 = 27124          MSBASIC.asm:1553
NADA          = $019F =   415          Main.asm:227
NEDMOR        = $6B61 = 27489          MSBASIC.asm:1736
NEGAFT        = $78DF = 30943          MSBASIC.asm:3878
NEW           = $64A0 = 25760          MSBASIC.asm:758
NEXITM        = $6AFA = 27386          MSBASIC.asm:1689
NEXT          = $6C1E = 27678          MSBASIC.asm:1831
NEXT1         = $6C21 = 27681          MSBASIC.asm:1832
NEXT_CHAR     = $0750 =  1872          GLCD.asm:874
NEXT_CIRCLE   = $05CB =  1483          GLCD.asm:545
NEXT_CMD      = $039F =   927          GLCD.asm:104
NEXT_COL      = $0363 =   867          TECLADO.asm:218
NEXT_PIXEL    = $0448 =  1096          GLCD.asm:235
NF            = $0000 =     0          MSBASIC.asm:102
NFERR         = $639A = 25498          MSBASIC.asm:597
NIBBLE_TO_LCD = $0784 =  1924          GLCD.asm:909
NMIFLG        = $804C = 32844          MSBASIC.asm:56 (unused)
NOCHNG        = $6568 = 25960          MSBASIC.asm:867
NOENED        = $78B7 = 30903          MSBASIC.asm:3857
NOLIN         = $6861 = 26721          MSBASIC.asm:1328
NOMADD        = $757C = 30076          MSBASIC.asm:3309
NOMLAD        = $774D = 30541          MSBASIC.asm:3639
NOPMPT        = $6B3F = 27455          MSBASIC.asm:1715
NORMAL        = $7470 = 29808          MSBASIC.asm:3134
NOSPC         = $655F = 25951          MSBASIC.asm:862
NOSUB7        = $7BC2 = 31682          MSBASIC.asm:4266
NOSWAP        = $741F = 29727          MSBASIC.asm:3080
NOTAMP        = $6D1D = 27933          MSBASIC.asm:1971
NOTSTR        = $6E97 = 28311          MSBASIC.asm:2201
NOXOR         = $73AD = 29613          MSBASIC.asm:3016
NO_SHIFT      = $02E6 =   742          TECLADO.asm:96
NSCFOR        = $6EA7 = 28327          MSBASIC.asm:2209
NUL           = $0000 =     0          COMANDOS.asm:9
NULFLG        = $8044 = 32836          MSBASIC.asm:51
NULL          = $6885 = 26757          MSBASIC.asm:1347
NULLP         = $6AB5 = 27317          MSBASIC.asm:1651
NULLS         = $8041 = 32833          MSBASIC.asm:48
NUMASC        = $77F0 = 30704          MSBASIC.asm:3740
NXTARY        = $6F5E = 28510          MSBASIC.asm:2322
NXTBYT        = $654E = 25934          MSBASIC.asm:852
NXTCHR        = $658F = 25999          MSBASIC.asm:892
NXTDAT        = $80DC = 32988          MSBASIC.asm:89
NXTDTA        = $6992 = 27026          MSBASIC.asm:1499
NXTITM        = $6B59 = 27481          MSBASIC.asm:1731
NXTOPR        = $80D0 = 32976          MSBASIC.asm:83
NXTSTL        = $6999 = 27033          MSBASIC.asm:1504
NXTSTT        = $699C = 27036          MSBASIC.asm:1507
OD            = $0006 =     6          MSBASIC.asm:105
OKMSG         = $6331 = 25393          MSBASIC.asm:531
OM            = $000C =    12          MSBASIC.asm:108
OMERR         = $6389 = 25481          MSBASIC.asm:588
ON            = $6A04 = 27140          MSBASIC.asm:1565
ONGO          = $6A13 = 27155          MSBASIC.asm:1573
ONGOLP        = $6A14 = 27156          MSBASIC.asm:1574
ONJMP         = $67D4 = 26580          MSBASIC.asm:1224
OPNPAR        = $6C77 = 27767          MSBASIC.asm:1881
OPRND         = $6CF2 = 27890          MSBASIC.asm:1954
OS            = $001A =    26          MSBASIC.asm:115
OTKLN         = $65D0 = 26064          MSBASIC.asm:931
OTPORT        = $8007 = 32775          MSBASIC.asm:38
OUTC          = $666D = 26221          MSBASIC.asm:1015
OUTCH         = $0F70 =  3952          SERIAL.asm:53
OUTEXP        = $78A8 = 30888          MSBASIC.asm:3847
OUTIT         = $664E = 26190          MSBASIC.asm:993
OUTNBS        = $6654 = 26196          MSBASIC.asm:996
OUTNCR        = $7C54 = 31828          MSBASIC.asm:4375
OUTSUB        = $8006 = 32774          MSBASIC.asm:37
OUTWRD        = $66F0 = 26352          MSBASIC.asm:1091
OUT_BAD       = $11C4 =  4548          COMANDOS.asm:349
OUT_CMD       = $11AD =  4525          COMANDOS.asm:333
OV            = $000A =    10          MSBASIC.asm:107
OVERR         = $63A3 = 25507          MSBASIC.asm:603
OVTST1        = $7627 = 30247          MSBASIC.asm:3429
OVTST2        = $762C = 30252          MSBASIC.asm:3432
OVTST3        = $762D = 30253          MSBASIC.asm:3433
PADD          = $77CC = 30668          MSBASIC.asm:3716
PAND          = $6DB3 = 28083          MSBASIC.asm:2057
PARSE_CMD     = $0FC8 =  4040          COMANDOS.asm:16
PARSE_HEX16_DE = $1336 =  4918          COMANDOS.asm:627
PARSE_HEX8_DE = $131D =  4893          COMANDOS.asm:604
PARSE_HEX8_HL = $1304 =  4868          COMANDOS.asm:581
PASSA         = $7033 = 28723          MSBASIC.asm:2459
PBUFF         = $80E9 = 33001          MSBASIC.asm:95
PC_LOOP       = $0691 =  1681          GLCD.asm:732
PEEK          = $73DB = 29659          MSBASIC.asm:3041
PEND          = $6846 = 26694          MSBASIC.asm:1314
PG_BUF        = $FC36 = 64566          Main.asm:488
PHLTFP        = $7689 = 30345          MSBASIC.asm:3492
PHX8D_ERR     = $1333 =  4915          COMANDOS.asm:621
PHX8_ERR      = $131A =  4890          COMANDOS.asm:598
PIXEL_X       = $FB96 = 64406          Main.asm:446
PLOT_ALWAYS   = $FB99 = 64409          Main.asm:449
PLOT_BIT      = $08C2 =  2242          GLCD.asm:1171
PLOT_BYTE     = $0899 =  2201          GLCD.asm:1139
PLOT_COLUMN   = $0646 =  1606          GLCD.asm:666
PLOT_GRAPHIC  = $088F =  2191          GLCD.asm:1133
PLOT_ROW      = $062F =  1583          GLCD.asm:654
PLUCDE        = $74AA = 29866          MSBASIC.asm:3176
PNORM         = $7478 = 29816          MSBASIC.asm:3142
PN_DONE       = $1389 =  5001          COMANDOS.asm:698
POINT         = $8051 = 32849          MSBASIC.asm:59
POKE          = $73E2 = 29666          MSBASIC.asm:3045
POPAF         = $7177 = 29047          MSBASIC.asm:2652
POPHL         = $72A1 = 29345          MSBASIC.asm:2843
POPHRT        = $758C = 30092          MSBASIC.asm:3323
POPNOK        = $63DE = 25566          MSBASIC.asm:631
POR           = $6DB2 = 28082          MSBASIC.asm:2056
POR1          = $6DD5 = 28117          MSBASIC.asm:2080
POS           = $7030 = 28720          MSBASIC.asm:2458
POSINT        = $68A5 = 26789          MSBASIC.asm:1370
POUT          = $7393 = 29587          MSBASIC.asm:3004
POWER         = $78ED = 30957          MSBASIC.asm:3886
POWER1        = $78FD = 30973          MSBASIC.asm:3894
POWER2        = $791A = 31002          MSBASIC.asm:3912
POWERS        = $78CD = 30925          MSBASIC.asm:3871
PRINT         = $6A46 = 27206          MSBASIC.asm:1598
PRINT_HEX16   = $138D =  5005          COMANDOS.asm:703
PRINT_HEX8    = $1372 =  4978          COMANDOS.asm:681
PRINT_NIBBLE  = $137F =  4991          COMANDOS.asm:692
PRITAB        = $6286 = 25222          MSBASIC.asm:434
PRNTCRLF      = $6AA4 = 27300          MSBASIC.asm:1644
PRNTHL        = $77E5 = 30693          MSBASIC.asm:3734
PRNTLP        = $6A49 = 27209          MSBASIC.asm:1599
PRNTNB        = $6A8C = 27276          MSBASIC.asm:1631
PRNTOK        = $63DF = 25567          MSBASIC.asm:633
PRNTST        = $6A90 = 27280          MSBASIC.asm:1633
PRNUMS        = $7141 = 28993          MSBASIC.asm:2621
PROCES        = $65FB = 26107          MSBASIC.asm:951
PROGND        = $80D6 = 32982          MSBASIC.asm:86
PROGST        = $80F9 = 33017          MSBASIC.asm:97
PROMPT        = $64E3 = 25827          MSBASIC.asm:795
PRS           = $7142 = 28994          MSBASIC.asm:2622
PRS1          = $7145 = 28997          MSBASIC.asm:2623
PRSLP         = $714C = 29004          MSBASIC.asm:2626
PSET          = $8054 = 32852          MSBASIC.asm:60
PSUB          = $7400 = 29696          MSBASIC.asm:3061
PTRLP         = $6468 = 25704          MSBASIC.asm:712
PUTBUF        = $663A = 26170          MSBASIC.asm:982
PUTCH         = $FB9A = 64410          Main.asm:452
PUTCHAR       = $0378 =   888          GLCD.asm:63
PUTCTL        = $663F = 26175          MSBASIC.asm:984
PUTFID        = $67A8 = 26536          MSBASIC.asm:1193
PUTS          = $0384 =   900          GLCD.asm:78
QTSTLP        = $7107 = 28935          MSBASIC.asm:2591
QTSTR         = $7101 = 28929          MSBASIC.asm:2587
QUARTR        = $7A86 = 31366          MSBASIC.asm:4089
RAD           = $FB8E = 64398          Main.asm:438
READ          = $6B54 = 27476          MSBASIC.asm:1728
READFG        = $80CD = 32973          MSBASIC.asm:81
REDO          = $6B01 = 27393          MSBASIC.asm:1693
REM           = $6995 = 27029          MSBASIC.asm:1502
REMOVE_PIXEL  = $08CC =  2252          GLCD.asm:1177
RESDIV        = $75D9 = 30169          MSBASIC.asm:3374
RESEED        = $7A24 = 31268          MSBASIC.asm:4045
RESET         = $8057 = 32855          MSBASIC.asm:61
RESTNL        = $6821 = 26657          MSBASIC.asm:1284
RESTOR        = $680C = 26636          MSBASIC.asm:1273
RESZER        = $746B = 29803          MSBASIC.asm:3130
RETADR        = $6F0E = 28430          MSBASIC.asm:2269
RETINT        = $7662 = 30306          MSBASIC.asm:3465
RETLIN        = $698D = 27021          MSBASIC.asm:1496
RETNAD        = $6574 = 25972          MSBASIC.asm:876
RETNUL        = $6F11 = 28433          MSBASIC.asm:2273
RETNUM        = $6D54 = 27988          MSBASIC.asm:1995
RETREL        = $7654 = 30292          MSBASIC.asm:3455
RETURN        = $696E = 26990          MSBASIC.asm:1480
RG            = $0004 =     4          MSBASIC.asm:104
RIGHT         = $7314 = 29460          MSBASIC.asm:2921
RIGHT1        = $72E8 = 29416          MSBASIC.asm:2890
RINPUT        = $804E = 32846          MSBASIC.asm:58
RLTLP         = $6C97 = 27799          MSBASIC.asm:1897
RND           = $79C3 = 31171          MSBASIC.asm:3992
RND1          = $79FF = 31231          MSBASIC.asm:4023
RND2          = $7A1B = 31259          MSBASIC.asm:4041
RNDTAB        = $7A2C = 31276          MSBASIC.asm:4052
RNGTST        = $78BA = 30906          MSBASIC.asm:3861
RONDB         = $748C = 29836          MSBASIC.asm:3154
RONDUP        = $748B = 29835          MSBASIC.asm:3153
ROUND         = $73F3 = 29683          MSBASIC.asm:3055
ROWS          = $0925 =  2341          GLCD.asm:1241
ROW_FOUND     = $035D =   861          TECLADO.asm:212
RSCALE        = $77C6 = 30662          MSBASIC.asm:3714
RSLNBK        = $672A = 26410          MSBASIC.asm:1123
RST08         = $0008 =     8          Main.asm:159 (unused)
RST10         = $0010 =    16          Main.asm:162 (unused)
RST18         = $0018 =    24          Main.asm:165 (unused)
RSTSTR        = $7337 = 29495          MSBASIC.asm:2941
RUN           = $6933 = 26931          MSBASIC.asm:1447
RUNCNT        = $67AC = 26540          MSBASIC.asm:1197
RUNFST        = $64AC = 25772          MSBASIC.asm:767
RUNLIN        = $694F = 26959          MSBASIC.asm:1463
RXDATA        = $0F9D =  3997          SERIAL.asm:126
RXDATA_B      = $0FBC =  4028          SERIAL.asm:181
SAVEXP        = $746C = 29804          MSBASIC.asm:3131
SAVE_COL      = $0835 =  2101          GLCD.asm:1043
SAVE_ROW      = $07D6 =  2006          GLCD.asm:976
SAVE_VPORT    = $0820 =  2080          GLCD.asm:1026
SAVSTP        = $679F = 26527          MSBASIC.asm:1186
SAVSTR        = $70DC = 28892          MSBASIC.asm:2558
SBSCPT        = $6F1C = 28444          MSBASIC.asm:2279
SBUF          = $0780 =  1920          Main.asm:426
SCALE         = $74CA = 29898          MSBASIC.asm:3208
SCALLP        = $74CC = 29900          MSBASIC.asm:3209
SCALMI        = $7791 = 30609          MSBASIC.asm:3676
SCALPL        = $77A7 = 30631          MSBASIC.asm:3690
SCAN_COL      = $032F =   815          TECLADO.asm:173
SCAN_MATRIX   = $032B =   811          TECLADO.asm:170
SCAN_NONE     = $0372 =   882          TECLADO.asm:232
SCNEND        = $7213 = 29203          MSBASIC.asm:2748
SCPTLP        = $6F22 = 28450          MSBASIC.asm:2283
SDMSG1        = $0F7E =  3966          SERIAL.asm:77
SDMSG2        = $0F89 =  3977          SERIAL.asm:83
SEARCH        = $653C = 25916          MSBASIC.asm:838
SEED          = $8017 = 32791          MSBASIC.asm:44
SERIAL_A_PRINT_A_HEX = $1697 =  5783          IHEX.asm:237
SERIAL_A_PRINT_HL_HEX = $168E =  5774          IHEX.asm:226
SERIAL_A_PRINT_NIBBLE = $16A4 =  5796          IHEX.asm:248
SERIAL_A_PRINT_NIBBLE_09 = $16B0 =  5808          IHEX.asm:255
SERIAL_A_PRINT_STRING = $16B6 =  5814          IHEX.asm:264
SERIAL_A_TXCRLF = $16BF =  5823          IHEX.asm:272
SERIAL_GET_HEX_A = $1F9F =  8095          API.asm:27
SERIAL_GET_HEX_HL = $1FAB =  8107          API.asm:37
SETIO         = $73B7 = 29623          MSBASIC.asm:3023
SETLIN        = $66FE = 26366          MSBASIC.asm:1099
SETLIT        = $6586 = 25990          MSBASIC.asm:888
SETPTR        = $6463 = 25699          MSBASIC.asm:709
SETTOP        = $606C = 24684          MSBASIC.asm:186
SET_DEFAULT_SERIAL_A = $1F85 =  8069          API.asm:10
SET_DEFAULT_SERIAL_B = $1F92 =  8082          API.asm:17
SET_GBUF      = $060B =  1547          GLCD.asm:621
SFTPRG        = $642D = 25645          MSBASIC.asm:672
SGN           = $765A = 30298          MSBASIC.asm:3462
SGNEXP        = $6DA2 = 28066          MSBASIC.asm:2043
SGNRES        = $80E8 = 33000          MSBASIC.asm:94
SHIFT_BIT     = $0624 =  1572          GLCD.asm:643
SHIFT_BUFFER  = $07DA =  2010          GLCD.asm:983
SHRITE        = $74D9 = 29913          MSBASIC.asm:3217
SHRLP         = $74DC = 29916          MSBASIC.asm:3219
SHRT1         = $74E0 = 29920          MSBASIC.asm:3223
SIGNON        = $60BC = 24764          MSBASIC.asm:219
SIGNS         = $76B1 = 30385          MSBASIC.asm:3522
SIN           = $7A3E = 31294          MSBASIC.asm:4058
SIN1          = $7A6E = 31342          MSBASIC.asm:4078
SINTAB        = $7A8A = 31370          MSBASIC.asm:4091
SIOA_C        = $0002 =     2          Main.asm:122
SIOA_D        = $0000 =     0          Main.asm:121
SIOB_C        = $0003 =     3          Main.asm:124
SIOB_D        = $0001 =     1          Main.asm:123
SIXDIG        = $780D = 30733          MSBASIC.asm:3754
SKIP_COMMAND_DE = $12CE =  4814          COMANDOS.asm:527
SKIP_ENTRY    = $0FEB =  4075          COMANDOS.asm:43
SKIP_SPACES   = $12D5 =  4821          COMANDOS.asm:536
SKIP_SPACES_DE = $12DC =  4828          COMANDOS.asm:544
SKIP_SPACES_HL = $12E3 =  4835          COMANDOS.asm:552
SKIP_TBUF     = $07EE =  2030          GLCD.asm:994
SMPVAR        = $71A7 = 29095          MSBASIC.asm:2676
SMSER1        = $79A2 = 31138          MSBASIC.asm:3970
SN            = $0002 =     2          MSBASIC.asm:103
SNDSTR        = $0F7C =  3964          SERIAL.asm:76
SNERR         = $6394 = 25492          MSBASIC.asm:593
SPACE         = $0020 =    32          Main.asm:150
SPCFST        = $77FE = 30718          MSBASIC.asm:3746
SPCLP         = $6AF3 = 27379          MSBASIC.asm:1686
SQR           = $78E4 = 30948          MSBASIC.asm:3882
SRCHLN        = $6480 = 25728          MSBASIC.asm:731
SRCHLP        = $6483 = 25731          MSBASIC.asm:732
SSTSA         = $726F = 29295          MSBASIC.asm:2808
ST            = $001E =    30          MSBASIC.asm:117
STACK         = $8066 = 32870          MSBASIC.asm:66
STAKFP        = $767C = 30332          MSBASIC.asm:3482
STALL         = $6835 = 26677          MSBASIC.asm:1301
STARTB        = $6006 = 24582          MSBASIC.asm:128
STKTHS        = $6CDB = 27867          MSBASIC.asm:1938
STLOOK        = $815D = 33117          MSBASIC.asm:98
STOP          = $6844 = 26692          MSBASIC.asm:1312
STORED        = $6910 = 26896          MSBASIC.asm:1427
STPOOL        = $71EA = 29162          MSBASIC.asm:2713
STR           = $70CC = 28876          MSBASIC.asm:2551
STR1          = $70D2 = 28882          MSBASIC.asm:2553
STRADD        = $71ED = 29165          MSBASIC.asm:2715
STRBOT        = $80C3 = 32963          MSBASIC.asm:75
STRCMP        = $1366 =  4966          COMANDOS.asm:664
STRENT        = $6BAB = 27563          MSBASIC.asm:1775
STRSPC        = $805A = 32858          MSBASIC.asm:62
STTLIN        = $6A97 = 27287          MSBASIC.asm:1637
SUBCDE        = $7402 = 29698          MSBASIC.asm:3063
SUBPHL        = $73FC = 29692          MSBASIC.asm:3059
SUMLP         = $79AB = 31147          MSBASIC.asm:3975
SUMSER        = $7993 = 31123          MSBASIC.asm:3963
SUPTLZ        = $788C = 30860          MSBASIC.asm:3831
SVNAM2        = $6E7B = 28283          MSBASIC.asm:2188
SVSTAD        = $70FA = 28922          MSBASIC.asm:2579
SX            = $FB86 = 64390          Main.asm:433
SY            = $FB87 = 64391          Main.asm:434
SYSTEM_SP     = $FFF0 = 65520          Main.asm:116
TAB           = $0009 =     9          Main.asm:146
TAN           = $7A9F = 31391          MSBASIC.asm:4098
TBUF          = $FB82 = 64386          Main.asm:431
TESTOS        = $7179 = 29049          MSBASIC.asm:2655
TESTR         = $715B = 29019          MSBASIC.asm:2635
TGBUF         = $F780 = 63360          Main.asm:429
TIMEOUT       = $2710 = 10000          Main.asm:130
TM            = $0018 =    24          MSBASIC.asm:114
TMERR         = $63A6 = 25510          MSBASIC.asm:605
TMPSTR        = $80BF = 32959          MSBASIC.asm:74
TMSTPL        = $80B3 = 32947          MSBASIC.asm:73
TMSTPT        = $80B1 = 32945          MSBASIC.asm:72
TOP           = $041D =  1053          GLCD.asm:190
TOPOOL        = $72E0 = 29408          MSBASIC.asm:2885
TOSTRA        = $7278 = 29304          MSBASIC.asm:2817
TRYAGN        = $7867 = 30823          MSBASIC.asm:3804
TSALP         = $7279 = 29305          MSBASIC.asm:2818
TSTBIT        = $7C4D = 31821          MSBASIC.asm:4368 (unused)
TSTBRK        = $6827 = 26663          MSBASIC.asm:1290
TSTMEM        = $605A = 24666          MSBASIC.asm:174
TSTNUM        = $6C6C = 27756          MSBASIC.asm:1873
TSTOPL        = $7122 = 28962          MSBASIC.asm:2607
TSTRED        = $6DDA = 28122          MSBASIC.asm:2086
TSTREM        = $6589 = 25993          MSBASIC.asm:889
TSTSGN        = $764B = 30283          MSBASIC.asm:3450
TSTSTR        = $6C6D = 27757          MSBASIC.asm:1874
TTYLIN        = $65D9 = 26073          MSBASIC.asm:936
TXDATA        = $0F8A =  3978          SERIAL.asm:94
TXDATA_B      = $0FA9 =  4009          SERIAL.asm:149
TYPE          = $80AD = 32941          MSBASIC.asm:69
UF            = $0022 =    34          MSBASIC.asm:119
UFERR         = $63A0 = 25504          MSBASIC.asm:601
UL            = $000E =    14          MSBASIC.asm:109
ULERR         = $6969 = 26985          MSBASIC.asm:1477
ULINE         = $FB97 = 64407          Main.asm:447
UNITY         = $74EE = 29934          MSBASIC.asm:3236
UP            = $00F8 =   248          GLCD.asm:53
UPCASE_DONE   = $1362 =  4962          COMANDOS.asm:658
UPCASE_LOOP   = $1346 =  4934          COMANDOS.asm:640
UPCASE_STORE  = $135D =  4957          COMANDOS.asm:653
UPCASE_TOKEN  = $1341 =  4929          COMANDOS.asm:637
UPDATA        = $6822 = 26658          MSBASIC.asm:1285
USR           = $8003 = 32771          MSBASIC.asm:36
VAL           = $734E = 29518          MSBASIC.asm:2960
VAL1          = $736C = 29548          MSBASIC.asm:2980
VAL2          = $7376 = 29558          MSBASIC.asm:2984
VAL3          = $7379 = 29561          MSBASIC.asm:2985
VAREND        = $80D8 = 32984          MSBASIC.asm:87
VPORT         = $FB80 = 64384          Main.asm:430
V_DELAY_US    = $0010 =    16          GLCD.asm:50
WAIT          = $7399 = 29593          MSBASIC.asm:3007
WAITLP        = $73AE = 29614          MSBASIC.asm:3017
WAIT_RELEASE  = $0306 =   774          TECLADO.asm:123
WARM          = $6003 = 24579          MSBASIC.asm:127
WARMST        = $60A4 = 24740          MSBASIC.asm:213
WELLCOME      = $1FB4 =  8116          Main.asm:414
WELLCOME_LCD  = $1FCA =  8138          Main.asm:415
WIDTH         = $7B08 = 31496          MSBASIC.asm:4146
WORDS         = $6112 = 24850          MSBASIC.asm:260
WORDTB        = $6238 = 25144          MSBASIC.asm:356
WRKSPC        = $8000 = 32768          MSBASIC.asm:35
ZBYE          = $00D2 =   210          MSBASIC.asm:410
ZDATA         = $0083 =   131          MSBASIC.asm:404
ZDIV          = $00AF =   175          MSBASIC.asm:423 (unused)
ZEND          = $0080 =   128          MSBASIC.asm:402
ZEQUAL        = $00B4 =   180          MSBASIC.asm:426
ZERARY        = $6FBD = 28605          MSBASIC.asm:2382
ZERBYT        = $6330 = 25392          MSBASIC.asm:530
ZEROLP        = $6F00 = 28416          MSBASIC.asm:2260
ZEROSUP       = $7BE0 = 31712          MSBASIC.asm:4287
ZFN           = $00A7 =   167          MSBASIC.asm:414
ZFOR          = $0081 =   129          MSBASIC.asm:403
ZGOSUB        = $008C =   140          MSBASIC.asm:406
ZGOTO         = $0088 =   136          MSBASIC.asm:405
ZGTR          = $00B3 =   179          MSBASIC.asm:425
ZLEFT         = $00CF =   207          MSBASIC.asm:430
ZLTH          = $00B5 =   181          MSBASIC.asm:427
ZMINUS        = $00AD =   173          MSBASIC.asm:421
ZNEW          = $00A4 =   164          MSBASIC.asm:409
ZNOT          = $00AA =   170          MSBASIC.asm:417
ZONELP        = $6ACE = 27342          MSBASIC.asm:1665
ZOR           = $00B2 =   178          MSBASIC.asm:424
ZPLUS         = $00AC =   172          MSBASIC.asm:420
ZPOINT        = $00C7 =   199          MSBASIC.asm:429 (unused)
ZPRINT        = $009E =   158          MSBASIC.asm:408
ZREM          = $008E =   142          MSBASIC.asm:407
ZSGN          = $00B6 =   182          MSBASIC.asm:428
ZSPC          = $00A8 =   168          MSBASIC.asm:415
ZSTEP         = $00AB =   171          MSBASIC.asm:418
ZTAB          = $00A5 =   165          MSBASIC.asm:412
ZTHEN         = $00A9 =   169          MSBASIC.asm:416
ZTIMES        = $00AE =   174          MSBASIC.asm:422 (unused)
ZTO           = $00A6 =   166          MSBASIC.asm:413
_end          = $FD35 = 64821          Main.asm:155 (unused)
_size         = $FD35 = 64821          Main.asm:155 (unused)
_z80_         = $0001 =     1          Main.asm:1 (unused)
autoLF        = $0874 =  2164          GLCD.asm:1098
checkShiftKey = $02D7 =   727          TECLADO.asm:88
clearGBUF     = $03B7 =   951          GLCD.asm:119
clearGrLCD    = $03C7 =   967          GLCD.asm:130
clearPixel    = $05E8 =  1512          GLCD.asm:579
clearTxtLCD   = $03F1 =  1009          GLCD.asm:156
conoutA1      = $0F8B =  3979          SERIAL.asm:96
conoutB1      = $0FAA =  4010          SERIAL.asm:151
cruz          = $7C8F = 31887          MSBASIC.asm:4425
custadd       = $67F6 = 26614          MSBASIC.asm:1246
custtab       = $6282 = 25218          MSBASIC.asm:396
delayMS       = $069F =  1695          GLCD.asm:744
delayUS       = $069C =  1692          GLCD.asm:742
diego         = $7C88 = 31880          MSBASIC.asm:4420
displayCursor = $085A =  2138          GLCD.asm:1071
drawBlank     = $090C =  2316          GLCD.asm:1224
drawBox       = $041C =  1052          GLCD.asm:188
drawCircle    = $0502 =  1282          GLCD.asm:413
drawCursor    = $08EA =  2282          GLCD.asm:1202
drawGraphic   = $087C =  2172          GLCD.asm:1118
drawLine      = $0457 =  1111          GLCD.asm:265
drawPixel     = $05D7 =  1495          GLCD.asm:559
fillBox       = $0447 =  1095          GLCD.asm:233
fillCircle    = $05C9 =  1481          GLCD.asm:543
flipPixel     = $05FA =  1530          GLCD.asm:600
getCursor     = $0855 =  2133          GLCD.asm:1064
initLCD       = $039A =   922          GLCD.asm:101
initSerial    = $0F2D =  3885          SERIAL.asm:2
initTerminal  = $06B2 =  1714          GLCD.asm:768
invGraphic    = $0864 =  2148          GLCD.asm:1080
kCPUClock     = $8000 =7372800          Main.asm:105
kDelayCnt     = $011A =   282          Main.asm:110
kDelayLP      = $001A =    26          Main.asm:107
kDelayOH      = $0024 =    36          Main.asm:106
kDelayTA      = $1CCC =  7372          Main.asm:108
kDelayTB      = $1CA8 =  7336          Main.asm:109
loadInit      = $1551 =  5457          IHEX.asm:3
loopHexLoad   = $1562 =  5474          IHEX.asm:13
monitor_do_load = $1575 =  5493          IHEX.asm:26
msg_load_end  = $1703 =  5891          IHEX.asm:297
msg_load_start = $16FA =  5882          IHEX.asm:293
msg_load_total = $170C =  5900          IHEX.asm:301
notcust       = $67E4 = 26596          MSBASIC.asm:1235
plotAlways    = $0878 =  2168          GLCD.asm:1106
plotToLCD     = $062A =  1578          GLCD.asm:651
printChars    = $067E =  1662          GLCD.asm:720
printString   = $065D =  1629          GLCD.asm:689
readKeyboarPressA = $02BE =   702          TECLADO.asm:61
readKeyboarWaitPressA = $02ED =   749          TECLADO.asm:105
sendCharToLCD = $06DF =  1759          GLCD.asm:800
sendHLToLCD   = $0793 =  1939          GLCD.asm:921
sendRegToLCD  = $0776 =  1910          GLCD.asm:898
sendStringToLCD = $074F =  1871          GLCD.asm:872
setBufClear   = $06A5 =  1701          GLCD.asm:753
setBufNoClear = $06AD =  1709          GLCD.asm:758
setCursor     = $079F =  1951          GLCD.asm:934
setGrMode     = $0407 =  1031          GLCD.asm:170
setTxtMode    = $0415 =  1045          GLCD.asm:179
showCurrentDriver = $025B =   603          Main.asm:326
showCursor    = $0275 =   629          Main.asm:341
showDriveA    = $0267 =   615          Main.asm:333
showDriveB    = $026E =   622          Main.asm:337
str_abort     = $1EA8 =  7848          FS.asm:1072
str_dir_hdr   = $1F66 =  8038          FS.asm:1114
str_dirfull   = $1E77 =  7799          FS.asm:1064
str_empty     = $1E56 =  7766          FS.asm:1052
str_erased    = $1EFA =  7930          FS.asm:1092
str_fc_err    = $1D58 =  7512          FS.asm:827
str_fmt_ask   = $1F04 =  7940          FS.asm:1096
str_i2cerr    = $1E6C =  7788          FS.asm:1060
str_loadat    = $1F33 =  7987          FS.asm:1106
str_nfiles    = $1E5F =  7775          FS.asm:1056
str_nospace   = $1E91 =  7825          FS.asm:1068
str_notfmt    = $1F43 =  8003          FS.asm:1110 (unused)
str_notfound  = $1EB4 =  7860          FS.asm:1076
str_ok        = $1F2E =  7982          FS.asm:1102
str_running   = $1EC5 =  7877          FS.asm:1080
str_saved     = $1ED4 =  7892          FS.asm:1084
str_sure      = $1EE4 =  7908          FS.asm:1088
str_wait      = $1F22 =  7970          FS.asm:1099
underline     = $086C =  2156          GLCD.asm:1089
waitForChar   = $0F9D =  3997          SERIAL.asm:127
waitForCharB  = $0FBC =  4028          SERIAL.asm:182


total time: 0.1974 sec.
no errors
