ASxxxx Linker V03.00/V05.40 + sdld,  page 1.
Hexadecimal  [32-Bits]

Area                                    Addr        Size        Decimal Bytes (Attributes)
--------------------------------        ----        ----        ------- ----- ------------
.  .ABS.                            00000000    00000000 =           0. bytes (ABS,CON)

      Value  Global                              Global Defined In Module
      -----  --------------------------------   ------------------------
     00000000  .__.ABS.                           main
     00000000  l__CABS                         
     00000000  l__DABS                         
     00000000  l__DATA                         
     00000000  l__GSFINAL                      
     00000000  l__GSINIT                       
     00000000  l__HOME                         
     00000000  s__CABS                         
     00000000  s__DABS                         
     00000004  l__INITIALIZED                  
     00000004  l__INITIALIZER                  
     00000192  l__CODE                         
     00008000  s__CODE                         
     00008192  s__DATA                         
     00008192  s__INITIALIZED                  
     00008196  s__GSFINAL                      
     00008196  s__GSINIT                       
     00008196  s__HOME                         
     00008196  s__INITIALIZER                  

ASxxxx Linker V03.00/V05.40 + sdld,  page 2.
Hexadecimal  [32-Bits]

Area                                    Addr        Size        Decimal Bytes (Attributes)
--------------------------------        ----        ----        ------- ----- ------------
_CODE                               00008000    00000192 =         402. bytes (REL,CON)

      Value  Global                              Global Defined In Module
      -----  --------------------------------   ------------------------
     00008000  _main                              main
     00008089  _delay500ms                        main
     0000808D  _delay                             main
     00008092  _I2C_Open                          main
     00008096  _I2C_Close                         main
     0000809A  _I2C_Read                          main
     0000809E  _I2C_Write                         main
     000080A2  _keyboardIsEsc                     main
     000080A6  _keyboardWaitA                     main
     000080AA  _keyboardA                         main
     000080AE  _setDefaultSerialA                 main
     000080B2  _setDefaultSerialB                 main
     000080B6  _serialPrintA                      main
     000080BA  _serialInputA                      main
     000080BE  _serialPrintStr                    main
     000080C2  _serialCRLF                        main
     000080C6  _serialHexA                        main
     000080CA  _serialHexHL                       main
     000080CE  _serialInHexA                      main
     000080D2  _serialInHexHL                     main
     000080D6  _initLCD                           main
     000080DA  _clearGBUF                         main
     000080DE  _clearGrLCD                        main
     000080E2  _clearTxtLCD                       main
     000080E6  _setGrMode                         main
     000080EA  _setTxtMode                        main
     000080EE  _drawBox                           main
     000080FE  _drawLine                          main
     0000810B  _fillBox                           main
     00008118  _drawCircle                        main
     00008123  _fillCircle                        main
     0000812E  _drawPixel                         main
     00008134  _clearPixel                        main
     0000813A  _flipPixel                         main
     00008140  _plotToLCD                         main
     00008144  _printString                       main
     00008148  _printChars                        main
     0000814F  _setBufClear                       main
     00008153  _setBufNoClear                     main
     00008157  _drawGraphic                       main
     0000815B  _invGraphic                        main
     0000815F  _initTerminal                      main
     00008163  _sendCharToLCD                     main
     00008167  _sendStringToLCD                   main
     0000816E  _sendRegToLCD                      main
     00008172  _sendHLToLCD                       main
     00008176  _setCursor                         main
     0000817C  _getCursor                         main
     00008182  _displayCursor                     main
     00008186  _autoLF                            main
ASxxxx Linker V03.00/V05.40 + sdld,  page 3.
Hexadecimal  [32-Bits]

Area                                    Addr        Size        Decimal Bytes (Attributes)
--------------------------------        ----        ----        ------- ----- ------------
_CODE                               00008000    00000192 =         402. bytes (REL,CON)

      Value  Global                              Global Defined In Module
      -----  --------------------------------   ------------------------
     0000818A  _underline                         main
     0000818E  _plotAlways                        main

ASxxxx Linker V03.00/V05.40 + sdld,  page 4.
Hexadecimal  [32-Bits]

Area                                    Addr        Size        Decimal Bytes (Attributes)
--------------------------------        ----        ----        ------- ----- ------------
_INITIALIZED                        00008192    00000004 =           4. bytes (REL,CON)

      Value  Global                              Global Defined In Module
      -----  --------------------------------   ------------------------
     00008192  _x                                 main
     00008193  _y                                 main
     00008194  _vx                                main
     00008195  _vy                                main

ASxxxx Linker V03.00/V05.40 + sdld,  page 5.
Hexadecimal  [32-Bits]

Area                                    Addr        Size        Decimal Bytes (Attributes)
--------------------------------        ----        ----        ------- ----- ------------
_INITIALIZER                        00008196    00000004 =           4. bytes (REL,CON)

      Value  Global                              Global Defined In Module
      -----  --------------------------------   ------------------------
ASxxxx Linker V03.00/V05.40 + sdld,  page 6.

Files Linked                              [ module(s) ]

main.rel                                  [ main ]

ASxxxx Linker V03.00/V05.40 + sdld,  page 7.

User Base Address Definitions

_CODE = 0x8000
_DATA = 0x0000

